	.arch armv7-a
	.fpu softvfp
	.eabi_attribute 20, 1
	.eabi_attribute 21, 1
	.eabi_attribute 23, 3
	.eabi_attribute 24, 1
	.eabi_attribute 25, 1
	.eabi_attribute 26, 2
	.eabi_attribute 30, 2
	.eabi_attribute 18, 4
	.file	"mvc.c"
@ GNU C (Hisilicon_v200(gcc4.4-290+glibc-2.11+eabi+nptl)) version 4.4.1 (arm-hisiv200-linux-gnueabi)
@	compiled by GNU C version 4.1.1 20061011 (Red Hat 4.1.1-30), GMP version 4.3.1, MPFR version 2.4.2.
@ GGC heuristics: --param ggc-min-expand=100 --param ggc-min-heapsize=131072
@ options passed:  -nostdinc
@ -I/release/HiSTBLinuxV100R002C01SPC020/source/kernel/linux-3.10.y/arch/arm/include
@ -Iarch/arm/include/generated
@ -I/release/HiSTBLinuxV100R002C01SPC020/source/kernel/linux-3.10.y/include
@ -Iinclude
@ -I/release/HiSTBLinuxV100R002C01SPC020/source/kernel/linux-3.10.y/arch/arm/include/uapi
@ -Iarch/arm/include/generated/uapi
@ -I/release/HiSTBLinuxV100R002C01SPC020/source/kernel/linux-3.10.y/include/uapi
@ -Iinclude/generated/uapi
@ -I/release/HiSTBLinuxV100R002C01SPC020/source/kernel/linux-3.10.y/drivers/msp/vfmw/vfmw_v4.0
@ -Idrivers/msp/vfmw/vfmw_v4.0
@ -I/release/HiSTBLinuxV100R002C01SPC020/source/kernel/linux-3.10.y/arch/arm/mach-s40/include
@ -I/release/HiSTBLinuxV100R002C01SPC020/source/kernel/linux-3.10.y/../../../source/common/include
@ -I/release/HiSTBLinuxV100R002C01SPC020/source/kernel/linux-3.10.y/../../../source/common/drv/include
@ -I/release/HiSTBLinuxV100R002C01SPC020/source/kernel/linux-3.10.y/../../../source/msp/drv/vfmw/vfmw_v4.0/drv/memmap
@ -I/release/HiSTBLinuxV100R002C01SPC020/source/kernel/linux-3.10.y/../../../source/msp/drv/vfmw/vfmw_v4.0/model/scd
@ -I/release/HiSTBLinuxV100R002C01SPC020/source/kernel/linux-3.10.y/../../../source/msp/drv/vfmw/vfmw_v4.0/firmware/common/softlib
@ -I/release/HiSTBLinuxV100R002C01SPC020/source/kernel/linux-3.10.y/../../../source/msp/drv/vfmw/vfmw_v4.0/firmware/common
@ -I/release/HiSTBLinuxV100R002C01SPC020/source/kernel/linux-3.10.y/../../../source/msp/drv/vfmw/vfmw_v4.0/firmware/common/syntax
@ -I/release/HiSTBLinuxV100R002C01SPC020/source/kernel/linux-3.10.y/../../../source/msp/drv/vfmw/vfmw_v4.0/firmware/driver/HiSCDV200
@ -I/release/HiSTBLinuxV100R002C01SPC020/source/kernel/linux-3.10.y/../../../source/msp/drv/vfmw/vfmw_v4.0/firmware/driver/HiVDHV100
@ -I/release/HiSTBLinuxV100R002C01SPC020/source/kernel/linux-3.10.y/../../../source/msp/drv/vfmw/vfmw_v4.0/firmware/driver/HiVDHV200R001
@ -I/release/HiSTBLinuxV100R002C01SPC020/source/kernel/linux-3.10.y/../../../source/msp/drv/vfmw/vfmw_v4.0/firmware/driver/HiVDHV200R002
@ -I/release/HiSTBLinuxV100R002C01SPC020/source/kernel/linux-3.10.y/../../../source/msp/drv/vfmw/vfmw_v4.0/firmware/driver/HiVDHV200R003
@ -I/release/HiSTBLinuxV100R002C01SPC020/source/kernel/linux-3.10.y/../../../source/msp/drv/vfmw/vfmw_v4.0/firmware/driver/HiVDHV200R004
@ -I/release/HiSTBLinuxV100R002C01SPC020/source/kernel/linux-3.10.y/../../../source/msp/drv/vfmw/vfmw_v4.0/model/rawpacket
@ -I/release/HiSTBLinuxV100R002C01SPC020/source/kernel/linux-3.10.y/../../../source/msp/drv/vfmw/vfmw_v4.0/firmware/product/Hi3716CV200/osal/linux_kernel
@ -I/release/HiSTBLinuxV100R002C01SPC020/source/kernel/linux-3.10.y/../../../source/msp/drv/vfmw/vfmw_v4.0/firmware/product/Hi3716CV200
@ -I/release/HiSTBLinuxV100R002C01SPC020/source/kernel/linux-3.10.y/../../../source/msp/drv/vfmw/vfmw_v4.0/firmware/driver/HiDNR
@ -I/release/HiSTBLinuxV100R002C01SPC020/source/kernel/linux-3.10.y/../../../source/msp/drv/vfmw/vfmw_v4.0/firmware/driver/HiBTLV100
@ -I/release/HiSTBLinuxV100R002C01SPC020/source/kernel/linux-3.10.y/../../../source/msp/drv/vfmw/vfmw_v4.0/firmware/common_test/vdecko
@ -imultilib armv7a_soft -iprefix
@ /opt/hisi-linux/x86-arm/arm-hisiv200-linux/bin/../lib/gcc/arm-hisiv200-linux-gnueabi/4.4.1/
@ -isysroot /opt/hisi-linux/x86-arm/arm-hisiv200-linux/bin/../target
@ -D__KERNEL__ -D__LINUX_ARM_ARCH__=7 -Uarm -DCHIP_TYPE_hi3716cv200
@ -DSDK_VERSION=HiSTBLinuxV100R002C01SPC020 -DHI_GPIOI2C_SUPPORT
@ -DHI_LOG_SUPPORT=1 -DHI_LOG_LEVEL=4 -DHI_PROC_SUPPORT=1
@ -DHI_KEYLED_SUPPORT -DHI_HDCP_SUPPORT -DHI_SCI_SUPPORT -DHI_VI_SUPPORT
@ -DHI_VENC_SUPPORT -DHI_AENC_SUPPORT -DHI_PQ_SUPPORT -DENV_ARMLINUX_KERNEL
@ -DDNR_DISABLE -DSCD_MP4_SLICE_ENABLE -DSUPPORT_JPEG_444
@ -DVFMW_EXTRA_TYPE_DEFINE -DPRODUCT_STB -D__VFMW_REGISTER_ISR__
@ -DVFMW_VDH_V200R004_SUPPORT -DVFMW_H264_SUPPORT -DVFMW_MVC_SUPPORT
@ -DVFMW_MPEG2_SUPPORT -DVFMW_MPEG4_SUPPORT -DVFMW_AVS_SUPPORT
@ -DVFMW_VC1_SUPPORT -DVFMW_BPD_H_SUPPORT -DVFMW_REAL8_SUPPORT
@ -DVFMW_REAL9_SUPPORT -DVFMW_VP6_SUPPORT -DVFMW_VP8_SUPPORT
@ -DVFMW_DIVX3_SUPPORT -DVFMW_H263_SUPPORT -DVFMW_JPEG_SUPPORT
@ -DVFMW_RAW_SUPPORT -DVFMW_USER_SUPPORT -DCFG_MAX_CHAN_NUM=16
@ -DCFG_MAX_CHAN_NUM=16 -DVFMW_DPRINT_SUPPORT -DVFMW_SCD_LOWDLY_SUPPORT
@ -DVFMW_AVSPLUS_SUPPORT -DVFMW_MODULE_LOWDLY_SUPPORT
@ -DVFMW_SYSTEM_REG_DISABLE -DHI_VDEC_SVDEC_BUILTIN -DKBUILD_STR(s)=#s
@ -DKBUILD_BASENAME=KBUILD_STR(mvc) -DKBUILD_MODNAME=KBUILD_STR(hi_vfmw)
@ -isystem
@ /opt/hisi-linux/x86-arm/arm-hisiv200-linux/bin/../lib/gcc/arm-hisiv200-linux-gnueabi/4.4.1/include
@ -include
@ /release/HiSTBLinuxV100R002C01SPC020/source/kernel/linux-3.10.y/include/linux/kconfig.h
@ -MD drivers/msp/vfmw/vfmw_v4.0/firmware/common/syntax/.mvc.o.d
@ /release/HiSTBLinuxV100R002C01SPC020/source/kernel/linux-3.10.y/drivers/msp/vfmw/vfmw_v4.0/firmware/common/syntax/mvc.c
@ -mlittle-endian -mapcs -mno-sched-prolog -mabi=aapcs-linux
@ -mno-thumb-interwork -marm -march=armv7-a -msoft-float -auxbase-strip
@ drivers/msp/vfmw/vfmw_v4.0/firmware/common/syntax/mvc.o -O2 -Wall -Wundef
@ -Wstrict-prototypes -Wno-trigraphs -Werror-implicit-function-declaration
@ -Wno-format-security -Wframe-larger-than=1024
@ -Wdeclaration-after-statement -Wno-pointer-sign -p -fno-strict-aliasing
@ -fno-common -fno-delete-null-pointer-checks -fno-dwarf2-cfi-asm
@ -fstack-protector -funwind-tables -fno-omit-frame-pointer
@ -fno-optimize-sibling-calls -fno-strict-overflow -fconserve-stack
@ -fno-pic -fverbose-asm
@ options enabled:  -falign-loops -fargument-alias -fauto-inc-dec
@ -fbranch-count-reg -fcaller-saves -fcprop-registers -fcrossjumping
@ -fcse-follow-jumps -fdefer-pop -fearly-inlining
@ -feliminate-unused-debug-types -fexpensive-optimizations
@ -fforward-propagate -ffunction-cse -fgcse -fgcse-lm
@ -fguess-branch-probability -fident -fif-conversion -fif-conversion2
@ -findirect-inlining -finline -finline-functions-called-once
@ -finline-small-functions -fipa-cp -fipa-pure-const -fipa-reference
@ -fira-share-save-slots -fira-share-spill-slots -fivopts
@ -fkeep-static-consts -fleading-underscore -fmath-errno -fmerge-constants
@ -fmerge-debug-strings -fmove-loop-invariants -foptimize-register-move
@ -fpeephole -fpeephole2 -fprofile -fpromote-loop-indices
@ -freg-struct-return -fregmove -frename-registers -freorder-blocks
@ -freorder-functions -frerun-cse-after-loop -fsched-interblock
@ -fsched-spec -fsched-stalled-insns-dep -fschedule-insns -fschedule-insns2
@ -fsection-anchors -fsigned-zeros -fsplit-ivs-in-unroller
@ -fsplit-wide-types -fstack-protector -fthread-jumps -ftoplevel-reorder
@ -ftrapping-math -ftree-builtin-call-dce -ftree-ccp -ftree-ch
@ -ftree-copy-prop -ftree-copyrename -ftree-cselim -ftree-dce
@ -ftree-dominator-opts -ftree-dse -ftree-fre -ftree-loop-im
@ -ftree-loop-ivcanon -ftree-loop-optimize -ftree-parallelize-loops=
@ -ftree-pre -ftree-reassoc -ftree-scev-cprop -ftree-sink -ftree-sra
@ -ftree-switch-conversion -ftree-ter -ftree-vect-loop-version -ftree-vrp
@ -funit-at-a-time -funroll-loops -funwind-tables -fverbose-asm -fweb
@ -fzero-initialized-in-bss -mapcs-frame -mglibc -mlittle-endian

@ Compiler executable checksum: fa59e0bd179ef45b3a3c3e6f3383fdac

	.text
	.align	2
	.global	MVC_FrameStoreRefFlg
	.type	MVC_FrameStoreRefFlg, %function
MVC_FrameStoreRefFlg:
	.fnstart
.LFB1525:
	@ args = 0, pretend = 0, frame = 0
	@ frame_needed = 1, uses_anonymous_args = 0
	.movsp ip
	mov	ip, sp	@,
	stmfd	sp!, {fp, ip, lr, pc}	@,
	.pad #4
	.save {fp, ip, lr}
	.setfp fp, ip, #-4
	sub	fp, ip, #4	@,,
	push	{lr}
	bl	__gnu_mcount_nc
	ldrb	r0, [r0, #2]	@ zero_extendqisi2	@ <variable>.is_reference, <variable>.is_reference
	subs	r0, r0, #0	@, <variable>.is_reference,
	movne	r0, #1	@
	ldmfd	sp, {fp, sp, pc}	@
	.fnend
	.size	MVC_FrameStoreRefFlg, .-MVC_FrameStoreRefFlg
	.align	2
	.global	MVC_NonLongTermRefFlg
	.type	MVC_NonLongTermRefFlg, %function
MVC_NonLongTermRefFlg:
	.fnstart
.LFB1526:
	@ args = 0, pretend = 0, frame = 0
	@ frame_needed = 1, uses_anonymous_args = 0
	.movsp ip
	mov	ip, sp	@,
	stmfd	sp!, {fp, ip, lr, pc}	@,
	.pad #4
	.save {fp, ip, lr}
	.setfp fp, ip, #-4
	sub	fp, ip, #4	@,,
	push	{lr}
	bl	__gnu_mcount_nc
	ldrb	r3, [r0, #2]	@ zero_extendqisi2	@ D.36776, <variable>.is_reference
	cmp	r3, #3	@ D.36776,
	beq	.L12	@,
	tst	r3, #1	@ D.36776,
	bne	.L6	@,
.L7:
	ands	r3, r3, #2	@ tmp141, D.36776,
	moveq	r0, r3	@ D.36782, tmp141
	ldmeqfd	sp, {fp, sp, pc}	@
	ldrb	r0, [r0, #545]	@ zero_extendqisi2	@ <variable>.bottom_field.is_long_term, <variable>.bottom_field.is_long_term
	rsbs	r0, r0, #1	@ D.36782, <variable>.bottom_field.is_long_term
	movcc	r0, #0	@ D.36782
	ldmfd	sp, {fp, sp, pc}	@
.L12:
	ldrb	r2, [r0, #465]	@ zero_extendqisi2	@ <variable>.frame.is_long_term, <variable>.frame.is_long_term
	cmp	r2, #0	@ <variable>.frame.is_long_term,
	beq	.L5	@,
.L6:
	ldrb	r1, [r0, #505]	@ zero_extendqisi2	@ <variable>.top_field.is_long_term, <variable>.top_field.is_long_term
	cmp	r1, #0	@ <variable>.top_field.is_long_term,
	bne	.L7	@,
.L5:
	mov	r0, #1	@ D.36782,
	ldmfd	sp, {fp, sp, pc}	@
	.fnend
	.size	MVC_NonLongTermRefFlg, .-MVC_NonLongTermRefFlg
	.align	2
	.global	MVC_ShortTermRefFlg
	.type	MVC_ShortTermRefFlg, %function
MVC_ShortTermRefFlg:
	.fnstart
.LFB1527:
	@ args = 0, pretend = 0, frame = 0
	@ frame_needed = 1, uses_anonymous_args = 0
	.movsp ip
	mov	ip, sp	@,
	stmfd	sp!, {fp, ip, lr, pc}	@,
	.pad #4
	.save {fp, ip, lr}
	.setfp fp, ip, #-4
	sub	fp, ip, #4	@,,
	push	{lr}
	bl	__gnu_mcount_nc
	ldrb	r3, [r0, #2]	@ zero_extendqisi2	@ D.36800, <variable>.is_reference
	cmp	r3, #3	@ D.36800,
	beq	.L21	@,
	tst	r3, #1	@ D.36800,
	bne	.L16	@,
.L17:
	ands	r3, r3, #2	@ tmp145, D.36800,
	moveq	r0, r3	@ D.36807, tmp145
	ldmeqfd	sp, {fp, sp, pc}	@
	ldr	r1, [r0, #544]	@ tmp148,
	bic	r2, r1, #-16777216	@ tmp146, tmp148,
	bic	r0, r2, #255	@ tmp146, tmp146,
	cmp	r0, #65536	@ tmp146,
	movne	r0, #0	@, D.36807
	moveq	r0, #1	@, D.36807
	ldmfd	sp, {fp, sp, pc}	@
.L21:
	ldr	ip, [r0, #464]	@ tmp140,
	bic	r1, ip, #-16777216	@ tmp138, tmp140,
	bic	r2, r1, #255	@ tmp138, tmp138,
	cmp	r2, #65536	@ tmp138,
	beq	.L15	@,
.L16:
	ldr	ip, [r0, #504]	@ tmp144,
	bic	r1, ip, #-16777216	@ tmp142, tmp144,
	bic	r2, r1, #255	@ tmp142, tmp142,
	cmp	r2, #65536	@ tmp142,
	bne	.L17	@,
.L15:
	mov	r0, #1	@ D.36807,
	ldmfd	sp, {fp, sp, pc}	@
	.fnend
	.size	MVC_ShortTermRefFlg, .-MVC_ShortTermRefFlg
	.align	2
	.global	MVC_LongTermRefFlg
	.type	MVC_LongTermRefFlg, %function
MVC_LongTermRefFlg:
	.fnstart
.LFB1528:
	@ args = 0, pretend = 0, frame = 0
	@ frame_needed = 1, uses_anonymous_args = 0
	.movsp ip
	mov	ip, sp	@,
	stmfd	sp!, {fp, ip, lr, pc}	@,
	.pad #4
	.save {fp, ip, lr}
	.setfp fp, ip, #-4
	sub	fp, ip, #4	@,,
	push	{lr}
	bl	__gnu_mcount_nc
	ldrb	r3, [r0, #2]	@ zero_extendqisi2	@ D.36827, <variable>.is_reference
	cmp	r3, #3	@ D.36827,
	beq	.L30	@,
	tst	r3, #1	@ D.36827,
	bne	.L25	@,
.L26:
	ands	r3, r3, #2	@ tmp145, D.36827,
	moveq	r0, r3	@ D.36834, tmp145
	ldmeqfd	sp, {fp, sp, pc}	@
	ldr	r1, [r0, #544]	@ tmp148,
	bic	r2, r1, #-16777216	@ tmp146, tmp148,
	bic	r0, r2, #255	@ tmp146, tmp146,
	cmp	r0, #256	@ tmp146,
	movne	r0, #0	@, D.36834
	moveq	r0, #1	@, D.36834
	ldmfd	sp, {fp, sp, pc}	@
.L30:
	ldr	ip, [r0, #464]	@ tmp140,
	bic	r1, ip, #-16777216	@ tmp138, tmp140,
	bic	r2, r1, #255	@ tmp138, tmp138,
	cmp	r2, #256	@ tmp138,
	beq	.L24	@,
.L25:
	ldr	ip, [r0, #504]	@ tmp144,
	bic	r1, ip, #-16777216	@ tmp142, tmp144,
	bic	r2, r1, #255	@ tmp142, tmp142,
	cmp	r2, #256	@ tmp142,
	bne	.L26	@,
.L24:
	mov	r0, #1	@ D.36834,
	ldmfd	sp, {fp, sp, pc}	@
	.fnend
	.size	MVC_LongTermRefFlg, .-MVC_LongTermRefFlg
	.align	2
	.global	MVC_UpdateLTReflist
	.type	MVC_UpdateLTReflist, %function
MVC_UpdateLTReflist:
	.fnstart
.LFB1529:
	@ args = 0, pretend = 0, frame = 0
	@ frame_needed = 1, uses_anonymous_args = 0
	.movsp ip
	mov	ip, sp	@,
	stmfd	sp!, {r3, r4, r5, r6, r7, r8, r9, sl, fp, ip, lr, pc}	@,
	.pad #4
	.save {r3, r4, r5, r6, r7, r8, r9, sl, fp, ip, lr}
	.setfp fp, ip, #-4
	sub	fp, ip, #4	@,,
	push	{lr}
	bl	__gnu_mcount_nc
	movw	r8, #:lower16:11168612	@ tmp170,
	movt	r8, #:upper16:11168612	@ tmp170,
	mov	r7, r0	@ pMvcCtx, pMvcCtx
	ldr	sl, [r0, r8]	@ <variable>.DPB.size, <variable>.DPB.size
	cmp	sl, #0	@ <variable>.DPB.size,
	beq	.L33	@,
	movw	r5, #:lower16:11168420	@ ivtmp.1055,
	mov	sl, #0	@ j,
	movt	r5, #:upper16:11168420	@ ivtmp.1055,
	movw	r9, #:lower16:11196732	@ tmp193,
	add	r5, r0, r5	@ ivtmp.1055, pMvcCtx, ivtmp.1055
	movt	r9, #:upper16:11196732	@ tmp193,
	mov	r6, sl	@ i, j
	b	.L35	@
.L34:
	ldr	r2, [r7, r8]	@ <variable>.DPB.size, <variable>.DPB.size
	cmp	r2, r6	@ <variable>.DPB.size, i
	bls	.L33	@,
.L35:
	ldr	r4, [r5, #0]	@ D.36863, <variable>.DPB.fs
	add	r6, r6, #1	@ i, i,
	add	r5, r5, #4	@ ivtmp.1055, ivtmp.1055,
	cmp	r4, #0	@ D.36863,
	mov	r0, r4	@, D.36863
	beq	.L34	@,
	bl	MVC_LongTermRefFlg	@
	cmp	r0, #0	@,
	beq	.L34	@,
	ldr	r2, [r4, #644]	@ <variable>.view_id, <variable>.view_id
	ldr	r3, [r7, r9]	@ <variable>.CurrPic.view_id, <variable>.CurrPic.view_id
	cmp	r2, r3	@ <variable>.view_id, <variable>.CurrPic.view_id
	bne	.L34	@,
	movw	ip, #:lower16:2792136	@ tmp176,
	movt	ip, #:upper16:2792136	@ tmp176,
	add	r1, sl, ip	@ tmp176, j, tmp176
	ldr	r2, [r7, r8]	@ <variable>.DPB.size, <variable>.DPB.size
	add	sl, sl, #1	@ j, j,
	add	r0, r7, r1, asl #2	@, tmp180, pMvcCtx, tmp176,
	cmp	r2, r6	@ <variable>.DPB.size, i
	str	r4, [r0, #4]	@ D.36863, <variable>.DPB.fs_ltref
	bhi	.L35	@,
.L33:
	movw	r1, #:lower16:11168612	@ tmp185,
	movt	r1, #:upper16:11168612	@ tmp185,
	movw	r3, #:lower16:11168624	@ tmp184,
	movt	r3, #:upper16:11168624	@ tmp184,
	ldr	r0, [r7, r1]	@ temp.1058, <variable>.DPB.size
	str	sl, [r7, r3]	@ j, <variable>.DPB.ltref_frames_in_buffer
	cmp	r0, sl	@ temp.1058, j
	ldmlsfd	sp, {r3, r4, r5, r6, r7, r8, r9, sl, fp, sp, pc}	@
	movw	r2, #:lower16:2792136	@ tmp186,
	movt	r2, #:upper16:2792136	@ tmp186,
	add	r3, sl, r2	@ tmp186, j, tmp186
	add	r2, sl, #1	@ j, j,
	cmp	r0, r2	@ temp.1058, j
	mvn	ip, sl	@ tmp196, j
	add	r7, r7, r3, asl #2	@, tmp189, pMvcCtx, tmp186,
	add	sl, ip, r0	@ tmp195, tmp196, temp.1058
	add	r7, r7, #4	@ ivtmp.1050, tmp189,
	mov	r1, #0	@ tmp192,
	and	sl, sl, #1	@ tmp197, tmp195,
	str	r1, [r7], #4	@ tmp192, <variable>.DPB.fs_ltref
	ldmlsfd	sp, {r3, r4, r5, r6, r7, r8, r9, sl, fp, sp, pc}	@
	cmp	sl, #0	@ tmp197,
	beq	.L37	@,
	add	r2, r2, #1	@ j, j,
	str	r1, [r7], #4	@ tmp192, <variable>.DPB.fs_ltref
	cmp	r0, r2	@ temp.1058, j
	ldmlsfd	sp, {r3, r4, r5, r6, r7, r8, r9, sl, fp, sp, pc}	@
.L37:
	add	r2, r2, #2	@ j, j,
	mov	ip, r7	@ tmp199, ivtmp.1050
	cmp	r0, r2	@ temp.1058, j
	str	r1, [ip], #4	@ tmp192, <variable>.DPB.fs_ltref
	str	r1, [r7, #4]	@ tmp192, <variable>.DPB.fs_ltref
	add	r7, ip, #4	@ ivtmp.1050, tmp199,
	bhi	.L37	@,
	ldmfd	sp, {r3, r4, r5, r6, r7, r8, r9, sl, fp, sp, pc}	@
	.fnend
	.size	MVC_UpdateLTReflist, .-MVC_UpdateLTReflist
	.align	2
	.global	MVC_UpdateReflist
	.type	MVC_UpdateReflist, %function
MVC_UpdateReflist:
	.fnstart
.LFB1530:
	@ args = 0, pretend = 0, frame = 0
	@ frame_needed = 1, uses_anonymous_args = 0
	.movsp ip
	mov	ip, sp	@,
	stmfd	sp!, {r3, r4, r5, r6, r7, r8, r9, sl, fp, ip, lr, pc}	@,
	.pad #4
	.save {r3, r4, r5, r6, r7, r8, r9, sl, fp, ip, lr}
	.setfp fp, ip, #-4
	sub	fp, ip, #4	@,,
	push	{lr}
	bl	__gnu_mcount_nc
	movw	r8, #:lower16:11168612	@ tmp141,
	movt	r8, #:upper16:11168612	@ tmp141,
	mov	r7, r0	@ pMvcCtx, pMvcCtx
	ldr	sl, [r0, r8]	@ <variable>.DPB.size, <variable>.DPB.size
	cmp	sl, #0	@ <variable>.DPB.size,
	beq	.L48	@,
	movw	r5, #:lower16:11168420	@ ivtmp.1093,
	mov	sl, #0	@ j,
	movt	r5, #:upper16:11168420	@ ivtmp.1093,
	movw	r9, #:lower16:11196732	@ tmp164,
	add	r5, r0, r5	@ ivtmp.1093, pMvcCtx, ivtmp.1093
	movt	r9, #:upper16:11196732	@ tmp164,
	mov	r6, sl	@ i, j
	b	.L50	@
.L49:
	ldr	r2, [r7, r8]	@ <variable>.DPB.size, <variable>.DPB.size
	cmp	r2, r6	@ <variable>.DPB.size, i
	bls	.L48	@,
.L50:
	ldr	r4, [r5, #0]	@ D.36887, <variable>.DPB.fs
	add	r6, r6, #1	@ i, i,
	add	r5, r5, #4	@ ivtmp.1093, ivtmp.1093,
	cmp	r4, #0	@ D.36887,
	mov	r0, r4	@, D.36887
	beq	.L49	@,
	bl	MVC_ShortTermRefFlg	@
	cmp	r0, #0	@,
	beq	.L49	@,
	ldr	r2, [r4, #644]	@ <variable>.view_id, <variable>.view_id
	ldr	r3, [r7, r9]	@ <variable>.CurrPic.view_id, <variable>.CurrPic.view_id
	cmp	r2, r3	@ <variable>.view_id, <variable>.CurrPic.view_id
	bne	.L49	@,
	movw	ip, #:lower16:2792120	@ tmp147,
	movt	ip, #:upper16:2792120	@ tmp147,
	add	r1, sl, ip	@ tmp147, j, tmp147
	ldr	r2, [r7, r8]	@ <variable>.DPB.size, <variable>.DPB.size
	add	sl, sl, #1	@ j, j,
	add	r0, r7, r1, asl #2	@, tmp151, pMvcCtx, tmp147,
	cmp	r2, r6	@ <variable>.DPB.size, i
	str	r4, [r0, #4]	@ D.36887, <variable>.DPB.fs_ref
	bhi	.L50	@,
.L48:
	movw	r1, #:lower16:11168612	@ tmp156,
	movt	r1, #:upper16:11168612	@ tmp156,
	movw	r3, #:lower16:11168620	@ tmp155,
	movt	r3, #:upper16:11168620	@ tmp155,
	ldr	r0, [r7, r1]	@ temp.1096, <variable>.DPB.size
	str	sl, [r7, r3]	@ j, <variable>.DPB.ref_frames_in_buffer
	cmp	r0, sl	@ temp.1096, j
	ldmlsfd	sp, {r3, r4, r5, r6, r7, r8, r9, sl, fp, sp, pc}	@
	movw	r2, #:lower16:2792120	@ tmp157,
	movt	r2, #:upper16:2792120	@ tmp157,
	add	r3, sl, r2	@ tmp157, j, tmp157
	add	r2, sl, #1	@ j, j,
	cmp	r0, r2	@ temp.1096, j
	mvn	ip, sl	@ tmp167, j
	add	r7, r7, r3, asl #2	@, tmp160, pMvcCtx, tmp157,
	add	sl, ip, r0	@ tmp166, tmp167, temp.1096
	add	r7, r7, #4	@ ivtmp.1089, tmp160,
	mov	r1, #0	@ tmp163,
	and	sl, sl, #1	@ tmp168, tmp166,
	str	r1, [r7], #4	@ tmp163, <variable>.DPB.fs_ref
	ldmlsfd	sp, {r3, r4, r5, r6, r7, r8, r9, sl, fp, sp, pc}	@
	cmp	sl, #0	@ tmp168,
	beq	.L52	@,
	add	r2, r2, #1	@ j, j,
	str	r1, [r7], #4	@ tmp163, <variable>.DPB.fs_ref
	cmp	r0, r2	@ temp.1096, j
	ldmlsfd	sp, {r3, r4, r5, r6, r7, r8, r9, sl, fp, sp, pc}	@
.L52:
	add	r2, r2, #2	@ j, j,
	mov	ip, r7	@ tmp170, ivtmp.1089
	cmp	r0, r2	@ temp.1096, j
	str	r1, [ip], #4	@ tmp163, <variable>.DPB.fs_ref
	str	r1, [r7, #4]	@ tmp163, <variable>.DPB.fs_ref
	add	r7, ip, #4	@ ivtmp.1089, tmp170,
	bhi	.L52	@,
	ldmfd	sp, {r3, r4, r5, r6, r7, r8, r9, sl, fp, sp, pc}	@
	.fnend
	.size	MVC_UpdateReflist, .-MVC_UpdateReflist
	.align	2
	.global	MVC_GetPicNumX
	.type	MVC_GetPicNumX, %function
MVC_GetPicNumX:
	.fnstart
.LFB1531:
	@ args = 0, pretend = 0, frame = 0
	@ frame_needed = 1, uses_anonymous_args = 0
	.movsp ip
	mov	ip, sp	@,
	stmfd	sp!, {fp, ip, lr, pc}	@,
	.pad #4
	.save {fp, ip, lr}
	.setfp fp, ip, #-4
	sub	fp, ip, #4	@,,
	push	{lr}
	bl	__gnu_mcount_nc
	ldrb	r3, [r0, #3]	@ zero_extendqisi2	@ <variable>.structure, <variable>.structure
	ldr	r0, [r0, #480]	@ CurrPicNum, <variable>.frame_num
	mvn	r1, r1	@ tmp141, difference_of_pic_nums_minus1
	cmp	r3, #0	@ <variable>.structure,
	movne	r0, r0, asl #1	@ tmp138, <variable>.frame_num,
	addne	r0, r0, #1	@ CurrPicNum, tmp138,
	add	r0, r0, r1	@, CurrPicNum, tmp141
	ldmfd	sp, {fp, sp, pc}	@
	.fnend
	.size	MVC_GetPicNumX, .-MVC_GetPicNumX
	.align	2
	.global	MVC_MarkPicLTRef
	.type	MVC_MarkPicLTRef, %function
MVC_MarkPicLTRef:
	.fnstart
.LFB1537:
	@ args = 0, pretend = 0, frame = 8
	@ frame_needed = 1, uses_anonymous_args = 0
	.movsp ip
	mov	ip, sp	@,
	stmfd	sp!, {r4, r5, r6, r7, r8, r9, sl, fp, ip, lr, pc}	@,
	.pad #4
	.save {r4, r5, r6, r7, r8, r9, sl, fp, ip, lr}
	.setfp fp, ip, #-4
	sub	fp, ip, #4	@,,
	.pad #12
	sub	sp, sp, #12	@,,
	push	{lr}
	bl	__gnu_mcount_nc
	ldrb	r3, [r3, #3]	@ zero_extendqisi2	@ D.37163, <variable>.structure
	mov	r9, r1	@ long_term_frame_idx, long_term_frame_idx
	cmp	r3, #0	@ D.37163,
	beq	.L66	@,
	movw	r1, #:lower16:11168620	@ tmp155,
	movt	r1, #:upper16:11168620	@ tmp155,
	ldr	r8, [r0, r1]	@ D.37183, <variable>.DPB.ref_frames_in_buffer
	cmp	r8, #0	@ D.37183,
	beq	.L76	@,
	movw	r6, #:lower16:11168484	@ ivtmp.1158,
	movt	r6, #:upper16:11168484	@ ivtmp.1158,
	add	r6, r0, r6	@ ivtmp.1158, pMvcCtx, ivtmp.1158
	sub	r7, r8, #1	@ tmp359, D.37183,
	and	r7, r7, #1	@, tmp359,
	str	r7, [fp, #-48]	@, %sfp
	ldr	r1, [r6, #0]	@ temp.1168, <variable>.DPB.fs_ref
	movw	sl, #:lower16:11196732	@ tmp353,
	mov	ip, #0	@ i.1178,
	movt	sl, #:upper16:11196732	@ tmp353,
	ldrb	r4, [r1, #2]	@ zero_extendqisi2	@ D.37185, <variable>.is_reference
	tst	r4, #1	@ D.37185,
	beq	.L86	@,
	ldr	r5, [r1, #504]	@ tmp402,
	bic	r5, r5, #-16777216	@ tmp403, tmp402,
	bic	r5, r5, #255	@ tmp403, tmp403,
	cmp	r5, #65536	@ tmp403,
	beq	.L115	@,
.L86:
	tst	r4, #2	@ D.37185,
	beq	.L87	@,
	ldr	r4, [r1, #544]	@ tmp394,
	bic	r4, r4, #-16777216	@ tmp395, tmp394,
	bic	r4, r4, #255	@ tmp395, tmp395,
	cmp	r4, #65536	@ tmp395,
	beq	.L116	@,
.L87:
	mov	ip, #1	@ i.1178,
	cmp	r8, ip	@ D.37183, i.1178
	add	r6, r6, #4	@ ivtmp.1158, ivtmp.1158,
	bls	.L76	@,
	ldr	r1, [fp, #-48]	@, %sfp
	cmp	r1, #0	@,
	beq	.L110	@,
	ldr	r1, [r6, #0]	@ temp.1168, <variable>.DPB.fs_ref
	ldrb	r4, [r1, #2]	@ zero_extendqisi2	@ D.37185, <variable>.is_reference
	tst	r4, #1	@ D.37185,
	beq	.L89	@,
	ldr	r5, [r1, #504]	@ tmp421,
	bic	r5, r5, #-16777216	@ tmp422, tmp421,
	bic	r5, r5, #255	@ tmp422, tmp422,
	cmp	r5, #65536	@ tmp422,
	beq	.L117	@,
.L89:
	tst	r4, #2	@ D.37185,
	beq	.L90	@,
	ldr	r4, [r1, #544]	@ tmp413,
	bic	r4, r4, #-16777216	@ tmp414, tmp413,
	bic	r4, r4, #255	@ tmp414, tmp414,
	cmp	r4, #65536	@ tmp414,
	beq	.L118	@,
.L90:
	add	ip, ip, #1	@ i.1178, i.1178,
	add	r6, r6, #4	@ ivtmp.1158, ivtmp.1158,
	cmp	r8, ip	@ D.37183, i.1178
	bls	.L76	@,
.L110:
	str	r3, [fp, #-48]	@ D.37163, %sfp
	b	.L75	@
.L71:
	tst	r3, #2	@ D.37185,
	beq	.L73	@,
	ldr	r3, [r1, #544]	@ tmp293,
	bic	r3, r3, #-16777216	@ tmp291, tmp293,
	bic	r3, r3, #255	@ tmp291, tmp291,
	cmp	r3, #65536	@ tmp291,
	beq	.L119	@,
.L73:
	ldr	r1, [r6, #4]	@ temp.1168, <variable>.DPB.fs_ref
	add	ip, ip, #1	@ i.1178, i.1178,
	add	r6, r6, #4	@ tmp363, ivtmp.1158,
	mov	r5, ip	@ tmp362, i.1178
	ldrb	r3, [r1, #2]	@ zero_extendqisi2	@ D.37185, <variable>.is_reference
	tst	r3, #1	@ D.37185,
	beq	.L93	@,
	ldr	r4, [r1, #504]	@ tmp438,
	bic	r4, r4, #-16777216	@ tmp439, tmp438,
	bic	r4, r4, #255	@ tmp439, tmp439,
	cmp	r4, #65536	@ tmp439,
	beq	.L120	@,
.L93:
	tst	r3, #2	@ D.37185,
	beq	.L94	@,
	ldr	r3, [r1, #544]	@ tmp430,
	bic	r3, r3, #-16777216	@ tmp431, tmp430,
	bic	r3, r3, #255	@ tmp431, tmp431,
	cmp	r3, #65536	@ tmp431,
	beq	.L121	@,
.L94:
	add	ip, r5, #1	@ i.1178, tmp362,
	add	r6, r6, #4	@ ivtmp.1158, tmp363,
	cmp	r8, ip	@ D.37183, i.1178
	bls	.L76	@,
.L75:
	ldr	r1, [r6, #0]	@ temp.1168, <variable>.DPB.fs_ref
	ldrb	r3, [r1, #2]	@ zero_extendqisi2	@ D.37185, <variable>.is_reference
	tst	r3, #1	@ D.37185,
	beq	.L71	@,
	ldr	r4, [r1, #504]	@ tmp231,
	bic	r4, r4, #-16777216	@ tmp229, tmp231,
	bic	r4, r4, #255	@ tmp229, tmp229,
	cmp	r4, #65536	@ tmp229,
	bne	.L71	@,
	ldr	r4, [r1, #516]	@ <variable>.top_field.pic_num, <variable>.top_field.pic_num
	cmp	r4, r2	@ <variable>.top_field.pic_num, picNumX
	bne	.L71	@,
	ldr	r5, [r1, #644]	@ <variable>.view_id, <variable>.view_id
	ldr	r4, [r0, sl]	@ <variable>.CurrPic.view_id, <variable>.CurrPic.view_id
	cmp	r5, r4	@ <variable>.view_id, <variable>.CurrPic.view_id
	bne	.L71	@,
	ldrb	r3, [r1, #545]	@ zero_extendqisi2	@ <variable>.bottom_field.is_long_term, <variable>.bottom_field.is_long_term
	cmp	r3, #1	@ <variable>.bottom_field.is_long_term,
	bne	.L113	@,
	ldr	r3, [r1, #596]	@ <variable>.long_term_frame_idx, <variable>.long_term_frame_idx
	cmp	r3, r9	@ <variable>.long_term_frame_idx, long_term_frame_idx
	bne	.L73	@,
.L113:
	ldr	r3, [fp, #-48]	@ D.37163, %sfp
.L72:
	movw	r2, #:lower16:2792120	@ tmp238,
	movt	r2, #:upper16:2792120	@ tmp238,
	add	r2, ip, r2	@ tmp238, i.1178, tmp238
	str	r9, [r1, #596]	@ long_term_frame_idx, <variable>.long_term_frame_idx
	cmp	r3, #1	@ D.37163,
	movne	ip, #0	@, tmp247
	moveq	ip, #1	@, tmp247
	add	r2, r0, r2, asl #2	@, tmp243, pMvcCtx, tmp238,
	add	r9, ip, r9, asl #1	@, tmp248, tmp247, long_term_frame_idx,
	mov	r0, #1	@ tmp256,
	ldr	r1, [r2, #4]	@ tmp240, <variable>.DPB.fs_ref
	str	r9, [r1, #512]	@ tmp248, <variable>.top_field.long_term_pic_num
	mov	r1, #0	@ tmp265,
	ldr	r3, [r2, #4]	@ tmp251, <variable>.DPB.fs_ref
	strb	r0, [r3, #505]	@ tmp256, <variable>.top_field.is_long_term
	ldr	ip, [r2, #4]	@ tmp260, <variable>.DPB.fs_ref
	strb	r1, [ip, #506]	@ tmp265, <variable>.top_field.is_short_term
	ldr	r3, [r2, #4]	@ temp.1175, <variable>.DPB.fs_ref
	ldrb	r0, [r3, #464]	@ zero_extendqisi2	@ D.37208, <variable>.frame.structure
	cmp	r0, #3	@ D.37208,
	cmpne	r0, #0	@, D.37208,
	bne	.L76	@,
	ldrb	r0, [r3, #505]	@ zero_extendqisi2	@ D.37214, <variable>.top_field.is_long_term
	ldrb	r1, [r3, #545]	@ zero_extendqisi2	@ <variable>.bottom_field.is_long_term, <variable>.bottom_field.is_long_term
	cmp	r1, r0	@ <variable>.bottom_field.is_long_term, D.37214
	streqb	r1, [r3, #465]	@ <variable>.bottom_field.is_long_term, <variable>.frame.is_long_term
	ldreq	r3, [r2, #4]	@ temp.1177, <variable>.DPB.fs_ref
	ldreqb	r1, [r3, #506]	@ zero_extendqisi2	@ <variable>.top_field.is_short_term, <variable>.top_field.is_short_term
	streqb	r1, [r3, #466]	@ <variable>.top_field.is_short_term, <variable>.frame.is_short_term
.L76:
	sub	sp, fp, #40
	ldmfd	sp, {r4, r5, r6, r7, r8, r9, sl, fp, sp, pc}
.L66:
	movw	ip, #:lower16:11168620	@ tmp156,
	movt	ip, #:upper16:11168620	@ tmp156,
	ldr	r6, [r0, ip]	@ temp.1179, <variable>.DPB.ref_frames_in_buffer
	cmp	r6, #0	@ temp.1179,
	beq	.L76	@,
	movw	r5, #:lower16:11168484	@ ivtmp.1153,
	movt	r5, #:upper16:11168484	@ ivtmp.1153,
	add	ip, r0, r5	@ ivtmp.1153, pMvcCtx, ivtmp.1153
	sub	r4, r6, #1	@ tmp354, temp.1179,
	and	r5, r4, #1	@ tmp356, tmp354,
	movw	r7, #:lower16:11196732	@ tmp352,
	ldr	r1, [ip, #0]	@ D.37167, <variable>.DPB.fs_ref
	movt	r7, #:upper16:11196732	@ tmp352,
	ldrb	r4, [r1, #2]	@ zero_extendqisi2	@ <variable>.is_reference, <variable>.is_reference
	cmp	r4, #3	@ <variable>.is_reference,
	beq	.L122	@,
.L79:
	mov	r3, #1	@ i,
	cmp	r3, r6	@ i, temp.1179
	add	ip, ip, #4	@ ivtmp.1153, ivtmp.1153,
	bcs	.L76	@,
	cmp	r5, #0	@ tmp356,
	beq	.L70	@,
	ldr	r1, [ip, #0]	@ D.37167, <variable>.DPB.fs_ref
	ldrb	r4, [r1, #2]	@ zero_extendqisi2	@ <variable>.is_reference, <variable>.is_reference
	cmp	r4, #3	@ <variable>.is_reference,
	beq	.L123	@,
.L81:
	add	r3, r3, #1	@ i, i,
	add	ip, ip, #4	@ ivtmp.1153, ivtmp.1153,
	cmp	r3, r6	@ i, temp.1179
	bcc	.L70	@,
	b	.L76	@
.L69:
	ldr	r1, [ip, #4]	@ D.37167, <variable>.DPB.fs_ref
	add	r3, r3, #1	@ i, i,
	mov	ip, r3	@ tmp357, i
	ldrb	r5, [r1, #2]	@ zero_extendqisi2	@ <variable>.is_reference, <variable>.is_reference
	cmp	r5, #3	@ <variable>.is_reference,
	beq	.L124	@,
.L84:
	add	r3, ip, #1	@ i, tmp357,
	add	ip, r4, #4	@ ivtmp.1153, tmp358,
	cmp	r3, r6	@ i, temp.1179
	bcs	.L76	@,
.L70:
	ldr	r1, [ip, #0]	@ D.37167, <variable>.DPB.fs_ref
	add	r4, ip, #4	@ tmp358, ivtmp.1153,
	ldrb	r5, [r1, #2]	@ zero_extendqisi2	@ <variable>.is_reference, <variable>.is_reference
	cmp	r5, #3	@ <variable>.is_reference,
	bne	.L69	@,
	ldr	r5, [r1, #464]	@ tmp161,
	bic	r5, r5, #-16777216	@ tmp159, tmp161,
	bic	r5, r5, #255	@ tmp159, tmp159,
	cmp	r5, #65536	@ tmp159,
	bne	.L69	@,
	ldr	r5, [r1, #476]	@ <variable>.frame.pic_num, <variable>.frame.pic_num
	cmp	r5, r2	@ <variable>.frame.pic_num, picNumX
	bne	.L69	@,
	ldr	r8, [r1, #644]	@ <variable>.view_id, <variable>.view_id
	ldr	r5, [r0, r7]	@ <variable>.CurrPic.view_id, <variable>.CurrPic.view_id
	cmp	r8, r5	@ <variable>.view_id, <variable>.CurrPic.view_id
	beq	.L102	@,
	ldr	r1, [ip, #4]	@ D.37167, <variable>.DPB.fs_ref
	add	r3, r3, #1	@ i, i,
	mov	ip, r3	@ tmp357, i
	ldrb	r5, [r1, #2]	@ zero_extendqisi2	@ <variable>.is_reference, <variable>.is_reference
	cmp	r5, #3	@ <variable>.is_reference,
	bne	.L84	@,
.L124:
	ldr	r5, [r1, #464]	@ tmp387,
	bic	r5, r5, #-16777216	@ tmp388, tmp387,
	bic	r5, r5, #255	@ tmp388, tmp388,
	cmp	r5, #65536	@ tmp388,
	bne	.L84	@,
	ldr	r5, [r1, #476]	@ <variable>.frame.pic_num, <variable>.frame.pic_num
	cmp	r5, r2	@ <variable>.frame.pic_num, picNumX
	bne	.L84	@,
	ldr	r8, [r1, #644]	@ <variable>.view_id, <variable>.view_id
	ldr	r5, [r0, r7]	@ <variable>.CurrPic.view_id, <variable>.CurrPic.view_id
	cmp	r8, r5	@ <variable>.view_id, <variable>.CurrPic.view_id
	bne	.L84	@,
	b	.L102	@
.L120:
	ldr	r4, [r1, #516]	@ <variable>.top_field.pic_num, <variable>.top_field.pic_num
	cmp	r4, r2	@ <variable>.top_field.pic_num, picNumX
	bne	.L93	@,
	ldr	r4, [r1, #644]	@, <variable>.view_id
	ldr	r7, [r0, sl]	@, <variable>.CurrPic.view_id
	cmp	r4, r7	@,
	bne	.L93	@,
	ldrb	r3, [r1, #545]	@ zero_extendqisi2	@ <variable>.bottom_field.is_long_term, <variable>.bottom_field.is_long_term
	cmp	r3, #1	@ <variable>.bottom_field.is_long_term,
	bne	.L113	@,
	ldr	r3, [r1, #596]	@ <variable>.long_term_frame_idx, <variable>.long_term_frame_idx
	cmp	r3, r9	@ <variable>.long_term_frame_idx, long_term_frame_idx
	bne	.L94	@,
	b	.L113	@
.L119:
	ldr	r3, [r1, #556]	@ <variable>.bottom_field.pic_num, <variable>.bottom_field.pic_num
	cmp	r3, r2	@ <variable>.bottom_field.pic_num, picNumX
	bne	.L73	@,
	ldr	r4, [r1, #644]	@ <variable>.view_id, <variable>.view_id
	ldr	r3, [r0, sl]	@ <variable>.CurrPic.view_id, <variable>.CurrPic.view_id
	cmp	r4, r3	@ <variable>.view_id, <variable>.CurrPic.view_id
	bne	.L73	@,
	ldrb	r3, [r1, #505]	@ zero_extendqisi2	@ <variable>.top_field.is_long_term, <variable>.top_field.is_long_term
	cmp	r3, #1	@ <variable>.top_field.is_long_term,
	bne	.L111	@,
	ldr	r3, [r1, #596]	@ <variable>.long_term_frame_idx, <variable>.long_term_frame_idx
	cmp	r3, r9	@ <variable>.long_term_frame_idx, long_term_frame_idx
	bne	.L73	@,
.L111:
	ldr	r3, [fp, #-48]	@ D.37163, %sfp
.L74:
	movw	r2, #:lower16:2792120	@ tmp300,
	movt	r2, #:upper16:2792120	@ tmp300,
	add	r2, ip, r2	@ tmp300, i.1178, tmp300
	str	r9, [r1, #596]	@ long_term_frame_idx, <variable>.long_term_frame_idx
	cmp	r3, #2	@ D.37163,
	movne	r1, #0	@, tmp309
	moveq	r1, #1	@, tmp309
	mov	ip, #1	@ tmp318,
	add	r2, r0, r2, asl #2	@, tmp305, pMvcCtx, tmp300,
	add	r9, r1, r9, asl #1	@, tmp310, tmp309, long_term_frame_idx,
	ldr	r0, [r2, #4]	@ tmp302, <variable>.DPB.fs_ref
	str	r9, [r0, #552]	@ tmp310, <variable>.bottom_field.long_term_pic_num
	mov	r0, #0	@ tmp327,
	ldr	r3, [r2, #4]	@ tmp313, <variable>.DPB.fs_ref
	strb	ip, [r3, #545]	@ tmp318, <variable>.bottom_field.is_long_term
	ldr	r1, [r2, #4]	@ tmp322, <variable>.DPB.fs_ref
	strb	r0, [r1, #546]	@ tmp327, <variable>.bottom_field.is_short_term
	ldr	r3, [r2, #4]	@ temp.1188, <variable>.DPB.fs_ref
	ldrb	ip, [r3, #464]	@ zero_extendqisi2	@ D.37236, <variable>.frame.structure
	cmp	ip, #3	@ D.37236,
	cmpne	ip, #0	@, D.37236,
	bne	.L76	@,
	ldrb	ip, [r3, #505]	@ zero_extendqisi2	@ temp.1189, <variable>.top_field.is_long_term
	ldrb	r1, [r3, #545]	@ zero_extendqisi2	@ <variable>.bottom_field.is_long_term, <variable>.bottom_field.is_long_term
	cmp	r1, ip	@ <variable>.bottom_field.is_long_term, temp.1189
	streqb	r1, [r3, #465]	@ <variable>.bottom_field.is_long_term, <variable>.frame.is_long_term
	ldreq	r3, [r2, #4]	@ temp.1191, <variable>.DPB.fs_ref
	ldreqb	r0, [r3, #546]	@ zero_extendqisi2	@ <variable>.bottom_field.is_short_term, <variable>.bottom_field.is_short_term
	streqb	r0, [r3, #466]	@ <variable>.bottom_field.is_short_term, <variable>.frame.is_short_term
	b	.L76	@
.L121:
	ldr	r3, [r1, #556]	@ <variable>.bottom_field.pic_num, <variable>.bottom_field.pic_num
	cmp	r3, r2	@ <variable>.bottom_field.pic_num, picNumX
	bne	.L94	@,
	ldr	r4, [r1, #644]	@ <variable>.view_id, <variable>.view_id
	ldr	r3, [r0, sl]	@ <variable>.CurrPic.view_id, <variable>.CurrPic.view_id
	cmp	r4, r3	@ <variable>.view_id, <variable>.CurrPic.view_id
	bne	.L94	@,
	ldrb	r3, [r1, #505]	@ zero_extendqisi2	@ <variable>.top_field.is_long_term, <variable>.top_field.is_long_term
	cmp	r3, #1	@ <variable>.top_field.is_long_term,
	bne	.L111	@,
	ldr	r3, [r1, #596]	@ <variable>.long_term_frame_idx, <variable>.long_term_frame_idx
	cmp	r3, r9	@ <variable>.long_term_frame_idx, long_term_frame_idx
	bne	.L94	@,
	b	.L111	@
.L115:
	ldr	r5, [r1, #516]	@ <variable>.top_field.pic_num, <variable>.top_field.pic_num
	cmp	r5, r2	@ <variable>.top_field.pic_num, picNumX
	bne	.L86	@,
	ldr	r5, [r1, #644]	@, <variable>.view_id
	ldr	r7, [r0, sl]	@, <variable>.CurrPic.view_id
	cmp	r5, r7	@,
	bne	.L86	@,
	ldrb	r4, [r1, #545]	@ zero_extendqisi2	@ <variable>.bottom_field.is_long_term, <variable>.bottom_field.is_long_term
	cmp	r4, #1	@ <variable>.bottom_field.is_long_term,
	bne	.L72	@,
	ldr	r4, [r1, #596]	@ <variable>.long_term_frame_idx, <variable>.long_term_frame_idx
	cmp	r4, r9	@ <variable>.long_term_frame_idx, long_term_frame_idx
	bne	.L87	@,
	b	.L72	@
.L116:
	ldr	r4, [r1, #556]	@ <variable>.bottom_field.pic_num, <variable>.bottom_field.pic_num
	cmp	r4, r2	@ <variable>.bottom_field.pic_num, picNumX
	bne	.L87	@,
	ldr	r5, [r1, #644]	@ <variable>.view_id, <variable>.view_id
	ldr	r4, [r0, sl]	@ <variable>.CurrPic.view_id, <variable>.CurrPic.view_id
	cmp	r5, r4	@ <variable>.view_id, <variable>.CurrPic.view_id
	bne	.L87	@,
	ldrb	r4, [r1, #505]	@ zero_extendqisi2	@ <variable>.top_field.is_long_term, <variable>.top_field.is_long_term
	cmp	r4, #1	@ <variable>.top_field.is_long_term,
	bne	.L74	@,
	ldr	r4, [r1, #596]	@ <variable>.long_term_frame_idx, <variable>.long_term_frame_idx
	cmp	r4, r9	@ <variable>.long_term_frame_idx, long_term_frame_idx
	bne	.L87	@,
	b	.L74	@
.L117:
	ldr	r5, [r1, #516]	@ <variable>.top_field.pic_num, <variable>.top_field.pic_num
	cmp	r5, r2	@ <variable>.top_field.pic_num, picNumX
	bne	.L89	@,
	ldr	r7, [r1, #644]	@ <variable>.view_id, <variable>.view_id
	ldr	r5, [r0, sl]	@ <variable>.CurrPic.view_id, <variable>.CurrPic.view_id
	cmp	r7, r5	@ <variable>.view_id, <variable>.CurrPic.view_id
	bne	.L89	@,
	ldrb	r4, [r1, #545]	@ zero_extendqisi2	@ <variable>.bottom_field.is_long_term, <variable>.bottom_field.is_long_term
	cmp	r4, #1	@ <variable>.bottom_field.is_long_term,
	bne	.L72	@,
	ldr	r4, [r1, #596]	@ <variable>.long_term_frame_idx, <variable>.long_term_frame_idx
	cmp	r4, r9	@ <variable>.long_term_frame_idx, long_term_frame_idx
	bne	.L90	@,
	b	.L72	@
.L118:
	ldr	r4, [r1, #556]	@ <variable>.bottom_field.pic_num, <variable>.bottom_field.pic_num
	cmp	r4, r2	@ <variable>.bottom_field.pic_num, picNumX
	bne	.L90	@,
	ldr	r5, [r1, #644]	@ <variable>.view_id, <variable>.view_id
	ldr	r4, [r0, sl]	@ <variable>.CurrPic.view_id, <variable>.CurrPic.view_id
	cmp	r5, r4	@ <variable>.view_id, <variable>.CurrPic.view_id
	bne	.L90	@,
	ldrb	r4, [r1, #505]	@ zero_extendqisi2	@ <variable>.top_field.is_long_term, <variable>.top_field.is_long_term
	cmp	r4, #1	@ <variable>.top_field.is_long_term,
	bne	.L74	@,
	ldr	r4, [r1, #596]	@ <variable>.long_term_frame_idx, <variable>.long_term_frame_idx
	cmp	r4, r9	@ <variable>.long_term_frame_idx, long_term_frame_idx
	bne	.L90	@,
	b	.L74	@
.L122:
	ldr	r4, [r1, #464]	@ tmp374,
	bic	r4, r4, #-16777216	@ tmp375, tmp374,
	bic	r4, r4, #255	@ tmp375, tmp375,
	cmp	r4, #65536	@ tmp375,
	bne	.L79	@,
	ldr	r4, [r1, #476]	@ <variable>.frame.pic_num, <variable>.frame.pic_num
	cmp	r4, r2	@ <variable>.frame.pic_num, picNumX
	bne	.L79	@,
	ldr	r8, [r1, #644]	@ <variable>.view_id, <variable>.view_id
	ldr	r4, [r0, r7]	@ <variable>.CurrPic.view_id, <variable>.CurrPic.view_id
	cmp	r8, r4	@ <variable>.view_id, <variable>.CurrPic.view_id
	bne	.L79	@,
.L102:
	movw	ip, #:lower16:2792120	@ tmp166,
	movt	ip, #:upper16:2792120	@ tmp166,
	add	r2, r3, ip	@ tmp166, i, tmp166
	str	r9, [r1, #596]	@ long_term_frame_idx, <variable>.long_term_frame_idx
	mov	r1, #1	@ tmp180,
	mov	r3, #0	@ tmp207,
	add	r0, r0, r2, asl #2	@, tmp171, pMvcCtx, tmp166,
	ldr	ip, [r0, #4]	@ tmp168, <variable>.DPB.fs_ref
	str	r9, [ip, #472]	@ long_term_frame_idx, <variable>.frame.long_term_pic_num
	ldr	r2, [r0, #4]	@ tmp175, <variable>.DPB.fs_ref
	strb	r1, [r2, #465]	@ tmp180, <variable>.frame.is_long_term
	ldr	ip, [r0, #4]	@ tmp184, <variable>.DPB.fs_ref
	strb	r1, [ip, #505]	@ tmp180, <variable>.top_field.is_long_term
	ldr	r2, [r0, #4]	@ tmp193, <variable>.DPB.fs_ref
	strb	r1, [r2, #545]	@ tmp180, <variable>.bottom_field.is_long_term
	ldr	ip, [r0, #4]	@ tmp202, <variable>.DPB.fs_ref
	strb	r3, [ip, #466]	@ tmp207, <variable>.frame.is_short_term
	ldr	r1, [r0, #4]	@ tmp211, <variable>.DPB.fs_ref
	strb	r3, [r1, #506]	@ tmp207, <variable>.top_field.is_short_term
	ldr	r2, [r0, #4]	@ tmp220, <variable>.DPB.fs_ref
	strb	r3, [r2, #546]	@ tmp207, <variable>.bottom_field.is_short_term
	b	.L76	@
.L123:
	ldr	r4, [r1, #464]	@ tmp381,
	bic	r4, r4, #-16777216	@ tmp382, tmp381,
	bic	r4, r4, #255	@ tmp382, tmp382,
	cmp	r4, #65536	@ tmp382,
	bne	.L81	@,
	ldr	r4, [r1, #476]	@ <variable>.frame.pic_num, <variable>.frame.pic_num
	cmp	r4, r2	@ <variable>.frame.pic_num, picNumX
	bne	.L81	@,
	ldr	r5, [r1, #644]	@ <variable>.view_id, <variable>.view_id
	ldr	r4, [r0, r7]	@ <variable>.CurrPic.view_id, <variable>.CurrPic.view_id
	cmp	r5, r4	@ <variable>.view_id, <variable>.CurrPic.view_id
	bne	.L81	@,
	b	.L102	@
	.fnend
	.size	MVC_MarkPicLTRef, .-MVC_MarkPicLTRef
	.align	2
	.global	MVC_SetFrmRepeatCount
	.type	MVC_SetFrmRepeatCount, %function
MVC_SetFrmRepeatCount:
	.fnstart
.LFB1547:
	@ args = 0, pretend = 0, frame = 0
	@ frame_needed = 1, uses_anonymous_args = 0
	.movsp ip
	mov	ip, sp	@,
	stmfd	sp!, {r4, r5, fp, ip, lr, pc}	@,
	.pad #4
	.save {r4, r5, fp, ip, lr}
	.setfp fp, ip, #-4
	sub	fp, ip, #4	@,,
	push	{lr}
	bl	__gnu_mcount_nc
	ldr	r3, [r0, #0]	@ <variable>.pstExtraData, <variable>.pstExtraData
	ldr	ip, [r3, #520]	@ <variable>.s32FastForwardBackwardSpeed, <variable>.s32FastForwardBackwardSpeed
	add	r2, ip, #2032	@ tmp138, <variable>.s32FastForwardBackwardSpeed,
	add	r3, r2, #15	@ tmp138, tmp138,
	cmp	r3, #4096	@ tmp138,
	bcc	.L126	@,
	movw	r3, #:lower16:11199544	@ tmp144,
	movt	r3, #:upper16:11199544	@ tmp144,
	movw	ip, #:lower16:11199540	@ tmp142,
	movw	r2, #:lower16:11168612	@ tmp147,
	movt	ip, #:upper16:11199540	@ tmp142,
	movt	r2, #:upper16:11168612	@ tmp147,
	ldr	r5, [r0, r3]	@ <variable>.PicOutCounter, <variable>.PicOutCounter
	ldr	r4, [r0, ip]	@ <variable>.NewPicCounter, <variable>.NewPicCounter
	ldr	r2, [r0, r2]	@ <variable>.DPB.size, <variable>.DPB.size
	add	ip, r2, r5, lsr #1	@, D.37669, <variable>.DPB.size, <variable>.PicOutCounter,
	mov	r2, r4, lsr #1	@ D.37665, <variable>.NewPicCounter,
	add	r4, ip, #1	@ tmp149, D.37669,
	cmp	r2, r4	@ D.37665, tmp149
	bcc	.L126	@,
	mvn	ip, ip	@ tmp150, D.37669
	add	r2, ip, r2	@ tmp151, tmp150, D.37665
	cmp	r2, #1	@ tmp151,
	movhi	r2, #2	@ tmp152,
	movls	r2, #1	@ tmp157,
	strhi	r2, [r1, #84]	@ tmp152, <variable>.u32RepeatCnt
	strls	r2, [r1, #84]	@ tmp157, <variable>.u32RepeatCnt
	ldrhi	r2, [r0, r3]	@ <variable>.PicOutCounter, <variable>.PicOutCounter
	ldrls	r2, [r0, r3]	@ <variable>.PicOutCounter, <variable>.PicOutCounter
	addhi	r2, r2, #4	@ tmp156, <variable>.PicOutCounter,
	addls	r2, r2, #2	@ tmp161, <variable>.PicOutCounter,
	str	r2, [r0, r3]	@ tmp161, <variable>.PicOutCounter
	ldmfd	sp, {r4, r5, fp, sp, pc}	@
.L126:
	mov	r0, #0	@ tmp163,
	str	r0, [r1, #84]	@ tmp163, <variable>.u32RepeatCnt
	ldmfd	sp, {r4, r5, fp, sp, pc}	@
	.fnend
	.size	MVC_SetFrmRepeatCount, .-MVC_SetFrmRepeatCount
	.align	2
	.global	MVC_SplitFrmToFlds
	.type	MVC_SplitFrmToFlds, %function
MVC_SplitFrmToFlds:
	.fnstart
.LFB1550:
	@ args = 0, pretend = 0, frame = 0
	@ frame_needed = 1, uses_anonymous_args = 0
	.movsp ip
	mov	ip, sp	@,
	stmfd	sp!, {r4, r5, fp, ip, lr, pc}	@,
	.pad #4
	.save {r4, r5, fp, ip, lr}
	.setfp fp, ip, #-4
	sub	fp, ip, #4	@,,
	push	{lr}
	bl	__gnu_mcount_nc
	ldrb	r4, [r0, #465]	@ zero_extendqisi2	@ <variable>.frame.is_long_term, <variable>.frame.is_long_term
	ldrb	ip, [r0, #466]	@ zero_extendqisi2	@ <variable>.frame.is_short_term, <variable>.frame.is_short_term
	mov	r5, #1	@ tmp138,
	ldr	r1, [r0, #488]	@ <variable>.frame.err_level, <variable>.frame.err_level
	ldr	r2, [r0, #492]	@ <variable>.frame.pic_type, <variable>.frame.pic_type
	ldr	r3, [r0, #468]	@ <variable>.frame.frame_store, <variable>.frame.frame_store
	strb	r5, [r0, #504]	@ tmp138, <variable>.top_field.structure
	mov	r5, #2	@ tmp147,
	strb	r4, [r0, #545]	@ <variable>.frame.is_long_term, <variable>.bottom_field.is_long_term
	str	r3, [r0, #548]	@ <variable>.frame.frame_store, <variable>.bottom_field.frame_store
	strb	ip, [r0, #546]	@ <variable>.frame.is_short_term, <variable>.bottom_field.is_short_term
	strb	r5, [r0, #544]	@ tmp147, <variable>.bottom_field.structure
	str	r1, [r0, #568]	@ <variable>.frame.err_level, <variable>.bottom_field.err_level
	str	r2, [r0, #572]	@ <variable>.frame.pic_type, <variable>.bottom_field.pic_type
	strb	r4, [r0, #505]	@ <variable>.frame.is_long_term, <variable>.top_field.is_long_term
	strb	ip, [r0, #506]	@ <variable>.frame.is_short_term, <variable>.top_field.is_short_term
	str	r1, [r0, #528]	@ <variable>.frame.err_level, <variable>.top_field.err_level
	str	r2, [r0, #532]	@ <variable>.frame.pic_type, <variable>.top_field.pic_type
	str	r3, [r0, #508]	@ <variable>.frame.frame_store, <variable>.top_field.frame_store
	ldmfd	sp, {r4, r5, fp, sp, pc}	@
	.fnend
	.size	MVC_SplitFrmToFlds, .-MVC_SplitFrmToFlds
	.align	2
	.global	MVC_CombineFldsToFrm
	.type	MVC_CombineFldsToFrm, %function
MVC_CombineFldsToFrm:
	.fnstart
.LFB1551:
	@ args = 0, pretend = 0, frame = 0
	@ frame_needed = 1, uses_anonymous_args = 0
	.movsp ip
	mov	ip, sp	@,
	stmfd	sp!, {r3, r4, fp, ip, lr, pc}	@,
	.pad #4
	.save {r3, r4, fp, ip, lr}
	.setfp fp, ip, #-4
	sub	fp, ip, #4	@,,
	push	{lr}
	bl	__gnu_mcount_nc
	ldr	r1, [r0, #560]	@ <variable>.bottom_field.poc, <variable>.bottom_field.poc
	ldr	r3, [r0, #520]	@ <variable>.top_field.poc, <variable>.top_field.poc
	ldr	r4, [r0, #568]	@ <variable>.bottom_field.err_level, <variable>.bottom_field.err_level
	cmp	r1, r3	@ <variable>.bottom_field.poc, <variable>.top_field.poc
	movlt	r3, r1	@ D.37786, <variable>.bottom_field.poc
	movge	r3, r3	@ D.37786, <variable>.top_field.poc
	ldr	r2, [r0, #528]	@ <variable>.top_field.err_level, <variable>.top_field.err_level
	ldrb	r1, [r0, #545]	@ zero_extendqisi2	@ <variable>.bottom_field.is_long_term, <variable>.bottom_field.is_long_term
	ldr	ip, [r0, #508]	@ <variable>.top_field.frame_store, <variable>.top_field.frame_store
	add	r2, r4, r2	@ tmp144, <variable>.bottom_field.err_level, <variable>.top_field.err_level
	cmp	r1, #0	@ <variable>.bottom_field.is_long_term,
	mov	r4, #3	@ tmp142,
	mov	r2, r2, lsr #1	@ D.37791, tmp144,
	str	r3, [r0, #600]	@ D.37786, <variable>.poc
	strb	r4, [r0, #464]	@ tmp142, <variable>.frame.structure
	str	ip, [r0, #468]	@ <variable>.top_field.frame_store, <variable>.frame.frame_store
	str	r3, [r0, #480]	@ D.37786, <variable>.frame.poc
	str	r2, [r0, #488]	@ D.37791, <variable>.frame.err_level
	beq	.L135	@,
	ldrb	ip, [r0, #505]	@ zero_extendqisi2	@ <variable>.top_field.is_long_term, <variable>.top_field.is_long_term
	subs	r1, ip, #0	@ prephitmp.1269, <variable>.top_field.is_long_term,
	movne	r1, #1	@ prephitmp.1269
.L135:
	ldr	r3, [r0, #544]	@ tmp154,
	strb	r1, [r0, #465]	@ prephitmp.1269, <variable>.frame.is_long_term
	bic	ip, r3, #-16777216	@ tmp152, tmp154,
	bic	r3, ip, #255	@ tmp152, tmp152,
	cmp	r3, #0	@ tmp152,
	beq	.L136	@,
	ldr	ip, [r0, #504]	@ tmp157,
	bic	r3, ip, #-16777216	@ tmp155, tmp157,
	bic	ip, r3, #255	@ tmp155, tmp155,
	cmp	ip, #0	@ tmp155,
	bne	.L139	@,
.L136:
	mov	r1, #0	@ prephitmp.1258,
.L137:
	ldr	ip, [r0, #572]	@ <variable>.bottom_field.pic_type, <variable>.bottom_field.pic_type
	ldr	r3, [r0, #532]	@ <variable>.top_field.pic_type, <variable>.top_field.pic_type
	str	r2, [r0, #624]	@ D.37791, <variable>.err_level
	cmp	ip, r3	@ <variable>.bottom_field.pic_type, <variable>.top_field.pic_type
	movcs	r3, ip	@ D.37815, <variable>.bottom_field.pic_type
	strb	r1, [r0, #466]	@ prephitmp.1258, <variable>.frame.is_short_term
	str	r3, [r0, #620]	@ D.37815, <variable>.pic_type
	str	r3, [r0, #492]	@ D.37815, <variable>.frame.pic_type
	ldmfd	sp, {r3, r4, fp, sp, pc}	@
.L139:
	rsbs	r1, r1, #1	@ prephitmp.1258, prephitmp.1269
	movcc	r1, #0	@ prephitmp.1258
	b	.L137	@
	.fnend
	.size	MVC_CombineFldsToFrm, .-MVC_CombineFldsToFrm
	.align	2
	.global	MVC_UpdateCurrFrameInfo
	.type	MVC_UpdateCurrFrameInfo, %function
MVC_UpdateCurrFrameInfo:
	.fnstart
.LFB1562:
	@ args = 0, pretend = 0, frame = 0
	@ frame_needed = 1, uses_anonymous_args = 0
	.movsp ip
	mov	ip, sp	@,
	stmfd	sp!, {r3, r4, r5, r6, r7, r8, r9, sl, fp, ip, lr, pc}	@,
	.pad #4
	.save {r3, r4, r5, r6, r7, r8, r9, sl, fp, ip, lr}
	.setfp fp, ip, #-4
	sub	fp, ip, #4	@,,
	push	{lr}
	bl	__gnu_mcount_nc
	movw	r6, #:lower16:11196640	@ tmp152,
	movw	r5, #:lower16:11196170	@ tmp153,
	movt	r6, #:upper16:11196640	@ tmp152,
	movt	r5, #:upper16:11196170	@ tmp153,
	mov	r3, r0	@ pMvcCtx, pMvcCtx
	ldr	r4, [r3, r6]	@ pCurrFrame, <variable>.CurrPic.frame_store
	movw	r0, #:lower16:11196172	@ tmp156,
	ldrb	r1, [r3, r5]	@ zero_extendqisi2	@ <variable>.CurrPic.non_existing, <variable>.CurrPic.non_existing
	movt	r0, #:upper16:11196172	@ tmp156,
	strb	r1, [r4, #0]	@ <variable>.CurrPic.non_existing, <variable>.non_existing
	ldrb	r2, [r3, r0]	@ zero_extendqisi2	@ <variable>.CurrPic.is_long_term, <variable>.CurrPic.is_long_term
	cmp	r2, #0	@ <variable>.CurrPic.is_long_term,
	bne	.L141	@,
	movw	r7, #:lower16:11196173	@ tmp158,
	movt	r7, #:upper16:11196173	@ tmp158,
	ldrb	r1, [r3, r7]	@ zero_extendqisi2	@ <variable>.CurrPic.is_short_term, <variable>.CurrPic.is_short_term
	cmp	r1, #0	@ <variable>.CurrPic.is_short_term,
	bne	.L141	@,
.L142:
	movw	r5, #:lower16:11196648	@ tmp161,
	movt	r5, #:upper16:11196648	@ tmp161,
	strb	r1, [r4, #2]	@ iftmp.550, <variable>.is_reference
	movw	ip, #:lower16:11196700	@ tmp163,
	ldr	r2, [r3, r5]	@ <variable>.CurrPic.frame_num, <variable>.CurrPic.frame_num
	movt	ip, #:upper16:11196700	@ tmp163,
	movw	r5, #:lower16:11196692	@ tmp165,
	movt	r5, #:upper16:11196692	@ tmp165,
	movw	r8, #:lower16:11196660	@ tmp167,
	movt	r8, #:upper16:11196660	@ tmp167,
	str	r2, [r4, #588]	@ <variable>.CurrPic.frame_num, <variable>.frame_num
	movw	r7, #:lower16:11196724	@ tmp169,
	ldr	sl, [r3, ip]	@ <variable>.CurrPic.err_level, <variable>.CurrPic.err_level
	movt	r7, #:upper16:11196724	@ tmp169,
	movw	r6, #:lower16:11196652	@ tmp171,
	movt	r6, #:upper16:11196652	@ tmp171,
	movw	r0, #:lower16:11196177	@ tmp173,
	movt	r0, #:upper16:11196177	@ tmp173,
	str	sl, [r4, #624]	@ <variable>.CurrPic.err_level, <variable>.err_level
	movw	r2, #:lower16:11196175	@ tmp175,
	ldr	sl, [r3, r5]	@ <variable>.CurrPic.pic_type, <variable>.CurrPic.pic_type
	movt	r2, #:upper16:11196175	@ tmp175,
	movw	r1, #:lower16:11196171	@ tmp178,
	movt	r1, #:upper16:11196171	@ tmp178,
	str	sl, [r4, #620]	@ <variable>.CurrPic.pic_type, <variable>.pic_type
	ldr	r8, [r3, r8]	@ <variable>.CurrPic.thispoc, <variable>.CurrPic.thispoc
	str	r8, [r4, #600]	@ <variable>.CurrPic.thispoc, <variable>.poc
	ldr	r7, [r3, r7]	@ <variable>.CurrPic.pmv_address_idc, <variable>.CurrPic.pmv_address_idc
	str	r7, [r4, #628]	@ <variable>.CurrPic.pmv_address_idc, <variable>.pmv_address_idc
	ldr	r6, [r3, r6]	@ <variable>.CurrPic.long_term_frame_idx, <variable>.CurrPic.long_term_frame_idx
	str	r6, [r4, #596]	@ <variable>.CurrPic.long_term_frame_idx, <variable>.long_term_frame_idx
	ldrb	r0, [r3, r0]	@ zero_extendqisi2	@ <variable>.CurrPic.MbaffFrameFlag, <variable>.CurrPic.MbaffFrameFlag
	str	r0, [r4, #616]	@ <variable>.CurrPic.MbaffFrameFlag, <variable>.MbaffFrameFlag
	ldrb	r0, [r3, r2]	@ zero_extendqisi2	@ <variable>.CurrPic.mode_skip_flag, <variable>.CurrPic.mode_skip_flag
	cmp	r0, #1	@ <variable>.CurrPic.mode_skip_flag,
	moveq	r0, #3	@ iftmp.552,
	movne	r0, #0	@ iftmp.552,
	strb	r0, [r4, #3]	@ iftmp.552, <variable>.mode_skip_flag
	ldrb	r1, [r3, r1]	@ zero_extendqisi2	@ <variable>.CurrPic.structure, <variable>.CurrPic.structure
	cmp	r1, #1	@ <variable>.CurrPic.structure,
	beq	.L147	@,
	bcs	.L161	@,
	movw	r6, #:lower16:11196172	@ tmp184,
	movt	r6, #:upper16:11196172	@ tmp184,
	str	r4, [r4, #468]	@ pCurrFrame, <variable>.frame.frame_store
	mov	sl, #3	@ tmp180,
	mov	r8, #0	@ tmp182,
	strb	sl, [r4, #1]	@ tmp180, <variable>.is_used
	strb	r8, [r4, #464]	@ tmp182, <variable>.frame.structure
	movw	r0, #:lower16:11196173	@ tmp186,
	ldrb	r8, [r3, r6]	@ zero_extendqisi2	@ temp.1300, <variable>.CurrPic.is_long_term
	movt	r0, #:upper16:11196173	@ tmp186,
	movw	r7, #:lower16:11196664	@ tmp188,
	movt	r7, #:upper16:11196664	@ tmp188,
	movw	r6, #:lower16:11196668	@ tmp192,
	movt	r6, #:upper16:11196668	@ tmp192,
	strb	r8, [r4, #465]	@ temp.1300, <variable>.frame.is_long_term
	movw	lr, #:lower16:11196672	@ tmp194,
	ldrb	sl, [r3, r0]	@ zero_extendqisi2	@ temp.1301, <variable>.CurrPic.is_short_term
	movt	lr, #:upper16:11196672	@ tmp194,
	movw	r1, #:lower16:11196184	@,
	movt	r1, #:upper16:11196184	@,
	add	r1, r3, r1	@, pMvcCtx,
	add	r0, r4, #8	@, pCurrFrame,
	strb	sl, [r4, #466]	@ temp.1301, <variable>.frame.is_short_term
	mov	r2, #456	@,
	ldr	r7, [r3, r7]	@ <variable>.CurrPic.framepoc, <variable>.CurrPic.framepoc
	str	r7, [r4, #480]	@ <variable>.CurrPic.framepoc, <variable>.frame.poc
	ldr	r7, [r3, r5]	@ temp.1302, <variable>.CurrPic.pic_type
	str	r7, [r4, #492]	@ temp.1302, <variable>.frame.pic_type
	ldr	r5, [r3, ip]	@ temp.1303, <variable>.CurrPic.err_level
	str	r5, [r4, #488]	@ temp.1303, <variable>.frame.err_level
	ldr	ip, [r3, r6]	@ <variable>.CurrPic.toppoc, <variable>.CurrPic.toppoc
	str	ip, [r4, #520]	@ <variable>.CurrPic.toppoc, <variable>.top_field.poc
	ldr	r3, [r3, lr]	@ <variable>.CurrPic.bottompoc, <variable>.CurrPic.bottompoc
	str	r3, [r4, #560]	@ <variable>.CurrPic.bottompoc, <variable>.bottom_field.poc
	bl	memcpy	@
	mov	ip, #1	@ tmp203,
	mov	r3, #2	@ tmp207,
	strb	r8, [r4, #545]	@ temp.1300, <variable>.bottom_field.is_long_term
	strb	sl, [r4, #546]	@ temp.1301, <variable>.bottom_field.is_short_term
	str	r5, [r4, #568]	@ temp.1303, <variable>.bottom_field.err_level
	strb	ip, [r4, #504]	@ tmp203, <variable>.top_field.structure
	strb	r3, [r4, #544]	@ tmp207, <variable>.bottom_field.structure
	str	r7, [r4, #572]	@ temp.1302, <variable>.bottom_field.pic_type
	str	r4, [r4, #548]	@ pCurrFrame, <variable>.bottom_field.frame_store
	strb	r8, [r4, #505]	@ temp.1300, <variable>.top_field.is_long_term
	strb	sl, [r4, #506]	@ temp.1301, <variable>.top_field.is_short_term
	str	r5, [r4, #528]	@ temp.1303, <variable>.top_field.err_level
	str	r7, [r4, #532]	@ temp.1302, <variable>.top_field.pic_type
	str	r4, [r4, #508]	@ pCurrFrame, <variable>.top_field.frame_store
	ldmfd	sp, {r3, r4, r5, r6, r7, r8, r9, sl, fp, sp, pc}	@
.L141:
	mov	r1, #3	@ iftmp.550,
	b	.L142	@
.L161:
	cmp	r1, #2	@ <variable>.CurrPic.structure,
	ldmnefd	sp, {r3, r4, r5, r6, r7, r8, r9, sl, fp, sp, pc}	@
	movw	lr, #:lower16:11196172	@ tmp252,
	movt	lr, #:upper16:11196172	@ tmp252,
	str	r4, [r4, #548]	@ pCurrFrame, <variable>.bottom_field.frame_store
	mov	r6, #1	@ tmp250,
	strb	r6, [r4, #544]	@ tmp250, <variable>.bottom_field.structure
	movw	r7, #:lower16:11196173	@ tmp255,
	ldrb	r8, [r3, lr]	@ zero_extendqisi2	@ <variable>.CurrPic.is_long_term, <variable>.CurrPic.is_long_term
	movt	r7, #:upper16:11196173	@ tmp255,
	movw	lr, #:lower16:11196668	@ tmp258,
	movt	lr, #:upper16:11196668	@ tmp258,
	movw	r6, #:lower16:11196169	@ tmp263,
	movt	r6, #:upper16:11196169	@ tmp263,
	strb	r8, [r4, #545]	@ <variable>.CurrPic.is_long_term, <variable>.bottom_field.is_long_term
	mov	r8, #0	@ tmp262,
	ldrb	r7, [r3, r7]	@ zero_extendqisi2	@ <variable>.CurrPic.is_short_term, <variable>.CurrPic.is_short_term
	strb	r7, [r4, #546]	@ <variable>.CurrPic.is_short_term, <variable>.bottom_field.is_short_term
	ldr	lr, [r3, lr]	@ <variable>.CurrPic.toppoc, <variable>.CurrPic.toppoc
	str	lr, [r4, #560]	@ <variable>.CurrPic.toppoc, <variable>.bottom_field.poc
	ldr	lr, [r3, r5]	@ temp.1315, <variable>.CurrPic.pic_type
	str	lr, [r4, #572]	@ temp.1315, <variable>.bottom_field.pic_type
	ldr	ip, [r3, ip]	@ temp.1316, <variable>.CurrPic.err_level
	str	r8, [r4, #616]	@ tmp262, <variable>.MbaffFrameFlag
	str	ip, [r4, #568]	@ temp.1316, <variable>.bottom_field.err_level
	ldrb	r5, [r3, r6]	@ zero_extendqisi2	@ <variable>.CurrPic.field_pair_flag, <variable>.CurrPic.field_pair_flag
	cmp	r5, r8	@ <variable>.CurrPic.field_pair_flag,
	beq	.L162	@,
	ldr	r1, [r4, #528]	@ <variable>.top_field.err_level, <variable>.top_field.err_level
	mov	r5, #3	@ tmp275,
	strb	r5, [r4, #1]	@ tmp275, <variable>.is_used
	add	r7, ip, r1	@ temp.1319, temp.1316, <variable>.top_field.err_level
	str	r7, [r4, #488]	@ temp.1319, <variable>.frame.err_level
	str	r7, [r4, #624]	@ temp.1319, <variable>.err_level
	movw	ip, #:lower16:11196192	@ tmp282,
	ldrb	r2, [r3, r2]	@ zero_extendqisi2	@ <variable>.CurrPic.mode_skip_flag, <variable>.CurrPic.mode_skip_flag
	movt	ip, #:upper16:11196192	@ tmp282,
	mvn	r1, #0	@,
	cmp	r2, #1	@ <variable>.CurrPic.mode_skip_flag,
	orreq	r8, r0, #2	@ iftmp.555, iftmp.552,
	strb	r8, [r4, #3]	@ iftmp.555, <variable>.mode_skip_flag
	ldrd	r6, [r3, ip]	@ temp.1321, pMvcCtx, tmp282
	mvn	r0, #0	@ tmp283,
	cmp	r7, r1	@ temp.1321, tmp283
	cmpeq	r6, r0	@ temp.1321, tmp283
	beq	.L158	@,
	ldrd	r8, [r4, #16]	@ <variable>.fs_image.PTS, pCurrFrame,
	cmp	r9, r1	@ <variable>.fs_image.PTS, tmp283
	cmpeq	r8, r0	@ <variable>.fs_image.PTS, tmp283
	beq	.L163	@,
.L158:
	ldr	r1, [r4, #532]	@ <variable>.top_field.pic_type, <variable>.top_field.pic_type
	b	.L160	@
.L147:
	movw	r6, #:lower16:11196172	@ tmp211,
	movt	r6, #:upper16:11196172	@ tmp211,
	strb	r1, [r4, #504]	@ <variable>.CurrPic.structure, <variable>.top_field.structure
	movw	r7, #:lower16:11196173	@ tmp214,
	str	r4, [r4, #508]	@ pCurrFrame, <variable>.top_field.frame_store
	movt	r7, #:upper16:11196173	@ tmp214,
	ldrb	sl, [r3, r6]	@ zero_extendqisi2	@ <variable>.CurrPic.is_long_term, <variable>.CurrPic.is_long_term
	movw	lr, #:lower16:11196668	@ tmp217,
	movt	lr, #:upper16:11196668	@ tmp217,
	movw	r6, #:lower16:11196169	@ tmp222,
	movt	r6, #:upper16:11196169	@ tmp222,
	mov	r8, #0	@ tmp221,
	strb	sl, [r4, #505]	@ <variable>.CurrPic.is_long_term, <variable>.top_field.is_long_term
	ldrb	r7, [r3, r7]	@ zero_extendqisi2	@ <variable>.CurrPic.is_short_term, <variable>.CurrPic.is_short_term
	strb	r7, [r4, #506]	@ <variable>.CurrPic.is_short_term, <variable>.top_field.is_short_term
	ldr	lr, [r3, lr]	@ <variable>.CurrPic.toppoc, <variable>.CurrPic.toppoc
	str	lr, [r4, #520]	@ <variable>.CurrPic.toppoc, <variable>.top_field.poc
	ldr	lr, [r3, r5]	@ temp.1307, <variable>.CurrPic.pic_type
	str	lr, [r4, #532]	@ temp.1307, <variable>.top_field.pic_type
	ldr	ip, [r3, ip]	@ temp.1308, <variable>.CurrPic.err_level
	str	r8, [r4, #616]	@ tmp221, <variable>.MbaffFrameFlag
	str	ip, [r4, #528]	@ temp.1308, <variable>.top_field.err_level
	ldrb	r5, [r3, r6]	@ zero_extendqisi2	@ <variable>.CurrPic.field_pair_flag, <variable>.CurrPic.field_pair_flag
	cmp	r5, r8	@ <variable>.CurrPic.field_pair_flag,
	beq	.L164	@,
	ldr	r1, [r4, #568]	@ <variable>.bottom_field.err_level, <variable>.bottom_field.err_level
	mov	r5, #3	@ tmp235,
	strb	r5, [r4, #1]	@ tmp235, <variable>.is_used
	add	r6, ip, r1	@ D.38567, temp.1308, <variable>.bottom_field.err_level
	str	r6, [r4, #488]	@ D.38567, <variable>.frame.err_level
	str	r6, [r4, #624]	@ D.38567, <variable>.err_level
	mvn	r1, #0	@,
	ldrb	r7, [r3, r2]	@ zero_extendqisi2	@ <variable>.CurrPic.mode_skip_flag, <variable>.CurrPic.mode_skip_flag
	movw	r2, #:lower16:11196192	@ tmp242,
	movt	r2, #:upper16:11196192	@ tmp242,
	cmp	r7, #1	@ <variable>.CurrPic.mode_skip_flag,
	orreq	r8, r0, #1	@ iftmp.553, iftmp.552,
	strb	r8, [r4, #3]	@ iftmp.553, <variable>.mode_skip_flag
	ldrd	r6, [r3, r2]	@ D.38574, pMvcCtx, tmp242
	mvn	r0, #0	@ tmp243,
	cmp	r7, r1	@ D.38574, tmp243
	cmpeq	r6, r0	@ D.38574, tmp243
	beq	.L152	@,
	ldrd	r8, [r4, #16]	@ <variable>.fs_image.PTS, pCurrFrame,
	cmp	r9, r1	@ <variable>.fs_image.PTS, tmp243
	cmpeq	r8, r0	@ <variable>.fs_image.PTS, tmp243
	beq	.L165	@,
.L152:
	ldr	r1, [r4, #572]	@ <variable>.bottom_field.pic_type, <variable>.bottom_field.pic_type
.L160:
	movw	ip, #:lower16:11196660	@ tmp288,
	movt	ip, #:upper16:11196660	@ tmp288,
	cmp	r1, lr	@ <variable>.top_field.pic_type, temp.1315
	strcs	r1, [r4, #620]	@, <variable>.top_field.pic_type, <variable>.pic_type
	strcc	lr, [r4, #620]	@, temp.1315, <variable>.pic_type
	mov	r0, r4	@, pCurrFrame
	ldr	lr, [r3, ip]	@ <variable>.CurrPic.thispoc, <variable>.CurrPic.thispoc
	str	lr, [r4, #600]	@ <variable>.CurrPic.thispoc, <variable>.poc
	bl	MVC_CombineFldsToFrm	@
	ldmfd	sp, {r3, r4, r5, r6, r7, r8, r9, sl, fp, sp, pc}	@
.L162:
	movw	r0, #:lower16:11196184	@,
	movt	r0, #:upper16:11196184	@,
	strb	r1, [r4, #1]	@ <variable>.CurrPic.structure, <variable>.is_used
	add	r1, r3, r0	@, pMvcCtx,
	str	ip, [r4, #488]	@ temp.1316, <variable>.frame.err_level
	add	r0, r4, #8	@, pCurrFrame,
	str	ip, [r4, #624]	@ temp.1316, <variable>.err_level
	ldrb	r3, [r3, r2]	@ zero_extendqisi2	@ <variable>.CurrPic.mode_skip_flag, <variable>.CurrPic.mode_skip_flag
	mov	r2, #456	@,
	cmp	r3, #1	@ <variable>.CurrPic.mode_skip_flag,
	moveq	r3, #2	@ iftmp.554,
	movne	r3, r8	@ iftmp.554,
	strb	r3, [r4, #3]	@ iftmp.554, <variable>.mode_skip_flag
	bl	memcpy	@
	ldmfd	sp, {r3, r4, r5, r6, r7, r8, r9, sl, fp, sp, pc}	@
.L164:
	strb	r1, [r4, #1]	@ <variable>.CurrPic.structure, <variable>.is_used
	movw	r1, #:lower16:11196184	@,
	str	ip, [r4, #488]	@ temp.1308, <variable>.frame.err_level
	movt	r1, #:upper16:11196184	@,
	str	ip, [r4, #624]	@ temp.1308, <variable>.err_level
	add	r1, r3, r1	@, pMvcCtx,
	ldrb	ip, [r3, r2]	@ zero_extendqisi2	@ <variable>.CurrPic.mode_skip_flag, <variable>.CurrPic.mode_skip_flag
	add	r0, r4, #8	@, pCurrFrame,
	mov	r2, #456	@,
	cmp	ip, #1	@ <variable>.CurrPic.mode_skip_flag,
	movne	r3, #0	@, tmp228
	moveq	r3, #1	@, tmp228
	strb	r3, [r4, #3]	@ tmp228, <variable>.mode_skip_flag
	bl	memcpy	@
	ldmfd	sp, {r3, r4, r5, r6, r7, r8, r9, sl, fp, sp, pc}	@
.L165:
	strd	r6, [r4, #16]	@ D.38574, pCurrFrame,
	b	.L152	@
.L163:
	strd	r6, [r4, #16]	@ temp.1321, pCurrFrame,
	ldr	r1, [r4, #532]	@ <variable>.top_field.pic_type, <variable>.top_field.pic_type
	b	.L160	@
	.fnend
	.size	MVC_UpdateCurrFrameInfo, .-MVC_UpdateCurrFrameInfo
	.align	2
	.global	MVC_GetShortTermPicPoint
	.type	MVC_GetShortTermPicPoint, %function
MVC_GetShortTermPicPoint:
	.fnstart
.LFB1568:
	@ args = 0, pretend = 0, frame = 0
	@ frame_needed = 1, uses_anonymous_args = 0
	.movsp ip
	mov	ip, sp	@,
	stmfd	sp!, {r3, r4, r5, r6, fp, ip, lr, pc}	@,
	.pad #4
	.save {r3, r4, r5, r6, fp, ip, lr}
	.setfp fp, ip, #-4
	sub	fp, ip, #4	@,,
	push	{lr}
	bl	__gnu_mcount_nc
	movw	r3, #:lower16:11162625	@ tmp144,
	movt	r3, #:upper16:11162625	@ tmp144,
	ldrb	r4, [r0, r3]	@ zero_extendqisi2	@ <variable>.CurrSlice.field_pic_flag, <variable>.CurrSlice.field_pic_flag
	cmp	r4, #0	@ <variable>.CurrSlice.field_pic_flag,
	beq	.L168	@,
	movw	r2, #:lower16:11162626	@ tmp146,
	movt	r2, #:upper16:11162626	@ tmp146,
	ldrb	r4, [r0, r2]	@ zero_extendqisi2	@ <variable>.CurrSlice.bottom_field_flag, <variable>.CurrSlice.bottom_field_flag
	cmp	r4, #0	@ <variable>.CurrSlice.bottom_field_flag,
	movne	r4, #2	@ structure,
	moveq	r4, #1	@ structure,
.L168:
	movw	ip, #:lower16:11168620	@ tmp148,
	movt	ip, #:upper16:11168620	@ tmp148,
	ldr	r6, [r0, ip]	@ D.39048, <variable>.DPB.ref_frames_in_buffer
	cmp	r6, #0	@ D.39048,
	beq	.L170	@,
	cmp	r4, #0	@ structure,
	movw	r5, #:lower16:11168484	@ ivtmp.1351,
	sub	r2, r6, #1	@ tmp166, D.39048,
	movt	r5, #:upper16:11168484	@ ivtmp.1351,
	add	r3, r0, r5	@ ivtmp.1351, pMvcCtx, ivtmp.1351
	and	r5, r2, #1	@ tmp168, tmp166,
	bne	.L178	@,
	ldr	r2, [r3, #0]	@ D.39013, <variable>.DPB.fs_ref
	ldrb	r0, [r2, #2]	@ zero_extendqisi2	@ <variable>.is_reference, <variable>.is_reference
	cmp	r0, #3	@ <variable>.is_reference,
	bne	.L180	@,
	ldr	ip, [r2, #464]	@ tmp185,
	bic	r0, ip, #-16777216	@ tmp186, tmp185,
	bic	ip, r0, #255	@ tmp186, tmp186,
	cmp	ip, #65536	@ tmp186,
	bne	.L180	@,
	ldr	r0, [r2, #476]	@ <variable>.frame.pic_num, <variable>.frame.pic_num
	cmp	r0, r1	@ <variable>.frame.pic_num, picNum
	beq	.L197	@,
.L180:
	mov	ip, #1	@ i,
	cmp	r6, ip	@ D.39048, i
	add	r3, r3, #4	@ ivtmp.1351, ivtmp.1351,
	bls	.L170	@,
	cmp	r5, #0	@ tmp168,
	beq	.L175	@,
	cmp	r4, #0	@ structure,
	beq	.L198	@,
	ldr	r0, [r3, #0]	@ temp.1354, <variable>.DPB.fs_ref
	ldrb	r2, [r0, #2]	@ zero_extendqisi2	@ D.39026, <variable>.is_reference
	tst	r2, #1	@ D.39026,
	beq	.L183	@,
	ldr	r5, [r0, #504]	@ tmp194,
	bic	r5, r5, #-16777216	@ tmp195, tmp194,
	bic	r5, r5, #255	@ tmp195, tmp195,
	cmp	r5, #65536	@ tmp195,
	beq	.L202	@,
.L183:
	tst	r2, #2	@ D.39026,
	beq	.L184	@,
	ldr	r2, [r0, #544]	@ tmp191,
	bic	r2, r2, #-16777216	@ tmp192, tmp191,
	bic	r2, r2, #255	@ tmp192, tmp192,
	cmp	r2, #65536	@ tmp192,
	bne	.L184	@,
	ldr	r2, [r0, #556]	@ <variable>.bottom_field.pic_num, <variable>.bottom_field.pic_num
	cmp	r2, r1	@ <variable>.bottom_field.pic_num, picNum
	beq	.L195	@,
.L184:
	add	ip, ip, #1	@ i, i,
	add	r3, r3, #4	@ ivtmp.1351, ivtmp.1351,
	cmp	r6, ip	@ D.39048, i
	bhi	.L175	@,
.L170:
	mov	r0, #0	@ D.39024,
	ldmfd	sp, {r3, r4, r5, r6, fp, sp, pc}	@
.L178:
	ldr	r0, [r3, #0]	@ temp.1354, <variable>.DPB.fs_ref
	ldrb	r2, [r0, #2]	@ zero_extendqisi2	@ D.39026, <variable>.is_reference
	tst	r2, #1	@ D.39026,
	beq	.L179	@,
	ldr	ip, [r0, #504]	@ tmp181,
	bic	ip, ip, #-16777216	@ tmp182, tmp181,
	bic	ip, ip, #255	@ tmp182, tmp182,
	cmp	ip, #65536	@ tmp182,
	beq	.L203	@,
.L179:
	tst	r2, #2	@ D.39026,
	beq	.L180	@,
	ldr	ip, [r0, #544]	@ tmp178,
	bic	r2, ip, #-16777216	@ tmp179, tmp178,
	bic	ip, r2, #255	@ tmp179, tmp179,
	cmp	ip, #65536	@ tmp179,
	bne	.L180	@,
	ldr	r2, [r0, #556]	@ <variable>.bottom_field.pic_num, <variable>.bottom_field.pic_num
	cmp	r2, r1	@ <variable>.bottom_field.pic_num, picNum
	bne	.L180	@,
.L195:
	add	r0, r0, #544	@ D.39024, temp.1354,
	ldmfd	sp, {r3, r4, r5, r6, fp, sp, pc}	@
.L204:
	ldr	r2, [r3, #0]	@ D.39013, <variable>.DPB.fs_ref
	ldrb	r0, [r2, #2]	@ zero_extendqisi2	@ <variable>.is_reference, <variable>.is_reference
	cmp	r0, #3	@ <variable>.is_reference,
	bne	.L172	@,
	ldr	r0, [r2, #464]	@ tmp153,
	bic	r0, r0, #-16777216	@ tmp151, tmp153,
	bic	r0, r0, #255	@ tmp151, tmp151,
	cmp	r0, #65536	@ tmp151,
	bne	.L172	@,
	ldr	r0, [r2, #476]	@ <variable>.frame.pic_num, <variable>.frame.pic_num
	cmp	r0, r1	@ <variable>.frame.pic_num, picNum
	beq	.L197	@,
.L172:
	cmp	r4, #0	@ structure,
	add	ip, ip, #1	@ tmp169, i,
	add	r5, r3, #4	@ tmp170, ivtmp.1351,
	bne	.L187	@,
.L206:
	ldr	r2, [r3, #4]	@ D.39013, <variable>.DPB.fs_ref
	ldrb	r0, [r2, #2]	@ zero_extendqisi2	@ <variable>.is_reference, <variable>.is_reference
	cmp	r0, #3	@ <variable>.is_reference,
	bne	.L189	@,
	ldr	r3, [r2, #464]	@ tmp211,
	bic	r0, r3, #-16777216	@ tmp212, tmp211,
	bic	r3, r0, #255	@ tmp212, tmp212,
	cmp	r3, #65536	@ tmp212,
	bne	.L189	@,
	ldr	r0, [r2, #476]	@ <variable>.frame.pic_num, <variable>.frame.pic_num
	cmp	r0, r1	@ <variable>.frame.pic_num, picNum
	beq	.L197	@,
.L189:
	add	ip, ip, #1	@ i, tmp169,
	add	r3, r5, #4	@ ivtmp.1351, tmp170,
	cmp	r6, ip	@ D.39048, i
	bls	.L170	@,
.L175:
	cmp	r4, #0	@ structure,
	beq	.L204	@,
	ldr	r0, [r3, #0]	@ temp.1354, <variable>.DPB.fs_ref
	ldrb	r2, [r0, #2]	@ zero_extendqisi2	@ D.39026, <variable>.is_reference
	tst	r2, #1	@ D.39026,
	beq	.L174	@,
	ldr	r5, [r0, #504]	@ tmp158,
	bic	r5, r5, #-16777216	@ tmp156, tmp158,
	bic	r5, r5, #255	@ tmp156, tmp156,
	cmp	r5, #65536	@ tmp156,
	beq	.L205	@,
.L174:
	tst	r2, #2	@ D.39026,
	beq	.L172	@,
	ldr	r2, [r0, #544]	@ tmp163,
	bic	r2, r2, #-16777216	@ tmp161, tmp163,
	bic	r2, r2, #255	@ tmp161, tmp161,
	cmp	r2, #65536	@ tmp161,
	bne	.L172	@,
	ldr	r2, [r0, #556]	@ <variable>.bottom_field.pic_num, <variable>.bottom_field.pic_num
	cmp	r2, r1	@ <variable>.bottom_field.pic_num, picNum
	beq	.L195	@,
	cmp	r4, #0	@ structure,
	add	ip, ip, #1	@ tmp169, i,
	add	r5, r3, #4	@ tmp170, ivtmp.1351,
	beq	.L206	@,
.L187:
	ldr	r0, [r3, #4]	@ temp.1354, <variable>.DPB.fs_ref
	ldrb	r3, [r0, #2]	@ zero_extendqisi2	@ D.39026, <variable>.is_reference
	tst	r3, #1	@ D.39026,
	beq	.L188	@,
	ldr	r2, [r0, #504]	@ tmp207,
	bic	r2, r2, #-16777216	@ tmp208, tmp207,
	bic	r2, r2, #255	@ tmp208, tmp208,
	cmp	r2, #65536	@ tmp208,
	beq	.L207	@,
.L188:
	tst	r3, #2	@ D.39026,
	beq	.L189	@,
	ldr	r3, [r0, #544]	@ tmp204,
	bic	r2, r3, #-16777216	@ tmp205, tmp204,
	bic	r3, r2, #255	@ tmp205, tmp205,
	cmp	r3, #65536	@ tmp205,
	bne	.L189	@,
	ldr	r2, [r0, #556]	@ <variable>.bottom_field.pic_num, <variable>.bottom_field.pic_num
	cmp	r2, r1	@ <variable>.bottom_field.pic_num, picNum
	bne	.L189	@,
	b	.L195	@
.L205:
	ldr	r5, [r0, #516]	@ <variable>.top_field.pic_num, <variable>.top_field.pic_num
	cmp	r5, r1	@ <variable>.top_field.pic_num, picNum
	bne	.L174	@,
.L196:
	add	r0, r0, #504	@ D.39024, temp.1354,
	ldmfd	sp, {r3, r4, r5, r6, fp, sp, pc}	@
.L207:
	ldr	r2, [r0, #516]	@ <variable>.top_field.pic_num, <variable>.top_field.pic_num
	cmp	r2, r1	@ <variable>.top_field.pic_num, picNum
	bne	.L188	@,
	b	.L196	@
.L198:
	ldr	r2, [r3, #0]	@ D.39013, <variable>.DPB.fs_ref
	ldrb	r0, [r2, #2]	@ zero_extendqisi2	@ <variable>.is_reference, <variable>.is_reference
	cmp	r0, #3	@ <variable>.is_reference,
	bne	.L184	@,
	ldr	r0, [r2, #464]	@ tmp198,
	bic	r0, r0, #-16777216	@ tmp199, tmp198,
	bic	r0, r0, #255	@ tmp199, tmp199,
	cmp	r0, #65536	@ tmp199,
	bne	.L184	@,
	ldr	r0, [r2, #476]	@ <variable>.frame.pic_num, <variable>.frame.pic_num
	cmp	r0, r1	@ <variable>.frame.pic_num, picNum
	bne	.L184	@,
.L197:
	add	r0, r2, #464	@ D.39024, D.39013,
	ldmfd	sp, {r3, r4, r5, r6, fp, sp, pc}	@
.L203:
	ldr	ip, [r0, #516]	@ <variable>.top_field.pic_num, <variable>.top_field.pic_num
	cmp	ip, r1	@ <variable>.top_field.pic_num, picNum
	bne	.L179	@,
	b	.L196	@
.L202:
	ldr	r5, [r0, #516]	@ <variable>.top_field.pic_num, <variable>.top_field.pic_num
	cmp	r5, r1	@ <variable>.top_field.pic_num, picNum
	bne	.L183	@,
	b	.L196	@
	.fnend
	.size	MVC_GetShortTermPicPoint, .-MVC_GetShortTermPicPoint
	.align	2
	.global	MVC_GetLongTermPicPoint
	.type	MVC_GetLongTermPicPoint, %function
MVC_GetLongTermPicPoint:
	.fnstart
.LFB1569:
	@ args = 0, pretend = 0, frame = 0
	@ frame_needed = 1, uses_anonymous_args = 0
	.movsp ip
	mov	ip, sp	@,
	stmfd	sp!, {r3, r4, r5, r6, fp, ip, lr, pc}	@,
	.pad #4
	.save {r3, r4, r5, r6, fp, ip, lr}
	.setfp fp, ip, #-4
	sub	fp, ip, #4	@,,
	push	{lr}
	bl	__gnu_mcount_nc
	movw	r3, #:lower16:11162625	@ tmp144,
	movt	r3, #:upper16:11162625	@ tmp144,
	ldrb	r4, [r0, r3]	@ zero_extendqisi2	@ <variable>.CurrSlice.field_pic_flag, <variable>.CurrSlice.field_pic_flag
	cmp	r4, #0	@ <variable>.CurrSlice.field_pic_flag,
	beq	.L210	@,
	movw	r2, #:lower16:11162626	@ tmp146,
	movt	r2, #:upper16:11162626	@ tmp146,
	ldrb	r4, [r0, r2]	@ zero_extendqisi2	@ <variable>.CurrSlice.bottom_field_flag, <variable>.CurrSlice.bottom_field_flag
	cmp	r4, #0	@ <variable>.CurrSlice.bottom_field_flag,
	movne	r4, #2	@ structure,
	moveq	r4, #1	@ structure,
.L210:
	movw	ip, #:lower16:11168624	@ tmp148,
	movt	ip, #:upper16:11168624	@ tmp148,
	ldr	r6, [r0, ip]	@ D.39106, <variable>.DPB.ltref_frames_in_buffer
	cmp	r6, #0	@ D.39106,
	beq	.L212	@,
	cmp	r4, #0	@ structure,
	movw	r5, #:lower16:11168548	@ ivtmp.1382,
	sub	r2, r6, #1	@ tmp166, D.39106,
	movt	r5, #:upper16:11168548	@ ivtmp.1382,
	add	r3, r0, r5	@ ivtmp.1382, pMvcCtx, ivtmp.1382
	and	r5, r2, #1	@ tmp168, tmp166,
	bne	.L220	@,
	ldr	r2, [r3, #0]	@ D.39071, <variable>.DPB.fs_ltref
	ldrb	r0, [r2, #2]	@ zero_extendqisi2	@ <variable>.is_reference, <variable>.is_reference
	cmp	r0, #3	@ <variable>.is_reference,
	bne	.L222	@,
	ldr	ip, [r2, #464]	@ tmp185,
	bic	r0, ip, #-16777216	@ tmp186, tmp185,
	bic	ip, r0, #255	@ tmp186, tmp186,
	cmp	ip, #256	@ tmp186,
	bne	.L222	@,
	ldr	r0, [r2, #472]	@ <variable>.frame.long_term_pic_num, <variable>.frame.long_term_pic_num
	cmp	r0, r1	@ <variable>.frame.long_term_pic_num, LongtermPicNum
	beq	.L239	@,
.L222:
	mov	ip, #1	@ i,
	cmp	r6, ip	@ D.39106, i
	add	r3, r3, #4	@ ivtmp.1382, ivtmp.1382,
	bls	.L212	@,
	cmp	r5, #0	@ tmp168,
	beq	.L217	@,
	cmp	r4, #0	@ structure,
	beq	.L240	@,
	ldr	r0, [r3, #0]	@ temp.1385, <variable>.DPB.fs_ltref
	ldrb	r2, [r0, #2]	@ zero_extendqisi2	@ D.39084, <variable>.is_reference
	tst	r2, #1	@ D.39084,
	beq	.L225	@,
	ldr	r5, [r0, #504]	@ tmp194,
	bic	r5, r5, #-16777216	@ tmp195, tmp194,
	bic	r5, r5, #255	@ tmp195, tmp195,
	cmp	r5, #256	@ tmp195,
	beq	.L244	@,
.L225:
	tst	r2, #2	@ D.39084,
	beq	.L226	@,
	ldr	r2, [r0, #544]	@ tmp191,
	bic	r2, r2, #-16777216	@ tmp192, tmp191,
	bic	r2, r2, #255	@ tmp192, tmp192,
	cmp	r2, #256	@ tmp192,
	bne	.L226	@,
	ldr	r2, [r0, #552]	@ <variable>.bottom_field.long_term_pic_num, <variable>.bottom_field.long_term_pic_num
	cmp	r2, r1	@ <variable>.bottom_field.long_term_pic_num, LongtermPicNum
	beq	.L237	@,
.L226:
	add	ip, ip, #1	@ i, i,
	add	r3, r3, #4	@ ivtmp.1382, ivtmp.1382,
	cmp	r6, ip	@ D.39106, i
	bhi	.L217	@,
.L212:
	mov	r0, #0	@ D.39082,
	ldmfd	sp, {r3, r4, r5, r6, fp, sp, pc}	@
.L220:
	ldr	r0, [r3, #0]	@ temp.1385, <variable>.DPB.fs_ltref
	ldrb	r2, [r0, #2]	@ zero_extendqisi2	@ D.39084, <variable>.is_reference
	tst	r2, #1	@ D.39084,
	beq	.L221	@,
	ldr	ip, [r0, #504]	@ tmp181,
	bic	ip, ip, #-16777216	@ tmp182, tmp181,
	bic	ip, ip, #255	@ tmp182, tmp182,
	cmp	ip, #256	@ tmp182,
	beq	.L245	@,
.L221:
	tst	r2, #2	@ D.39084,
	beq	.L222	@,
	ldr	ip, [r0, #544]	@ tmp178,
	bic	r2, ip, #-16777216	@ tmp179, tmp178,
	bic	ip, r2, #255	@ tmp179, tmp179,
	cmp	ip, #256	@ tmp179,
	bne	.L222	@,
	ldr	r2, [r0, #552]	@ <variable>.bottom_field.long_term_pic_num, <variable>.bottom_field.long_term_pic_num
	cmp	r2, r1	@ <variable>.bottom_field.long_term_pic_num, LongtermPicNum
	bne	.L222	@,
.L237:
	add	r0, r0, #544	@ D.39082, temp.1385,
	ldmfd	sp, {r3, r4, r5, r6, fp, sp, pc}	@
.L246:
	ldr	r2, [r3, #0]	@ D.39071, <variable>.DPB.fs_ltref
	ldrb	r0, [r2, #2]	@ zero_extendqisi2	@ <variable>.is_reference, <variable>.is_reference
	cmp	r0, #3	@ <variable>.is_reference,
	bne	.L214	@,
	ldr	r0, [r2, #464]	@ tmp153,
	bic	r0, r0, #-16777216	@ tmp151, tmp153,
	bic	r0, r0, #255	@ tmp151, tmp151,
	cmp	r0, #256	@ tmp151,
	bne	.L214	@,
	ldr	r0, [r2, #472]	@ <variable>.frame.long_term_pic_num, <variable>.frame.long_term_pic_num
	cmp	r0, r1	@ <variable>.frame.long_term_pic_num, LongtermPicNum
	beq	.L239	@,
.L214:
	cmp	r4, #0	@ structure,
	add	ip, ip, #1	@ tmp169, i,
	add	r5, r3, #4	@ tmp170, ivtmp.1382,
	bne	.L229	@,
.L248:
	ldr	r2, [r3, #4]	@ D.39071, <variable>.DPB.fs_ltref
	ldrb	r0, [r2, #2]	@ zero_extendqisi2	@ <variable>.is_reference, <variable>.is_reference
	cmp	r0, #3	@ <variable>.is_reference,
	bne	.L231	@,
	ldr	r3, [r2, #464]	@ tmp211,
	bic	r0, r3, #-16777216	@ tmp212, tmp211,
	bic	r3, r0, #255	@ tmp212, tmp212,
	cmp	r3, #256	@ tmp212,
	bne	.L231	@,
	ldr	r0, [r2, #472]	@ <variable>.frame.long_term_pic_num, <variable>.frame.long_term_pic_num
	cmp	r0, r1	@ <variable>.frame.long_term_pic_num, LongtermPicNum
	beq	.L239	@,
.L231:
	add	ip, ip, #1	@ i, tmp169,
	add	r3, r5, #4	@ ivtmp.1382, tmp170,
	cmp	r6, ip	@ D.39106, i
	bls	.L212	@,
.L217:
	cmp	r4, #0	@ structure,
	beq	.L246	@,
	ldr	r0, [r3, #0]	@ temp.1385, <variable>.DPB.fs_ltref
	ldrb	r2, [r0, #2]	@ zero_extendqisi2	@ D.39084, <variable>.is_reference
	tst	r2, #1	@ D.39084,
	beq	.L216	@,
	ldr	r5, [r0, #504]	@ tmp158,
	bic	r5, r5, #-16777216	@ tmp156, tmp158,
	bic	r5, r5, #255	@ tmp156, tmp156,
	cmp	r5, #256	@ tmp156,
	beq	.L247	@,
.L216:
	tst	r2, #2	@ D.39084,
	beq	.L214	@,
	ldr	r2, [r0, #544]	@ tmp163,
	bic	r2, r2, #-16777216	@ tmp161, tmp163,
	bic	r2, r2, #255	@ tmp161, tmp161,
	cmp	r2, #256	@ tmp161,
	bne	.L214	@,
	ldr	r2, [r0, #552]	@ <variable>.bottom_field.long_term_pic_num, <variable>.bottom_field.long_term_pic_num
	cmp	r2, r1	@ <variable>.bottom_field.long_term_pic_num, LongtermPicNum
	beq	.L237	@,
	cmp	r4, #0	@ structure,
	add	ip, ip, #1	@ tmp169, i,
	add	r5, r3, #4	@ tmp170, ivtmp.1382,
	beq	.L248	@,
.L229:
	ldr	r0, [r3, #4]	@ temp.1385, <variable>.DPB.fs_ltref
	ldrb	r3, [r0, #2]	@ zero_extendqisi2	@ D.39084, <variable>.is_reference
	tst	r3, #1	@ D.39084,
	beq	.L230	@,
	ldr	r2, [r0, #504]	@ tmp207,
	bic	r2, r2, #-16777216	@ tmp208, tmp207,
	bic	r2, r2, #255	@ tmp208, tmp208,
	cmp	r2, #256	@ tmp208,
	beq	.L249	@,
.L230:
	tst	r3, #2	@ D.39084,
	beq	.L231	@,
	ldr	r3, [r0, #544]	@ tmp204,
	bic	r2, r3, #-16777216	@ tmp205, tmp204,
	bic	r3, r2, #255	@ tmp205, tmp205,
	cmp	r3, #256	@ tmp205,
	bne	.L231	@,
	ldr	r2, [r0, #552]	@ <variable>.bottom_field.long_term_pic_num, <variable>.bottom_field.long_term_pic_num
	cmp	r2, r1	@ <variable>.bottom_field.long_term_pic_num, LongtermPicNum
	bne	.L231	@,
	b	.L237	@
.L247:
	ldr	r5, [r0, #512]	@ <variable>.top_field.long_term_pic_num, <variable>.top_field.long_term_pic_num
	cmp	r5, r1	@ <variable>.top_field.long_term_pic_num, LongtermPicNum
	bne	.L216	@,
.L238:
	add	r0, r0, #504	@ D.39082, temp.1385,
	ldmfd	sp, {r3, r4, r5, r6, fp, sp, pc}	@
.L249:
	ldr	r2, [r0, #512]	@ <variable>.top_field.long_term_pic_num, <variable>.top_field.long_term_pic_num
	cmp	r2, r1	@ <variable>.top_field.long_term_pic_num, LongtermPicNum
	bne	.L230	@,
	b	.L238	@
.L240:
	ldr	r2, [r3, #0]	@ D.39071, <variable>.DPB.fs_ltref
	ldrb	r0, [r2, #2]	@ zero_extendqisi2	@ <variable>.is_reference, <variable>.is_reference
	cmp	r0, #3	@ <variable>.is_reference,
	bne	.L226	@,
	ldr	r0, [r2, #464]	@ tmp198,
	bic	r0, r0, #-16777216	@ tmp199, tmp198,
	bic	r0, r0, #255	@ tmp199, tmp199,
	cmp	r0, #256	@ tmp199,
	bne	.L226	@,
	ldr	r0, [r2, #472]	@ <variable>.frame.long_term_pic_num, <variable>.frame.long_term_pic_num
	cmp	r0, r1	@ <variable>.frame.long_term_pic_num, LongtermPicNum
	bne	.L226	@,
.L239:
	add	r0, r2, #464	@ D.39082, D.39071,
	ldmfd	sp, {r3, r4, r5, r6, fp, sp, pc}	@
.L245:
	ldr	ip, [r0, #512]	@ <variable>.top_field.long_term_pic_num, <variable>.top_field.long_term_pic_num
	cmp	ip, r1	@ <variable>.top_field.long_term_pic_num, LongtermPicNum
	bne	.L221	@,
	b	.L238	@
.L244:
	ldr	r5, [r0, #512]	@ <variable>.top_field.long_term_pic_num, <variable>.top_field.long_term_pic_num
	cmp	r5, r1	@ <variable>.top_field.long_term_pic_num, LongtermPicNum
	bne	.L225	@,
	b	.L238	@
	.fnend
	.size	MVC_GetLongTermPicPoint, .-MVC_GetLongTermPicPoint
	.align	2
	.global	MVC_ReorderSTList
	.type	MVC_ReorderSTList, %function
MVC_ReorderSTList:
	.fnstart
.LFB1570:
	@ args = 8, pretend = 0, frame = 0
	@ frame_needed = 1, uses_anonymous_args = 0
	.movsp ip
	mov	ip, sp	@,
	stmfd	sp!, {r4, r5, r6, r7, r8, sl, fp, ip, lr, pc}	@,
	.pad #4
	.save {r4, r5, r6, r7, r8, sl, fp, ip, lr}
	.setfp fp, ip, #-4
	sub	fp, ip, #4	@,,
	push	{lr}
	bl	__gnu_mcount_nc
	ldr	r4, [fp, #4]	@ refIdxLX, refIdxLX
	mov	r6, r3	@ picNumLX, picNumLX
	add	r5, r1, r1, asl #5	@, tmp159, listidx, listidx,
	add	r1, r0, #11141120	@ tmp155, pMvcCtx,
	mov	r7, r2	@ num_ref_idx_lX_active_minus1, num_ref_idx_lX_active_minus1
	add	r3, r1, #27904	@ tmp155, tmp155,
	mov	r1, r6	@, picNumLX
	add	r5, r3, r5, asl #2	@, RefPicListX, tmp155, tmp159,
	ldr	r8, [fp, #8]	@ CurrViewId, CurrViewId
	bl	MVC_GetShortTermPicPoint	@
	ldr	r3, [r4, #0]	@ D.39137,* refIdxLX
	add	ip, r7, #1	@ cIdx, num_ref_idx_lX_active_minus1,
	cmp	ip, r3	@ cIdx, D.39137
	ble	.L251	@,
	add	r1, r5, ip, asl #2	@, ivtmp.1432, RefPicListX, cIdx,
	add	r2, r5, r7, asl #2	@, ivtmp.1430, RefPicListX, ivtmp.1427,
.L252:
	ldr	lr, [r2], #-4	@ tmp163,
	mov	sl, r7	@ cIdx.1434, ivtmp.1427
	sub	r7, r7, #1	@ ivtmp.1427, ivtmp.1427,
	str	lr, [r1], #-4	@ tmp163,
	ldr	r3, [r4, #0]	@ D.39137,* refIdxLX
	cmp	r3, sl	@ D.39137, cIdx.1434
	blt	.L252	@,
.L251:
	add	r1, r3, #1	@ cIdx.1433, D.39137,
	str	r0, [r5, r3, asl #2]	@ picLX,* RefPicListX
	cmp	ip, r1	@ cIdx, cIdx.1433
	str	r1, [r4, #0]	@ cIdx.1433,* refIdxLX
	ldmltfd	sp, {r4, r5, r6, r7, r8, sl, fp, sp, pc}	@
	add	r2, r5, r1, asl #2	@, ivtmp.1423, RefPicListX, cIdx.1433,
	rsb	r0, r1, ip	@ tmp169, cIdx.1433, cIdx
	and	r4, r0, #1	@ tmp170, tmp169,
	mov	r3, r1	@ nIdx, cIdx.1433
	ldr	r0, [r2, #0]	@ D.39142,* ivtmp.1423
	cmp	r0, #0	@ D.39142,
	beq	.L260	@,
	ldrb	r7, [r0, #1]	@ zero_extendqisi2	@ <variable>.is_long_term, <variable>.is_long_term
	cmp	r7, #0	@ <variable>.is_long_term,
	beq	.L273	@,
.L261:
	add	r3, r1, #1	@ nIdx, cIdx.1433,
	str	r0, [r5, r1, asl #2]	@ D.39142,* RefPicListX
.L260:
	add	r0, r1, #1	@ cIdx.1433, cIdx.1433,
	add	r2, r2, #4	@ ivtmp.1423, ivtmp.1423,
	cmp	ip, r0	@ cIdx, cIdx.1433
	ldmltfd	sp, {r4, r5, r6, r7, r8, sl, fp, sp, pc}	@
	cmp	r4, #0	@ tmp170,
	beq	.L256	@,
	ldr	r1, [r2, #0]	@ D.39142,* ivtmp.1423
	cmp	r1, #0	@ D.39142,
	beq	.L263	@,
	ldrb	r4, [r1, #1]	@ zero_extendqisi2	@ <variable>.is_long_term, <variable>.is_long_term
	cmp	r4, #0	@ <variable>.is_long_term,
	beq	.L274	@,
.L264:
	str	r1, [r5, r3, asl #2]	@ D.39142,* RefPicListX
	add	r3, r3, #1	@ nIdx, nIdx,
.L263:
	add	r0, r0, #1	@ cIdx.1433, cIdx.1433,
	add	r2, r2, #4	@ ivtmp.1423, ivtmp.1423,
	cmp	ip, r0	@ cIdx, cIdx.1433
	bge	.L256	@,
	ldmfd	sp, {r4, r5, r6, r7, r8, sl, fp, sp, pc}	@
.L279:
	ldr	r4, [r1, #4]	@ <variable>.frame_store, <variable>.frame_store
	ldr	r4, [r4, #644]	@ <variable>.view_id, <variable>.view_id
	cmp	r4, r8	@ <variable>.view_id, CurrViewId
	beq	.L254	@,
.L255:
	str	r1, [r5, r3, asl #2]	@ D.39142,* RefPicListX
	add	r3, r3, #1	@ nIdx, nIdx,
.L254:
	ldr	r1, [r2, #4]	@ D.39142,
	add	r0, r0, #1	@ tmp171, cIdx.1433,
	add	r2, r2, #4	@ tmp172, ivtmp.1423,
	cmp	r1, #0	@ D.39142,
	beq	.L267	@,
	ldrb	r4, [r1, #1]	@ zero_extendqisi2	@ <variable>.is_long_term, <variable>.is_long_term
	cmp	r4, #0	@ <variable>.is_long_term,
	bne	.L268	@,
	ldr	r4, [r1, #12]	@ <variable>.pic_num, <variable>.pic_num
	cmp	r4, r6	@ <variable>.pic_num, picNumLX
	beq	.L276	@,
.L268:
	str	r1, [r5, r3, asl #2]	@ D.39142,* RefPicListX
	add	r3, r3, #1	@ nIdx, nIdx,
.L267:
	add	r0, r0, #1	@ cIdx.1433, tmp171,
	add	r2, r2, #4	@ ivtmp.1423, tmp172,
	cmp	ip, r0	@ cIdx, cIdx.1433
	blt	.L277	@,
.L256:
	ldr	r1, [r2, #0]	@ D.39142,* ivtmp.1423
	cmp	r1, #0	@ D.39142,
	beq	.L254	@,
	ldrb	r4, [r1, #1]	@ zero_extendqisi2	@ <variable>.is_long_term, <variable>.is_long_term
	cmp	r4, #0	@ <variable>.is_long_term,
	bne	.L255	@,
	ldr	r4, [r1, #12]	@ <variable>.pic_num, <variable>.pic_num
	cmp	r4, r6	@ <variable>.pic_num, picNumLX
	bne	.L255	@,
	b	.L279	@
.L273:
	ldr	r7, [r0, #12]	@ <variable>.pic_num, <variable>.pic_num
	cmp	r7, r6	@ <variable>.pic_num, picNumLX
	bne	.L261	@,
	ldr	r7, [r0, #4]	@ <variable>.frame_store, <variable>.frame_store
	ldr	r7, [r7, #644]	@ <variable>.view_id, <variable>.view_id
	cmp	r7, r8	@ <variable>.view_id, CurrViewId
	bne	.L261	@,
	b	.L260	@
.L274:
	ldr	r4, [r1, #12]	@ <variable>.pic_num, <variable>.pic_num
	cmp	r4, r6	@ <variable>.pic_num, picNumLX
	bne	.L264	@,
	ldr	lr, [r1, #4]	@ <variable>.frame_store, <variable>.frame_store
	ldr	r4, [lr, #644]	@ <variable>.view_id, <variable>.view_id
	cmp	r4, r8	@ <variable>.view_id, CurrViewId
	bne	.L264	@,
	b	.L263	@
.L276:
	ldr	r4, [r1, #4]	@ <variable>.frame_store, <variable>.frame_store
	ldr	r4, [r4, #644]	@ <variable>.view_id, <variable>.view_id
	cmp	r4, r8	@ <variable>.view_id, CurrViewId
	bne	.L268	@,
	add	r0, r0, #1	@ cIdx.1433, tmp171,
	add	r2, r2, #4	@ ivtmp.1423, tmp172,
	cmp	ip, r0	@ cIdx, cIdx.1433
	bge	.L256	@,
.L277:
	ldmfd	sp, {r4, r5, r6, r7, r8, sl, fp, sp, pc}	@
	.fnend
	.size	MVC_ReorderSTList, .-MVC_ReorderSTList
	.align	2
	.global	MVC_ReorderLTList
	.type	MVC_ReorderLTList, %function
MVC_ReorderLTList:
	.fnstart
.LFB1571:
	@ args = 8, pretend = 0, frame = 0
	@ frame_needed = 1, uses_anonymous_args = 0
	.movsp ip
	mov	ip, sp	@,
	stmfd	sp!, {r4, r5, r6, r7, r8, sl, fp, ip, lr, pc}	@,
	.pad #4
	.save {r4, r5, r6, r7, r8, sl, fp, ip, lr}
	.setfp fp, ip, #-4
	sub	fp, ip, #4	@,,
	push	{lr}
	bl	__gnu_mcount_nc
	ldr	r4, [fp, #4]	@ refIdxLX, refIdxLX
	mov	r6, r3	@ LongTermPicNum, LongTermPicNum
	add	r5, r1, r1, asl #5	@, tmp155, listidx, listidx,
	add	r1, r0, #11141120	@ tmp151, pMvcCtx,
	mov	r7, r2	@ num_ref_idx_lX_active_minus1, num_ref_idx_lX_active_minus1
	add	r3, r1, #27904	@ tmp151, tmp151,
	mov	r1, r6	@, LongTermPicNum
	add	r5, r3, r5, asl #2	@, RefPicListX, tmp151, tmp155,
	ldr	r8, [fp, #8]	@ CurrViewId, CurrViewId
	bl	MVC_GetLongTermPicPoint	@
	ldr	r3, [r4, #0]	@ D.39187,* refIdxLX
	add	ip, r7, #1	@ cIdx, num_ref_idx_lX_active_minus1,
	cmp	ip, r3	@ cIdx, D.39187
	ble	.L281	@,
	add	r1, r5, ip, asl #2	@, ivtmp.1480, RefPicListX, cIdx,
	add	r2, r5, r7, asl #2	@, ivtmp.1478, RefPicListX, ivtmp.1475,
.L282:
	ldr	lr, [r2], #-4	@ tmp159,
	mov	sl, r7	@ cIdx.1482, ivtmp.1475
	sub	r7, r7, #1	@ ivtmp.1475, ivtmp.1475,
	str	lr, [r1], #-4	@ tmp159,
	ldr	r3, [r4, #0]	@ D.39187,* refIdxLX
	cmp	r3, sl	@ D.39187, cIdx.1482
	blt	.L282	@,
.L281:
	add	r1, r3, #1	@ cIdx.1481, D.39187,
	str	r0, [r5, r3, asl #2]	@ picLX,* RefPicListX
	cmp	ip, r1	@ cIdx, cIdx.1481
	str	r1, [r4, #0]	@ cIdx.1481,* refIdxLX
	ldmltfd	sp, {r4, r5, r6, r7, r8, sl, fp, sp, pc}	@
	add	r2, r5, r1, asl #2	@, ivtmp.1471, RefPicListX, cIdx.1481,
	rsb	r0, r1, ip	@ tmp165, cIdx.1481, cIdx
	and	r4, r0, #1	@ tmp166, tmp165,
	mov	r3, r1	@ nIdx, cIdx.1481
	ldr	r0, [r2, #0]	@ D.39192,* ivtmp.1471
	cmp	r0, #0	@ D.39192,
	beq	.L290	@,
	ldrb	r7, [r0, #1]	@ zero_extendqisi2	@ <variable>.is_long_term, <variable>.is_long_term
	cmp	r7, #0	@ <variable>.is_long_term,
	bne	.L303	@,
.L291:
	add	r3, r1, #1	@ nIdx, cIdx.1481,
	str	r0, [r5, r1, asl #2]	@ D.39192,* RefPicListX
.L290:
	add	r0, r1, #1	@ cIdx.1481, cIdx.1481,
	add	r2, r2, #4	@ ivtmp.1471, ivtmp.1471,
	cmp	ip, r0	@ cIdx, cIdx.1481
	ldmltfd	sp, {r4, r5, r6, r7, r8, sl, fp, sp, pc}	@
	cmp	r4, #0	@ tmp166,
	beq	.L286	@,
	ldr	r1, [r2, #0]	@ D.39192,* ivtmp.1471
	cmp	r1, #0	@ D.39192,
	beq	.L293	@,
	ldrb	r4, [r1, #1]	@ zero_extendqisi2	@ <variable>.is_long_term, <variable>.is_long_term
	cmp	r4, #0	@ <variable>.is_long_term,
	bne	.L304	@,
.L294:
	str	r1, [r5, r3, asl #2]	@ D.39192,* RefPicListX
	add	r3, r3, #1	@ nIdx, nIdx,
.L293:
	add	r0, r0, #1	@ cIdx.1481, cIdx.1481,
	add	r2, r2, #4	@ ivtmp.1471, ivtmp.1471,
	cmp	ip, r0	@ cIdx, cIdx.1481
	bge	.L286	@,
	ldmfd	sp, {r4, r5, r6, r7, r8, sl, fp, sp, pc}	@
.L309:
	ldr	r4, [r1, #4]	@ <variable>.frame_store, <variable>.frame_store
	ldr	r4, [r4, #644]	@ <variable>.view_id, <variable>.view_id
	cmp	r4, r8	@ <variable>.view_id, CurrViewId
	beq	.L284	@,
.L285:
	str	r1, [r5, r3, asl #2]	@ D.39192,* RefPicListX
	add	r3, r3, #1	@ nIdx, nIdx,
.L284:
	ldr	r1, [r2, #4]	@ D.39192,
	add	r0, r0, #1	@ tmp167, cIdx.1481,
	add	r2, r2, #4	@ tmp168, ivtmp.1471,
	cmp	r1, #0	@ D.39192,
	beq	.L297	@,
	ldrb	r4, [r1, #1]	@ zero_extendqisi2	@ <variable>.is_long_term, <variable>.is_long_term
	cmp	r4, #0	@ <variable>.is_long_term,
	beq	.L298	@,
	ldr	r4, [r1, #8]	@ <variable>.long_term_pic_num, <variable>.long_term_pic_num
	cmp	r4, r6	@ <variable>.long_term_pic_num, LongTermPicNum
	beq	.L306	@,
.L298:
	str	r1, [r5, r3, asl #2]	@ D.39192,* RefPicListX
	add	r3, r3, #1	@ nIdx, nIdx,
.L297:
	add	r0, r0, #1	@ cIdx.1481, tmp167,
	add	r2, r2, #4	@ ivtmp.1471, tmp168,
	cmp	ip, r0	@ cIdx, cIdx.1481
	blt	.L307	@,
.L286:
	ldr	r1, [r2, #0]	@ D.39192,* ivtmp.1471
	cmp	r1, #0	@ D.39192,
	beq	.L284	@,
	ldrb	r4, [r1, #1]	@ zero_extendqisi2	@ <variable>.is_long_term, <variable>.is_long_term
	cmp	r4, #0	@ <variable>.is_long_term,
	beq	.L285	@,
	ldr	r4, [r1, #8]	@ <variable>.long_term_pic_num, <variable>.long_term_pic_num
	cmp	r4, r6	@ <variable>.long_term_pic_num, LongTermPicNum
	bne	.L285	@,
	b	.L309	@
.L303:
	ldr	r7, [r0, #8]	@ <variable>.long_term_pic_num, <variable>.long_term_pic_num
	cmp	r7, r6	@ <variable>.long_term_pic_num, LongTermPicNum
	bne	.L291	@,
	ldr	r7, [r0, #4]	@ <variable>.frame_store, <variable>.frame_store
	ldr	r7, [r7, #644]	@ <variable>.view_id, <variable>.view_id
	cmp	r7, r8	@ <variable>.view_id, CurrViewId
	bne	.L291	@,
	b	.L290	@
.L304:
	ldr	r4, [r1, #8]	@ <variable>.long_term_pic_num, <variable>.long_term_pic_num
	cmp	r4, r6	@ <variable>.long_term_pic_num, LongTermPicNum
	bne	.L294	@,
	ldr	lr, [r1, #4]	@ <variable>.frame_store, <variable>.frame_store
	ldr	r4, [lr, #644]	@ <variable>.view_id, <variable>.view_id
	cmp	r4, r8	@ <variable>.view_id, CurrViewId
	bne	.L294	@,
	b	.L293	@
.L306:
	ldr	r4, [r1, #4]	@ <variable>.frame_store, <variable>.frame_store
	ldr	r4, [r4, #644]	@ <variable>.view_id, <variable>.view_id
	cmp	r4, r8	@ <variable>.view_id, CurrViewId
	bne	.L298	@,
	add	r0, r0, #1	@ cIdx.1481, tmp167,
	add	r2, r2, #4	@ ivtmp.1471, tmp168,
	cmp	ip, r0	@ cIdx, cIdx.1481
	bge	.L286	@,
.L307:
	ldmfd	sp, {r4, r5, r6, r7, r8, sl, fp, sp, pc}	@
	.fnend
	.size	MVC_ReorderLTList, .-MVC_ReorderLTList
	.align	2
	.global	MVC_GetMaxViewIdx
	.type	MVC_GetMaxViewIdx, %function
MVC_GetMaxViewIdx:
	.fnstart
.LFB1572:
	@ args = 0, pretend = 0, frame = 0
	@ frame_needed = 1, uses_anonymous_args = 0
	.movsp ip
	mov	ip, sp	@,
	stmfd	sp!, {r4, r5, r6, r7, fp, ip, lr, pc}	@,
	.pad #4
	.save {r4, r5, r6, r7, fp, ip, lr}
	.setfp fp, ip, #-4
	sub	fp, ip, #4	@,,
	push	{lr}
	bl	__gnu_mcount_nc
	movw	ip, #:lower16:10818504	@ tmp143,
	movt	ip, #:upper16:10818504	@ tmp143,
	ldr	ip, [r0, ip]	@ <variable>.CurrSUBSPS.num_views_minus1, <variable>.CurrSUBSPS.num_views_minus1
	adds	r7, ip, #1	@ D.39217, <variable>.CurrSUBSPS.num_views_minus1,
	beq	.L311	@,
	movw	r4, #:lower16:10818508	@ tmp145,
	movt	r4, #:upper16:10818508	@ tmp145,
	ldr	r4, [r0, r4]	@ <variable>.CurrSUBSPS.view_id, <variable>.CurrSUBSPS.view_id
	cmp	r1, r4	@ CurrViewId, <variable>.CurrSUBSPS.view_id
	beq	.L311	@,
	tst	ip, #1	@ <variable>.CurrSUBSPS.num_views_minus1,
	movw	r5, #:lower16:10818512	@ ivtmp.1510,
	movt	r5, #:upper16:10818512	@ ivtmp.1510,
	mov	ip, #0	@ VOIdx,
	add	r4, r0, r5	@ ivtmp.1510, pMvcCtx, ivtmp.1510
	beq	.L312	@,
	ldr	r5, [r4], #4	@ D.46204, <variable>.CurrSUBSPS.view_id
	mov	ip, #1	@ VOIdx,
	cmp	r1, r5	@ CurrViewId, D.46204
	bne	.L312	@,
.L313:
	cmp	r2, #0	@ anchor_pic_flag,
	bne	.L323	@,
.L315:
	add	r3, ip, r3, asl #1	@, tmp157, VOIdx, listidx,
	movw	ip, #:lower16:2704636	@ tmp158,
	movt	ip, #:upper16:2704636	@ tmp158,
	add	r1, r3, ip	@ tmp158, tmp157, tmp158
	add	r2, r0, r1, asl #2	@, tmp162, pMvcCtx, tmp158,
	ldr	r0, [r2, #4]	@ maxViewIdx, <variable>.CurrSUBSPS.num_non_anchor_refs
	ldmfd	sp, {r4, r5, r6, r7, fp, sp, pc}	@
.L314:
	ldr	r6, [r5], #4	@ D.46204, <variable>.CurrSUBSPS.view_id
	cmp	r1, r6	@ CurrViewId, D.46204
	beq	.L313	@,
	ldr	r6, [r4, #4]	@ D.46204, <variable>.CurrSUBSPS.view_id
	add	ip, ip, #1	@ VOIdx, VOIdx,
	add	r4, r5, #4	@ ivtmp.1510, tmp169,
	cmp	r1, r6	@ CurrViewId, D.46204
	beq	.L313	@,
.L312:
	add	ip, ip, #1	@ VOIdx, VOIdx,
	mov	r5, r4	@ tmp169, ivtmp.1510
	cmp	r7, ip	@ D.39217, VOIdx
	bhi	.L314	@,
	cmp	r2, #0	@ anchor_pic_flag,
	beq	.L315	@,
.L323:
	add	r3, ip, r3, asl #1	@, tmp149, VOIdx, listidx,
	movw	ip, #:lower16:2704628	@ tmp150,
	movt	ip, #:upper16:2704628	@ tmp150,
	add	r1, r3, ip	@ tmp150, tmp149, tmp150
	add	r2, r0, r1, asl #2	@, tmp154, pMvcCtx, tmp150,
	ldr	r0, [r2, #4]	@ maxViewIdx, <variable>.CurrSUBSPS.num_anchor_refs
	ldmfd	sp, {r4, r5, r6, r7, fp, sp, pc}	@
.L311:
	mov	ip, #0	@ VOIdx,
	b	.L313	@
	.fnend
	.size	MVC_GetMaxViewIdx, .-MVC_GetMaxViewIdx
	.align	2
	.global	mvc_get_inter_view_pic
	.type	mvc_get_inter_view_pic, %function
mvc_get_inter_view_pic:
	.fnstart
.LFB1573:
	@ args = 0, pretend = 0, frame = 0
	@ frame_needed = 1, uses_anonymous_args = 0
	.movsp ip
	mov	ip, sp	@,
	stmfd	sp!, {r4, r5, r6, r7, fp, ip, lr, pc}	@,
	.pad #4
	.save {r4, r5, r6, r7, fp, ip, lr}
	.setfp fp, ip, #-4
	sub	fp, ip, #4	@,,
	push	{lr}
	bl	__gnu_mcount_nc
	movw	r5, #:lower16:2791074	@ tmp151,
	movt	r5, #:upper16:2791074	@ tmp151,
	movw	r4, #:lower16:11152056	@ tmp147,
	add	ip, r3, r5	@ tmp151, listidx, tmp151
	movt	r4, #:upper16:11152056	@ tmp147,
	add	r4, r0, r4	@ tmp147, pMvcCtx, tmp147
	mov	r5, #1344	@ tmp150,
	ldr	ip, [r0, ip, asl #2]	@ interviewlistsize, <variable>.CurrSlice.interviewlistXsize
	mla	r3, r5, r3, r4	@ fs_interviewlist, tmp150, listidx, tmp147
	cmp	ip, #0	@ interviewlistsize,
	beq	.L325	@,
	ldr	r4, [r3, #644]	@ <variable>.view_id, <variable>.view_id
	sub	r6, ip, #1	@ tmp160, interviewlistsize,
	and	r7, r6, #1	@ tmp162, tmp160,
	movw	r6, #:lower16:11196171	@ tmp159,
	cmp	r4, r1	@ <variable>.view_id, targetViewID
	movt	r6, #:upper16:11196171	@ tmp159,
	mov	r4, r3	@ ivtmp.1545, fs_interviewlist
	bne	.L333	@,
	ldrb	r5, [r0, r6]	@ zero_extendqisi2	@ D.39251, <variable>.CurrPic.structure
	cmp	r5, #0	@ D.39251,
	beq	.L349	@,
	cmp	r5, #1	@ D.39251,
	bne	.L359	@,
	ldr	r5, [r3, #524]	@ <variable>.top_field.MVC_DecPOC, <variable>.top_field.MVC_DecPOC
	cmp	r5, r2	@ <variable>.top_field.MVC_DecPOC, currPOC
	beq	.L352	@,
.L333:
	mov	r5, #1	@ i,
	cmp	ip, r5	@ interviewlistsize, i
	add	r4, r3, #672	@ ivtmp.1545, fs_interviewlist,
	bls	.L325	@,
	cmp	r7, #0	@ tmp162,
	beq	.L330	@,
	ldr	r3, [r4, #644]	@ <variable>.view_id, <variable>.view_id
	cmp	r3, r1	@ <variable>.view_id, targetViewID
	bne	.L337	@,
	ldrb	r3, [r0, r6]	@ zero_extendqisi2	@ D.39251, <variable>.CurrPic.structure
	cmp	r3, #0	@ D.39251,
	beq	.L354	@,
	cmp	r3, r5	@ D.39251,
	bne	.L360	@,
	ldr	r3, [r4, #524]	@ <variable>.top_field.MVC_DecPOC, <variable>.top_field.MVC_DecPOC
	cmp	r3, r2	@ <variable>.top_field.MVC_DecPOC, currPOC
	beq	.L352	@,
.L337:
	add	r5, r5, #1	@ i, i,
	add	r4, r4, #672	@ ivtmp.1545, ivtmp.1545,
	cmp	ip, r5	@ interviewlistsize, i
	bhi	.L330	@,
.L325:
	mov	r0, #0	@ D.39255,
	ldmfd	sp, {r4, r5, r6, r7, fp, sp, pc}	@
.L362:
	ldr	r3, [r4, #484]	@ <variable>.frame.MVC_DecPOC, <variable>.frame.MVC_DecPOC
	cmp	r3, r2	@ <variable>.frame.MVC_DecPOC, currPOC
	beq	.L353	@,
.L326:
	add	r4, r4, #672	@ ivtmp.1545, ivtmp.1545,
	add	r5, r5, #1	@ tmp163, i,
	ldr	r3, [r4, #644]	@ <variable>.view_id, <variable>.view_id
	mov	r7, r4	@ tmp164, ivtmp.1545
	cmp	r3, r1	@ <variable>.view_id, targetViewID
	bne	.L342	@,
	ldrb	r3, [r0, r6]	@ zero_extendqisi2	@ D.39251, <variable>.CurrPic.structure
	cmp	r3, #0	@ D.39251,
	beq	.L356	@,
	cmp	r3, #1	@ D.39251,
	bne	.L361	@,
	ldr	r3, [r4, #524]	@ <variable>.top_field.MVC_DecPOC, <variable>.top_field.MVC_DecPOC
	cmp	r3, r2	@ <variable>.top_field.MVC_DecPOC, currPOC
	beq	.L352	@,
.L342:
	add	r5, r5, #1	@ i, tmp163,
	add	r4, r7, #672	@ ivtmp.1545, tmp164,
	cmp	ip, r5	@ interviewlistsize, i
	bls	.L325	@,
.L330:
	ldr	r3, [r4, #644]	@ <variable>.view_id, <variable>.view_id
	cmp	r3, r1	@ <variable>.view_id, targetViewID
	bne	.L326	@,
	ldrb	r3, [r0, r6]	@ zero_extendqisi2	@ D.39251, <variable>.CurrPic.structure
	cmp	r3, #0	@ D.39251,
	beq	.L362	@,
	cmp	r3, #1	@ D.39251,
	bne	.L329	@,
	ldr	r3, [r4, #524]	@ <variable>.top_field.MVC_DecPOC, <variable>.top_field.MVC_DecPOC
	cmp	r3, r2	@ <variable>.top_field.MVC_DecPOC, currPOC
	bne	.L326	@,
.L352:
	add	r0, r4, #504	@ D.39255, ivtmp.1545,
	ldmfd	sp, {r4, r5, r6, r7, fp, sp, pc}	@
.L356:
	ldr	r3, [r4, #484]	@ <variable>.frame.MVC_DecPOC, <variable>.frame.MVC_DecPOC
	cmp	r3, r2	@ <variable>.frame.MVC_DecPOC, currPOC
	bne	.L342	@,
.L353:
	add	r0, r4, #464	@ D.39255, ivtmp.1545,
	ldmfd	sp, {r4, r5, r6, r7, fp, sp, pc}	@
.L329:
	cmp	r3, #2	@ D.39251,
	bne	.L326	@,
	ldr	r3, [r4, #564]	@ <variable>.bottom_field.MVC_DecPOC, <variable>.bottom_field.MVC_DecPOC
	cmp	r3, r2	@ <variable>.bottom_field.MVC_DecPOC, currPOC
	bne	.L326	@,
.L351:
	add	r0, r4, #544	@ D.39255, ivtmp.1545,
	ldmfd	sp, {r4, r5, r6, r7, fp, sp, pc}	@
.L361:
	cmp	r3, #2	@ D.39251,
	bne	.L342	@,
	ldr	r3, [r4, #564]	@ <variable>.bottom_field.MVC_DecPOC, <variable>.bottom_field.MVC_DecPOC
	cmp	r3, r2	@ <variable>.bottom_field.MVC_DecPOC, currPOC
	bne	.L342	@,
	add	r0, r4, #544	@ D.39255, ivtmp.1545,
	ldmfd	sp, {r4, r5, r6, r7, fp, sp, pc}	@
.L349:
	ldr	r5, [r3, #484]	@ <variable>.frame.MVC_DecPOC, <variable>.frame.MVC_DecPOC
	cmp	r5, r2	@ <variable>.frame.MVC_DecPOC, currPOC
	bne	.L333	@,
	b	.L353	@
.L354:
	ldr	r3, [r4, #484]	@ <variable>.frame.MVC_DecPOC, <variable>.frame.MVC_DecPOC
	cmp	r3, r2	@ <variable>.frame.MVC_DecPOC, currPOC
	beq	.L353	@,
	add	r5, r5, #1	@ i, i,
	add	r4, r4, #672	@ ivtmp.1545, ivtmp.1545,
	cmp	ip, r5	@ interviewlistsize, i
	bhi	.L330	@,
	b	.L325	@
.L359:
	cmp	r5, #2	@ D.39251,
	bne	.L333	@,
	ldr	r5, [r3, #564]	@ <variable>.bottom_field.MVC_DecPOC, <variable>.bottom_field.MVC_DecPOC
	cmp	r5, r2	@ <variable>.bottom_field.MVC_DecPOC, currPOC
	bne	.L333	@,
	b	.L351	@
.L360:
	cmp	r3, #2	@ D.39251,
	bne	.L337	@,
	ldr	r3, [r4, #564]	@ <variable>.bottom_field.MVC_DecPOC, <variable>.bottom_field.MVC_DecPOC
	cmp	r3, r2	@ <variable>.bottom_field.MVC_DecPOC, currPOC
	beq	.L351	@,
	add	r5, r5, #1	@ i, i,
	add	r4, r4, #672	@ ivtmp.1545, ivtmp.1545,
	cmp	ip, r5	@ interviewlistsize, i
	bhi	.L330	@,
	b	.L325	@
	.fnend
	.size	mvc_get_inter_view_pic, .-mvc_get_inter_view_pic
	.align	2
	.global	mvc_reorder_interview
	.type	mvc_reorder_interview, %function
mvc_reorder_interview:
	.fnstart
.LFB1574:
	@ args = 8, pretend = 0, frame = 0
	@ frame_needed = 1, uses_anonymous_args = 0
	.movsp ip
	mov	ip, sp	@,
	stmfd	sp!, {r4, r5, r6, r7, r8, sl, fp, ip, lr, pc}	@,
	.pad #4
	.save {r4, r5, r6, r7, r8, sl, fp, ip, lr}
	.setfp fp, ip, #-4
	sub	fp, ip, #4	@,,
	push	{lr}
	bl	__gnu_mcount_nc
	ldmib	fp, {r7, r8}	@ phole ldm
	mov	r6, r3	@ targetViewID, targetViewID
	mov	r4, r1	@ num_ref_idx_lX_active_minus1, num_ref_idx_lX_active_minus1
	mov	r5, r2	@ refIdxLX, refIdxLX
	mov	r1, r3	@, targetViewID
	mov	r2, r7	@, currpoc
	mov	r3, r8	@, listidx
	mov	sl, r0	@ pMvcCtx, pMvcCtx
	bl	mvc_get_inter_view_pic	@
	cmp	r0, #0	@ picLX
	ldmeqfd	sp, {r4, r5, r6, r7, r8, sl, fp, sp, pc}	@
	ldr	r3, [r5, #0]	@ D.39295,* refIdxLX
	add	ip, r4, #1	@ cIdx, num_ref_idx_lX_active_minus1,
	add	sl, sl, #11141120	@ tmp150, pMvcCtx,
	add	r8, r8, r8, asl #5	@, tmp154, listidx, listidx,
	cmp	ip, r3	@ cIdx, D.39295
	add	sl, sl, #27904	@ tmp150, tmp150,
	add	r8, sl, r8, asl #2	@, list, tmp150, tmp154,
	bls	.L365	@,
	add	r1, r8, r4, asl #2	@, ivtmp.1592, list, num_ref_idx_lX_active_minus1,
	add	r2, r8, ip, asl #2	@, ivtmp.1594, list, cIdx,
.L366:
	ldr	r3, [r1], #-4	@ tmp158,
	sub	sl, r4, #1	@ num_ref_idx_lX_active_minus1.1596, num_ref_idx_lX_active_minus1,
	str	r3, [r2], #-4	@ tmp158,
	ldr	r3, [r5, #0]	@ D.39295,* refIdxLX
	cmp	r3, r4	@ D.39295, num_ref_idx_lX_active_minus1
	mov	r4, sl	@ num_ref_idx_lX_active_minus1, num_ref_idx_lX_active_minus1.1596
	bcc	.L366	@,
.L365:
	add	r1, r3, #1	@ cIdx.1595, D.39295,
	str	r0, [r8, r3, asl #2]	@ picLX,* list
	cmp	ip, r1	@ cIdx, cIdx.1595
	str	r1, [r5, #0]	@ cIdx.1595,* refIdxLX
	ldmccfd	sp, {r4, r5, r6, r7, r8, sl, fp, sp, pc}	@
	add	r2, r8, r1, asl #2	@, ivtmp.1585, list, cIdx.1595,
	rsb	r0, r1, ip	@ tmp163, cIdx.1595, cIdx
	and	r4, r0, #1	@ tmp164, tmp163,
	mov	r3, r1	@ nIdx, cIdx.1595
	ldr	r0, [r2, #0]	@ D.39301,* ivtmp.1585
	cmp	r0, #0	@ D.39301,
	beq	.L372	@,
	ldr	lr, [r0, #4]	@ <variable>.frame_store, <variable>.frame_store
	ldr	r5, [lr, #644]	@ <variable>.view_id, <variable>.view_id
	cmp	r5, r6	@ <variable>.view_id, targetViewID
	beq	.L386	@,
.L372:
	add	r3, r1, #1	@ nIdx, cIdx.1595,
	str	r0, [r8, r1, asl #2]	@ D.39301,* list
.L373:
	add	r1, r1, #1	@ cIdx.1595, cIdx.1595,
	add	r2, r2, #4	@ ivtmp.1585, ivtmp.1585,
	cmp	ip, r1	@ cIdx, cIdx.1595
	ldmccfd	sp, {r4, r5, r6, r7, r8, sl, fp, sp, pc}	@
	cmp	r4, #0	@ tmp164,
	beq	.L369	@,
	ldr	r0, [r2, #0]	@ D.39301,* ivtmp.1585
	cmp	r0, #0	@ D.39301,
	beq	.L375	@,
	ldr	r4, [r0, #4]	@ <variable>.frame_store, <variable>.frame_store
	ldr	r4, [r4, #644]	@ <variable>.view_id, <variable>.view_id
	cmp	r4, r6	@ <variable>.view_id, targetViewID
	beq	.L387	@,
.L375:
	str	r0, [r8, r3, asl #2]	@ D.39301,* list
	add	r3, r3, #1	@ nIdx, nIdx,
.L376:
	add	r1, r1, #1	@ cIdx.1595, cIdx.1595,
	add	r2, r2, #4	@ ivtmp.1585, ivtmp.1585,
	cmp	ip, r1	@ cIdx, cIdx.1595
	ldmccfd	sp, {r4, r5, r6, r7, r8, sl, fp, sp, pc}	@
	ldr	r0, [r2, #0]	@ D.39301,* ivtmp.1585
	add	r1, r1, #1	@ tmp165, cIdx.1595,
	add	r4, r2, #4	@ tmp166, ivtmp.1585,
	cmp	r0, #0	@ D.39301,
	bne	.L388	@,
.L367:
	str	r0, [r8, r3, asl #2]	@ D.39301,* list
	add	r3, r3, #1	@ nIdx, nIdx,
.L368:
	ldr	r2, [r2, #4]	@ D.39301,
	cmp	r2, #0	@ D.39301,
	beq	.L379	@,
	ldr	lr, [r2, #4]	@ <variable>.frame_store, <variable>.frame_store
	ldr	r0, [lr, #644]	@ <variable>.view_id, <variable>.view_id
	cmp	r0, r6	@ <variable>.view_id, targetViewID
	beq	.L389	@,
.L379:
	add	r1, r1, #1	@ cIdx.1595, tmp165,
	str	r2, [r8, r3, asl #2]	@ D.39301,* list
	cmp	ip, r1	@ cIdx, cIdx.1595
	add	r3, r3, #1	@ nIdx, nIdx,
	add	r2, r4, #4	@ ivtmp.1585, tmp166,
	bcc	.L390	@,
.L369:
	ldr	r0, [r2, #0]	@ D.39301,* ivtmp.1585
	add	r1, r1, #1	@ tmp165, cIdx.1595,
	add	r4, r2, #4	@ tmp166, ivtmp.1585,
	cmp	r0, #0	@ D.39301,
	beq	.L367	@,
.L388:
	ldr	r5, [r0, #4]	@ <variable>.frame_store, <variable>.frame_store
	ldr	r5, [r5, #644]	@ <variable>.view_id, <variable>.view_id
	cmp	r5, r6	@ <variable>.view_id, targetViewID
	bne	.L367	@,
	ldr	r5, [r0, #20]	@ <variable>.MVC_DecPOC, <variable>.MVC_DecPOC
	cmp	r5, r7	@ <variable>.MVC_DecPOC, currpoc
	bne	.L367	@,
	b	.L368	@
.L389:
	ldr	r0, [r2, #20]	@ <variable>.MVC_DecPOC, <variable>.MVC_DecPOC
	cmp	r0, r7	@ <variable>.MVC_DecPOC, currpoc
	bne	.L379	@,
	add	r1, r1, #1	@ cIdx.1595, tmp165,
	add	r2, r4, #4	@ ivtmp.1585, tmp166,
	cmp	ip, r1	@ cIdx, cIdx.1595
	bcs	.L369	@,
.L390:
	ldmfd	sp, {r4, r5, r6, r7, r8, sl, fp, sp, pc}	@
.L387:
	ldr	r4, [r0, #20]	@ <variable>.MVC_DecPOC, <variable>.MVC_DecPOC
	cmp	r4, r7	@ <variable>.MVC_DecPOC, currpoc
	bne	.L375	@,
	b	.L376	@
.L386:
	ldr	r5, [r0, #20]	@ <variable>.MVC_DecPOC, <variable>.MVC_DecPOC
	cmp	r5, r7	@ <variable>.MVC_DecPOC, currpoc
	bne	.L372	@,
	b	.L373	@
	.fnend
	.size	mvc_reorder_interview, .-mvc_reorder_interview
	.align	2
	.global	MVC_ReorderRefPiclist
	.type	MVC_ReorderRefPiclist, %function
MVC_ReorderRefPiclist:
	.fnstart
.LFB1575:
	@ args = 0, pretend = 0, frame = 72
	@ frame_needed = 1, uses_anonymous_args = 0
	.movsp ip
	mov	ip, sp	@,
	stmfd	sp!, {r4, r5, r6, r7, r8, r9, sl, fp, ip, lr, pc}	@,
	.pad #4
	.save {r4, r5, r6, r7, r8, r9, sl, fp, ip, lr}
	.setfp fp, ip, #-4
	sub	fp, ip, #4	@,,
	.pad #84
	sub	sp, sp, #84	@,,
	push	{lr}
	bl	__gnu_mcount_nc
	movw	r3, #:lower16:11162625	@ tmp169,
	movt	r3, #:upper16:11162625	@ tmp169,
	mov	r5, r0	@ pMvcCtx, pMvcCtx
	mov	r8, r1	@ listidx, listidx
	ldrb	r3, [r0, r3]	@ zero_extendqisi2	@ <variable>.CurrSlice.field_pic_flag, <variable>.CurrSlice.field_pic_flag
	str	r2, [fp, #-60]	@ num_ref_idx_lX_active_minus1, %sfp
	mov	r2, #0	@ tmp168,
	cmp	r3, r2	@ <variable>.CurrSlice.field_pic_flag,
	str	r2, [fp, #-48]	@ tmp168, refIdxLX
	beq	.L393	@,
	movw	r0, #:lower16:11162626	@ tmp171,
	movt	r0, #:upper16:11162626	@ tmp171,
	ldrb	r3, [r5, r0]	@ zero_extendqisi2	@ <variable>.CurrSlice.bottom_field_flag, <variable>.CurrSlice.bottom_field_flag
	cmp	r3, r2	@ <variable>.CurrSlice.bottom_field_flag,
	movne	r3, #2	@ structure,
	moveq	r3, #1	@ structure,
.L393:
	cmp	r8, #1	@ listidx,
	bls	.L441	@,
.L424:
	sub	sp, fp, #40
	ldmfd	sp, {r4, r5, r6, r7, r8, r9, sl, fp, sp, pc}
.L441:
	cmp	r8, #0	@ listidx,
	beq	.L442	@,
	movw	r2, #:lower16:11161972	@,
	movt	r2, #:upper16:11161972	@,
	str	r2, [fp, #-96]	@, %sfp
	movw	r2, #:lower16:11162492	@,
	movt	r2, #:upper16:11162492	@,
	movw	r0, #:lower16:11161708	@,
	movw	r1, #:lower16:11162232	@,
	movt	r0, #:upper16:11161708	@,
	movt	r1, #:upper16:11162232	@,
	str	r0, [fp, #-56]	@, %sfp
	str	r1, [fp, #-100]	@, %sfp
.L439:
	ldr	r1, [fp, #-56]	@, %sfp
	cmp	r3, #0	@ structure,
	str	r2, [fp, #-64]	@, %sfp
	add	r0, r5, r1	@, pMvcCtx,
	ldr	r2, [fp, #-96]	@, %sfp
	str	r0, [fp, #-56]	@, %sfp
	ldr	r0, [fp, #-100]	@, %sfp
	add	r1, r5, r2	@, pMvcCtx,
	str	r1, [fp, #-96]	@, %sfp
	add	r2, r5, r0	@, pMvcCtx,
	ldr	r1, [fp, #-64]	@, %sfp
	str	r2, [fp, #-100]	@, %sfp
	movw	r2, #:lower16:11152036	@ tmp182,
	movt	r2, #:upper16:11152036	@ tmp182,
	add	r0, r5, r1	@, pMvcCtx,
	str	r0, [fp, #-64]	@, %sfp
	ldr	r1, [r5, r2]	@ <variable>.pCurrSPS, <variable>.pCurrSPS
	ldr	r0, [r1, #2896]	@ <variable>.log2_max_frame_num_minus4, <variable>.log2_max_frame_num_minus4
	mov	r1, #1	@ tmp185,
	add	r3, r0, #4	@ tmp183, <variable>.log2_max_frame_num_minus4,
	movw	r0, #:lower16:11162644	@ tmp186,
	mov	r2, r1, asl r3	@ MaxFrameNum, tmp185,
	movt	r0, #:upper16:11162644	@ tmp186,
	ldr	r1, [fp, #-60]	@, %sfp
	movne	r2, r2, asl #1	@, MaxFrameNum,
	strne	r2, [fp, #-104]	@, %sfp
	ldrne	r0, [r5, r0]	@ <variable>.CurrSlice.frame_num, <variable>.CurrSlice.frame_num
	streq	r2, [fp, #-104]	@ MaxFrameNum, %sfp
	ldreq	r0, [r5, r0]	@, <variable>.CurrSlice.frame_num
	movne	r0, r0, asl #1	@ tmp188, <variable>.CurrSlice.frame_num,
	addne	r0, r0, #1	@, tmp188,
	adds	r3, r1, #2	@,,
	str	r0, [fp, #-108]	@, %sfp
	str	r3, [fp, #-68]	@, %sfp
	beq	.L424	@,
	ldr	r2, [fp, #-56]	@, %sfp
	ldr	r3, [r2, #0]	@ D.39364,
	cmp	r3, #3	@ D.39364,
	beq	.L424	@,
	ldr	r4, [fp, #-108]	@, %sfp
	mov	r2, #0	@ D.39362,
	movw	r1, #:lower16:10818512	@,
	movt	r1, #:upper16:10818512	@,
	movw	r9, #:lower16:11196660	@,
	add	r0, r5, r1	@, pMvcCtx,
	movt	r9, #:upper16:11196660	@,
	movw	r7, #:lower16:10818504	@,
	str	r9, [fp, #-80]	@, %sfp
	movt	r7, #:upper16:10818504	@,
	movw	r6, #:lower16:11164280	@,
	str	r7, [fp, #-112]	@, %sfp
	movt	r6, #:upper16:11164280	@,
	movw	lr, #:lower16:11164288	@,
	str	r6, [fp, #-88]	@, %sfp
	movt	lr, #:upper16:11164288	@,
	str	r4, [fp, #-92]	@, %sfp
	mov	r7, #1	@ init_flag,
	str	r0, [fp, #-72]	@, %sfp
	mov	r9, r2	@ picViewIdxLXPred, D.39362
	str	lr, [fp, #-84]	@, %sfp
	mov	r4, r2	@ CurrVOIdx, D.39362
	str	r2, [fp, #-76]	@ D.39362, %sfp
	mov	r6, r2	@ i, D.39362
	b	.L400	@
.L446:
	add	r3, r0, r7	@ tmp230, tmp252, picViewIdxLX
	movw	r2, #:lower16:2704632	@ tmp232,
	add	ip, r3, r4	@ tmp231, tmp230, CurrVOIdx
	movt	r2, #:upper16:2704632	@ tmp232,
	add	r9, ip, r2	@ tmp232, tmp231, tmp232
	add	r0, r5, r9, asl #2	@, tmp236, pMvcCtx, tmp232,
	ldr	r3, [r0, #4]	@ targetViewId, <variable>.CurrSUBSPS.anchor_ref
.L422:
	ldr	r1, [fp, #-80]	@, %sfp
	mov	r0, r5	@, pMvcCtx
	sub	r2, fp, #48	@,,
	mov	r9, r7	@ picViewIdxLXPred, picViewIdxLX
	mov	r7, #0	@ init_flag,
	ldr	ip, [r5, r1]	@ <variable>.CurrPic.thispoc, <variable>.CurrPic.thispoc
	ldr	r1, [fp, #-60]	@, %sfp
	str	r8, [sp, #4]	@ listidx,
	str	ip, [sp, #0]	@ <variable>.CurrPic.thispoc,
	bl	mvc_reorder_interview	@
.L406:
	ldr	r3, [fp, #-68]	@, %sfp
	add	r6, r6, #1	@ i, i,
	cmp	r3, r6	@, i
	bls	.L424	@,
	ldr	r2, [fp, #-56]	@, %sfp
	ldr	r3, [r2, r6, asl #2]	@ D.39364,
	mov	r2, r6, asl #2	@ D.39362, i,
	cmp	r3, #3	@ D.39364,
	beq	.L424	@,
.L400:
	cmp	r3, #1	@ D.39364,
	bls	.L443	@,
	cmp	r3, #2	@ D.39364,
	beq	.L444	@,
	cmp	r7, #1	@ init_flag,
	beq	.L408	@,
	ldr	ip, [fp, #-84]	@, %sfp
	mov	r7, r9	@ prephitmp.1613, picViewIdxLXPred
	mov	r0, r8, asl #1	@ tmp252, listidx,
	ldr	r9, [r5, ip]	@ D.39402, <variable>.CurrSlice.anchor_pic_flag
.L409:
	cmp	r3, #4	@ D.39364,
	beq	.L445	@,
	ldr	lr, [fp, #-64]	@, %sfp
	ldr	ip, [fp, #-76]	@, %sfp
	ldr	r1, [lr, r2]	@ tmp228,* D.39362
	add	r3, r1, #1	@ tmp227, tmp228,
	add	r7, r3, r7	@ picViewIdxLX, tmp227, prephitmp.1613
	cmp	ip, r7	@, picViewIdxLX
	rsble	r7, ip, r7	@ picViewIdxLX,, picViewIdxLX
.L420:
	cmp	r9, #0	@ D.39402,
	bne	.L446	@,
	add	r2, r0, r7	@ tmp239, tmp252, picViewIdxLX
	add	r9, r2, r4	@ tmp240, tmp239, CurrVOIdx
	add	r0, r9, #2703360	@ tmp241, tmp240,
	add	lr, r0, #1280	@ tmp241, tmp241,
	add	r1, r5, lr, asl #2	@, tmp245, pMvcCtx, tmp241,
	ldr	r3, [r1, #4]	@ targetViewId, <variable>.CurrSUBSPS.non_anchor_ref
	b	.L422	@
.L442:
	movw	r0, #:lower16:11161576	@,
	movw	r2, #:lower16:11161840	@,
	movt	r0, #:upper16:11161576	@,
	movt	r2, #:upper16:11161840	@,
	movw	r1, #:lower16:11162104	@,
	str	r2, [fp, #-96]	@, %sfp
	movt	r1, #:upper16:11162104	@,
	movw	r2, #:lower16:11162360	@,
	str	r0, [fp, #-56]	@, %sfp
	movt	r2, #:upper16:11162360	@,
	str	r1, [fp, #-100]	@, %sfp
	b	.L439	@
.L443:
	cmp	r3, #0	@ D.39364,
	bne	.L402	@,
	ldr	r3, [fp, #-96]	@, %sfp
	ldr	lr, [fp, #-92]	@, %sfp
	ldr	ip, [r3, r2]	@ tmp191,* D.39362
	mvn	sl, ip	@ tmp190, tmp191
	adds	sl, sl, lr	@ picNumLXNoWrap, tmp190,
	bmi	.L447	@,
.L403:
	ldr	r3, [fp, #-108]	@, %sfp
	mov	r1, r8	@, listidx
	ldr	r0, [fp, #-88]	@, %sfp
	cmp	r3, sl	@, picNumLXNoWrap
	ldr	r2, [fp, #-60]	@, %sfp
	ldr	ip, [r5, r0]	@ <variable>.CurrSlice.view_id, <variable>.CurrSlice.view_id
	movge	r3, sl	@ picNumLX, picNumLXNoWrap
	ldrlt	lr, [fp, #-104]	@, %sfp
	mov	r0, r5	@, pMvcCtx
	rsblt	r3, lr, sl	@ picNumLX,, picNumLXNoWrap
	str	ip, [sp, #4]	@ <variable>.CurrSlice.view_id,
	sub	lr, fp, #48	@,,
	str	lr, [sp, #0]	@,
	bl	MVC_ReorderSTList	@
	str	sl, [fp, #-92]	@ picNumLXNoWrap, %sfp
	b	.L406	@
.L445:
	ldr	lr, [fp, #-64]	@, %sfp
	ldr	r1, [lr, r2]	@ tmp226,* D.39362
	mvn	r3, r1	@ tmp225, tmp226
	adds	r7, r7, r3	@ picViewIdxLX, prephitmp.1613, tmp225
	ldrmi	r2, [fp, #-76]	@, %sfp
	addmi	r7, r7, r2	@ picViewIdxLX, picViewIdxLX,
	b	.L420	@
.L408:
	ldr	sl, [fp, #-112]	@, %sfp
	ldr	r9, [fp, #-88]	@, %sfp
	ldr	r4, [r5, sl]	@ <variable>.CurrSUBSPS.num_views_minus1, <variable>.CurrSUBSPS.num_views_minus1
	ldr	r0, [r5, r9]	@ temp.1650, <variable>.CurrSlice.view_id
	adds	sl, r4, #1	@ D.39400, <variable>.CurrSUBSPS.num_views_minus1,
	beq	.L410	@,
	movw	r1, #:lower16:10818508	@ tmp205,
	movt	r1, #:upper16:10818508	@ tmp205,
	ldr	lr, [r5, r1]	@ <variable>.CurrSUBSPS.view_id, <variable>.CurrSUBSPS.view_id
	cmp	r0, lr	@ temp.1650, <variable>.CurrSUBSPS.view_id
	beq	.L411	@,
	ldr	lr, [fp, #-72]	@ ivtmp.1635, %sfp
	tst	sl, #1	@ D.39400,
	mov	r4, #0	@ CurrVOIdx,
	mov	ip, lr	@ ivtmp.1653, ivtmp.1635
	bne	.L412	@,
	cmp	r7, sl	@ CurrVOIdx, D.39400
	mov	r4, r7	@ CurrVOIdx, init_flag
	bcs	.L413	@,
	ldr	ip, [fp, #-72]	@ ivtmp.1653, %sfp
	ldr	r9, [ip], #4	@ temp.1654, <variable>.CurrSUBSPS.view_id
	cmp	r0, r9	@ temp.1650, temp.1654
	bne	.L412	@,
	b	.L413	@
.L414:
	ldr	r7, [r1], #4	@ temp.1654, <variable>.CurrSUBSPS.view_id
	cmp	r0, r7	@ temp.1650, temp.1654
	beq	.L413	@,
	ldr	r7, [ip, #4]	@ temp.1654, <variable>.CurrSUBSPS.view_id
	add	r4, r4, #1	@ CurrVOIdx, CurrVOIdx,
	add	ip, r1, #4	@ ivtmp.1653, tmp270,
	cmp	r0, r7	@ temp.1650, temp.1654
	beq	.L413	@,
.L412:
	add	r4, r4, #1	@ CurrVOIdx, CurrVOIdx,
	mov	r1, ip	@ tmp270, ivtmp.1653
	cmp	r4, sl	@ CurrVOIdx, D.39400
	bcc	.L414	@,
.L413:
	ldr	r1, [fp, #-84]	@, %sfp
	tst	sl, #1	@ D.39400,
	ldr	r9, [r5, r1]	@ D.39402, <variable>.CurrSlice.anchor_pic_flag
	mov	r1, #0	@ VOIdx,
	bne	.L415	@,
	mov	r1, #1	@ VOIdx,
	cmp	r1, sl	@ VOIdx, D.39400
	bcs	.L416	@,
	ldr	lr, [fp, #-72]	@ ivtmp.1635, %sfp
	ldr	ip, [lr], #4	@ D.46228, <variable>.CurrSUBSPS.view_id
	cmp	r0, ip	@ temp.1650, D.46228
	bne	.L415	@,
	b	.L416	@
.L417:
	ldr	r7, [ip], #4	@ D.46228, <variable>.CurrSUBSPS.view_id
	cmp	r0, r7	@ temp.1650, D.46228
	beq	.L416	@,
	ldr	r7, [lr, #4]	@ D.46228, <variable>.CurrSUBSPS.view_id
	add	r1, r1, #1	@ VOIdx, VOIdx,
	add	lr, ip, #4	@ ivtmp.1635, tmp265,
	cmp	r0, r7	@ temp.1650, D.46228
	beq	.L416	@,
.L415:
	add	r1, r1, #1	@ VOIdx, VOIdx,
	mov	ip, lr	@ tmp265, ivtmp.1635
	cmp	r1, sl	@ VOIdx, D.39400
	bcc	.L417	@,
.L416:
	cmp	r9, #0	@ D.39402,
	mov	r0, r8, asl #1	@ tmp252, listidx,
	addne	r1, r0, r1	@ tmp210, tmp252, VOIdx
	addeq	r1, r0, r1	@ tmp218, tmp252, VOIdx
	movwne	ip, #:lower16:2704628	@ tmp211,
	movweq	ip, #:lower16:2704636	@ tmp219,
	movtne	ip, #:upper16:2704628	@ tmp211,
	movteq	ip, #:upper16:2704636	@ tmp219,
	add	ip, r1, ip	@ tmp219, tmp218, tmp219
	mvn	r7, #0	@ prephitmp.1613,
	add	lr, r5, ip, asl #2	@, tmp223, pMvcCtx, tmp219,
	ldr	ip, [lr, #4]	@,
	str	ip, [fp, #-76]	@, %sfp
	b	.L409	@
.L402:
	ldr	lr, [fp, #-96]	@, %sfp
	ldr	sl, [fp, #-92]	@, %sfp
	ldr	r1, [fp, #-104]	@, %sfp
	ldr	ip, [lr, r2]	@ tmp193,* D.39362
	add	r2, sl, #1	@ tmp192,,
	add	sl, r2, ip	@ picNumLXNoWrap, tmp192, tmp193
	cmp	r1, sl	@, picNumLXNoWrap
	rsble	sl, r1, sl	@ picNumLXNoWrap,, picNumLXNoWrap
	b	.L403	@
.L444:
	ldr	r1, [fp, #-88]	@, %sfp
	sub	lr, fp, #48	@,,
	ldr	r0, [fp, #-100]	@, %sfp
	ldr	ip, [r5, r1]	@ <variable>.CurrSlice.view_id, <variable>.CurrSlice.view_id
	mov	r1, r8	@, listidx
	ldr	r3, [r0, r2]	@ tmp197,* D.39362
	mov	r0, r5	@, pMvcCtx
	ldr	r2, [fp, #-60]	@, %sfp
	str	lr, [sp, #0]	@,
	str	ip, [sp, #4]	@ <variable>.CurrSlice.view_id,
	bl	MVC_ReorderLTList	@
	b	.L406	@
.L447:
	ldr	r0, [fp, #-104]	@, %sfp
	add	sl, sl, r0	@ picNumLXNoWrap, picNumLXNoWrap,
	b	.L403	@
.L410:
	ldr	r7, [fp, #-84]	@, %sfp
	mov	r4, sl	@ CurrVOIdx, D.39400
	mov	r1, sl	@ VOIdx, CurrVOIdx
	ldr	r9, [r5, r7]	@ D.39402, <variable>.CurrSlice.anchor_pic_flag
	b	.L416	@
.L411:
	ldr	lr, [fp, #-84]	@, %sfp
	mov	r4, #0	@ CurrVOIdx,
	mov	r1, r4	@ VOIdx, CurrVOIdx
	ldr	r9, [r5, lr]	@ D.39402, <variable>.CurrSlice.anchor_pic_flag
	b	.L416	@
	.fnend
	.size	MVC_ReorderRefPiclist, .-MVC_ReorderRefPiclist
	.align	2
	.global	MVC_ReorderListX
	.type	MVC_ReorderListX, %function
MVC_ReorderListX:
	.fnstart
.LFB1576:
	@ args = 0, pretend = 0, frame = 0
	@ frame_needed = 1, uses_anonymous_args = 0
	.movsp ip
	mov	ip, sp	@,
	stmfd	sp!, {r3, r4, fp, ip, lr, pc}	@,
	.pad #4
	.save {r3, r4, fp, ip, lr}
	.setfp fp, ip, #-4
	sub	fp, ip, #4	@,,
	push	{lr}
	bl	__gnu_mcount_nc
	movw	r1, #:lower16:11162624	@ tmp134,
	movt	r1, #:upper16:11162624	@ tmp134,
	mov	r4, r0	@ pMvcCtx, pMvcCtx
	ldrb	r3, [r0, r1]	@ zero_extendqisi2	@ <variable>.CurrSlice.slice_type, <variable>.CurrSlice.slice_type
	cmp	r3, #2	@ <variable>.CurrSlice.slice_type,
	ldmeqfd	sp, {r3, r4, fp, sp, pc}	@
	movw	ip, #:lower16:11161572	@ tmp136,
	movt	ip, #:upper16:11161572	@ tmp136,
	ldrb	r2, [r0, ip]	@ zero_extendqisi2	@ <variable>.CurrReorder.ref_pic_list_reordering_flag_l0, <variable>.CurrReorder.ref_pic_list_reordering_flag_l0
	cmp	r2, #0	@ <variable>.CurrReorder.ref_pic_list_reordering_flag_l0,
	bne	.L455	@,
.L450:
	movw	r0, #:lower16:11162624	@ tmp144,
	movt	r0, #:upper16:11162624	@ tmp144,
	movw	ip, #:lower16:11162680	@ tmp141,
	movt	ip, #:upper16:11162680	@ tmp141,
	ldrb	r1, [r4, r0]	@ zero_extendqisi2	@ <variable>.CurrSlice.slice_type, <variable>.CurrSlice.slice_type
	movw	r3, #:lower16:11162668	@ tmp140,
	ldr	r2, [r4, ip]	@ <variable>.CurrSlice.num_ref_idx_l0_active_minus1, <variable>.CurrSlice.num_ref_idx_l0_active_minus1
	movt	r3, #:upper16:11162668	@ tmp140,
	cmp	r1, #1	@ <variable>.CurrSlice.slice_type,
	add	r0, r2, #1	@ tmp143, <variable>.CurrSlice.num_ref_idx_l0_active_minus1,
	str	r0, [r4, r3]	@ tmp143, <variable>.CurrSlice.listXsize
	ldmnefd	sp, {r3, r4, fp, sp, pc}	@
	movw	r2, #:lower16:11161573	@ tmp146,
	movt	r2, #:upper16:11161573	@ tmp146,
	ldrb	r3, [r4, r2]	@ zero_extendqisi2	@ <variable>.CurrReorder.ref_pic_list_reordering_flag_l1, <variable>.CurrReorder.ref_pic_list_reordering_flag_l1
	cmp	r3, #0	@ <variable>.CurrReorder.ref_pic_list_reordering_flag_l1,
	bne	.L456	@,
.L451:
	movw	r3, #:lower16:11162684	@ tmp151,
	movt	r3, #:upper16:11162684	@ tmp151,
	movw	ip, #:lower16:11162672	@ tmp150,
	movt	ip, #:upper16:11162672	@ tmp150,
	ldr	r0, [r4, r3]	@ <variable>.CurrSlice.num_ref_idx_l1_active_minus1, <variable>.CurrSlice.num_ref_idx_l1_active_minus1
	add	r1, r0, #1	@ tmp153, <variable>.CurrSlice.num_ref_idx_l1_active_minus1,
	str	r1, [r4, ip]	@ tmp153, <variable>.CurrSlice.listXsize
	ldmfd	sp, {r3, r4, fp, sp, pc}	@
.L455:
	movw	lr, #:lower16:11162680	@ tmp138,
	movt	lr, #:upper16:11162680	@ tmp138,
	mov	r1, #0	@,
	ldr	r2, [r0, lr]	@, <variable>.CurrSlice.num_ref_idx_l0_active_minus1
	bl	MVC_ReorderRefPiclist	@
	b	.L450	@
.L456:
	movw	lr, #:lower16:11162684	@ tmp148,
	movt	lr, #:upper16:11162684	@ tmp148,
	mov	r0, r4	@, pMvcCtx
	ldr	r2, [r4, lr]	@, <variable>.CurrSlice.num_ref_idx_l1_active_minus1
	bl	MVC_ReorderRefPiclist	@
	b	.L451	@
	.fnend
	.size	MVC_ReorderListX, .-MVC_ReorderListX
	.align	2
	.global	MVC_IsSTRefFlg
	.type	MVC_IsSTRefFlg, %function
MVC_IsSTRefFlg:
	.fnstart
.LFB1577:
	@ args = 0, pretend = 0, frame = 0
	@ frame_needed = 1, uses_anonymous_args = 0
	.movsp ip
	mov	ip, sp	@,
	stmfd	sp!, {fp, ip, lr, pc}	@,
	.pad #4
	.save {fp, ip, lr}
	.setfp fp, ip, #-4
	sub	fp, ip, #4	@,,
	push	{lr}
	bl	__gnu_mcount_nc
	ldr	r2, [r0, #0]	@ tmp138,* s
	bic	r1, r2, #-16777216	@ tmp136, tmp138,
	bic	r0, r1, #255	@ tmp136, tmp136,
	cmp	r0, #65536	@ tmp136,
	movne	r0, #0	@,
	moveq	r0, #1	@,
	ldmfd	sp, {fp, sp, pc}	@
	.fnend
	.size	MVC_IsSTRefFlg, .-MVC_IsSTRefFlg
	.align	2
	.global	MVC_IsLTRefFlg
	.type	MVC_IsLTRefFlg, %function
MVC_IsLTRefFlg:
	.fnstart
.LFB1578:
	@ args = 0, pretend = 0, frame = 0
	@ frame_needed = 1, uses_anonymous_args = 0
	.movsp ip
	mov	ip, sp	@,
	stmfd	sp!, {fp, ip, lr, pc}	@,
	.pad #4
	.save {fp, ip, lr}
	.setfp fp, ip, #-4
	sub	fp, ip, #4	@,,
	push	{lr}
	bl	__gnu_mcount_nc
	ldr	r2, [r0, #0]	@ tmp138,* s
	bic	r1, r2, #-16777216	@ tmp136, tmp138,
	bic	r0, r1, #255	@ tmp136, tmp136,
	cmp	r0, #256	@ tmp136,
	movne	r0, #0	@,
	moveq	r0, #1	@,
	ldmfd	sp, {fp, sp, pc}	@
	.fnend
	.size	MVC_IsLTRefFlg, .-MVC_IsLTRefFlg
	.align	2
	.global	MVC_compare_pic_by_pic_num_desc
	.type	MVC_compare_pic_by_pic_num_desc, %function
MVC_compare_pic_by_pic_num_desc:
	.fnstart
.LFB1579:
	@ args = 0, pretend = 0, frame = 0
	@ frame_needed = 1, uses_anonymous_args = 0
	.movsp ip
	mov	ip, sp	@,
	stmfd	sp!, {fp, ip, lr, pc}	@,
	.pad #4
	.save {fp, ip, lr}
	.setfp fp, ip, #-4
	sub	fp, ip, #4	@,,
	push	{lr}
	bl	__gnu_mcount_nc
	ldr	ip, [r0, #0]	@ tmp139,* arg1
	ldr	r1, [r1, #0]	@ tmp140,* arg2
	ldr	r2, [ip, #12]	@ D.39466, <variable>.pic_num
	ldr	r3, [r1, #12]	@ D.39469, <variable>.pic_num
	cmp	r2, r3	@ D.39466, D.39469
	movlt	r0, #1	@ D.39472,
	ldmltfd	sp, {fp, sp, pc}	@
	movle	r0, #0	@ D.39472,
	mvngt	r0, #0	@ D.39472,
	ldmfd	sp, {fp, sp, pc}	@
	.fnend
	.size	MVC_compare_pic_by_pic_num_desc, .-MVC_compare_pic_by_pic_num_desc
	.align	2
	.global	MVC_compare_pic_by_lt_pic_num_asc
	.type	MVC_compare_pic_by_lt_pic_num_asc, %function
MVC_compare_pic_by_lt_pic_num_asc:
	.fnstart
.LFB1580:
	@ args = 0, pretend = 0, frame = 0
	@ frame_needed = 1, uses_anonymous_args = 0
	.movsp ip
	mov	ip, sp	@,
	stmfd	sp!, {fp, ip, lr, pc}	@,
	.pad #4
	.save {fp, ip, lr}
	.setfp fp, ip, #-4
	sub	fp, ip, #4	@,,
	push	{lr}
	bl	__gnu_mcount_nc
	ldr	ip, [r0, #0]	@ tmp139,* arg1
	ldr	r1, [r1, #0]	@ tmp140,* arg2
	ldr	r2, [ip, #8]	@ D.39481, <variable>.long_term_pic_num
	ldr	r3, [r1, #8]	@ D.39484, <variable>.long_term_pic_num
	cmp	r2, r3	@ D.39481, D.39484
	mvnlt	r0, #0	@ D.39487,
	ldmltfd	sp, {fp, sp, pc}	@
	movle	r0, #0	@, D.39487
	movgt	r0, #1	@, D.39487
	ldmfd	sp, {fp, sp, pc}	@
	.fnend
	.size	MVC_compare_pic_by_lt_pic_num_asc, .-MVC_compare_pic_by_lt_pic_num_asc
	.align	2
	.global	MVC_compare_fs_by_frame_num_desc
	.type	MVC_compare_fs_by_frame_num_desc, %function
MVC_compare_fs_by_frame_num_desc:
	.fnstart
.LFB1581:
	@ args = 0, pretend = 0, frame = 0
	@ frame_needed = 1, uses_anonymous_args = 0
	.movsp ip
	mov	ip, sp	@,
	stmfd	sp!, {fp, ip, lr, pc}	@,
	.pad #4
	.save {fp, ip, lr}
	.setfp fp, ip, #-4
	sub	fp, ip, #4	@,,
	push	{lr}
	bl	__gnu_mcount_nc
	ldr	ip, [r0, #0]	@ tmp139,* arg1
	ldr	r1, [r1, #0]	@ tmp140,* arg2
	ldr	r2, [ip, #592]	@ D.39496, <variable>.frame_num_wrap
	ldr	r3, [r1, #592]	@ D.39499, <variable>.frame_num_wrap
	cmp	r2, r3	@ D.39496, D.39499
	movlt	r0, #1	@ D.39502,
	ldmltfd	sp, {fp, sp, pc}	@
	movle	r0, #0	@ D.39502,
	mvngt	r0, #0	@ D.39502,
	ldmfd	sp, {fp, sp, pc}	@
	.fnend
	.size	MVC_compare_fs_by_frame_num_desc, .-MVC_compare_fs_by_frame_num_desc
	.align	2
	.global	MVC_compare_fs_by_lt_pic_idx_asc
	.type	MVC_compare_fs_by_lt_pic_idx_asc, %function
MVC_compare_fs_by_lt_pic_idx_asc:
	.fnstart
.LFB1582:
	@ args = 0, pretend = 0, frame = 0
	@ frame_needed = 1, uses_anonymous_args = 0
	.movsp ip
	mov	ip, sp	@,
	stmfd	sp!, {fp, ip, lr, pc}	@,
	.pad #4
	.save {fp, ip, lr}
	.setfp fp, ip, #-4
	sub	fp, ip, #4	@,,
	push	{lr}
	bl	__gnu_mcount_nc
	ldr	ip, [r0, #0]	@ tmp139,* arg1
	ldr	r1, [r1, #0]	@ tmp140,* arg2
	ldr	r2, [ip, #596]	@ D.39511, <variable>.long_term_frame_idx
	ldr	r3, [r1, #596]	@ D.39514, <variable>.long_term_frame_idx
	cmp	r2, r3	@ D.39511, D.39514
	mvncc	r0, #0	@ D.39517,
	ldmccfd	sp, {fp, sp, pc}	@
	movls	r0, #0	@, D.39517
	movhi	r0, #1	@, D.39517
	ldmfd	sp, {fp, sp, pc}	@
	.fnend
	.size	MVC_compare_fs_by_lt_pic_idx_asc, .-MVC_compare_fs_by_lt_pic_idx_asc
	.align	2
	.global	MVC_compare_pic_by_poc_asc
	.type	MVC_compare_pic_by_poc_asc, %function
MVC_compare_pic_by_poc_asc:
	.fnstart
.LFB1583:
	@ args = 0, pretend = 0, frame = 0
	@ frame_needed = 1, uses_anonymous_args = 0
	.movsp ip
	mov	ip, sp	@,
	stmfd	sp!, {fp, ip, lr, pc}	@,
	.pad #4
	.save {fp, ip, lr}
	.setfp fp, ip, #-4
	sub	fp, ip, #4	@,,
	push	{lr}
	bl	__gnu_mcount_nc
	ldr	ip, [r0, #0]	@ tmp139,* arg1
	ldr	r1, [r1, #0]	@ tmp140,* arg2
	ldr	r2, [ip, #16]	@ D.39526, <variable>.poc
	ldr	r3, [r1, #16]	@ D.39529, <variable>.poc
	cmp	r2, r3	@ D.39526, D.39529
	mvnlt	r0, #0	@ D.39532,
	ldmltfd	sp, {fp, sp, pc}	@
	movle	r0, #0	@, D.39532
	movgt	r0, #1	@, D.39532
	ldmfd	sp, {fp, sp, pc}	@
	.fnend
	.size	MVC_compare_pic_by_poc_asc, .-MVC_compare_pic_by_poc_asc
	.align	2
	.global	MVC_compare_pic_by_poc_desc
	.type	MVC_compare_pic_by_poc_desc, %function
MVC_compare_pic_by_poc_desc:
	.fnstart
.LFB1584:
	@ args = 0, pretend = 0, frame = 0
	@ frame_needed = 1, uses_anonymous_args = 0
	.movsp ip
	mov	ip, sp	@,
	stmfd	sp!, {fp, ip, lr, pc}	@,
	.pad #4
	.save {fp, ip, lr}
	.setfp fp, ip, #-4
	sub	fp, ip, #4	@,,
	push	{lr}
	bl	__gnu_mcount_nc
	ldr	ip, [r0, #0]	@ tmp139,* arg1
	ldr	r1, [r1, #0]	@ tmp140,* arg2
	ldr	r2, [ip, #16]	@ D.39541, <variable>.poc
	ldr	r3, [r1, #16]	@ D.39544, <variable>.poc
	cmp	r2, r3	@ D.39541, D.39544
	movlt	r0, #1	@ D.39547,
	ldmltfd	sp, {fp, sp, pc}	@
	movle	r0, #0	@ D.39547,
	mvngt	r0, #0	@ D.39547,
	ldmfd	sp, {fp, sp, pc}	@
	.fnend
	.size	MVC_compare_pic_by_poc_desc, .-MVC_compare_pic_by_poc_desc
	.align	2
	.global	MVC_compare_fs_by_poc_asc
	.type	MVC_compare_fs_by_poc_asc, %function
MVC_compare_fs_by_poc_asc:
	.fnstart
.LFB1585:
	@ args = 0, pretend = 0, frame = 0
	@ frame_needed = 1, uses_anonymous_args = 0
	.movsp ip
	mov	ip, sp	@,
	stmfd	sp!, {fp, ip, lr, pc}	@,
	.pad #4
	.save {fp, ip, lr}
	.setfp fp, ip, #-4
	sub	fp, ip, #4	@,,
	push	{lr}
	bl	__gnu_mcount_nc
	ldr	ip, [r0, #0]	@ tmp139,* arg1
	ldr	r1, [r1, #0]	@ tmp140,* arg2
	ldr	r2, [ip, #600]	@ D.39556, <variable>.poc
	ldr	r3, [r1, #600]	@ D.39559, <variable>.poc
	cmp	r2, r3	@ D.39556, D.39559
	mvnlt	r0, #0	@ D.39562,
	ldmltfd	sp, {fp, sp, pc}	@
	movle	r0, #0	@, D.39562
	movgt	r0, #1	@, D.39562
	ldmfd	sp, {fp, sp, pc}	@
	.fnend
	.size	MVC_compare_fs_by_poc_asc, .-MVC_compare_fs_by_poc_asc
	.align	2
	.global	MVC_compare_fs_by_poc_desc
	.type	MVC_compare_fs_by_poc_desc, %function
MVC_compare_fs_by_poc_desc:
	.fnstart
.LFB1586:
	@ args = 0, pretend = 0, frame = 0
	@ frame_needed = 1, uses_anonymous_args = 0
	.movsp ip
	mov	ip, sp	@,
	stmfd	sp!, {fp, ip, lr, pc}	@,
	.pad #4
	.save {fp, ip, lr}
	.setfp fp, ip, #-4
	sub	fp, ip, #4	@,,
	push	{lr}
	bl	__gnu_mcount_nc
	ldr	ip, [r0, #0]	@ tmp139,* arg1
	ldr	r1, [r1, #0]	@ tmp140,* arg2
	ldr	r2, [ip, #600]	@ D.39571, <variable>.poc
	ldr	r3, [r1, #600]	@ D.39574, <variable>.poc
	cmp	r2, r3	@ D.39571, D.39574
	movlt	r0, #1	@ D.39577,
	ldmltfd	sp, {fp, sp, pc}	@
	movle	r0, #0	@ D.39577,
	mvngt	r0, #0	@ D.39577,
	ldmfd	sp, {fp, sp, pc}	@
	.fnend
	.size	MVC_compare_fs_by_poc_desc, .-MVC_compare_fs_by_poc_desc
	.align	2
	.global	MVC_GenPiclistfromFrmlist
	.type	MVC_GenPiclistfromFrmlist, %function
MVC_GenPiclistfromFrmlist:
	.fnstart
.LFB1587:
	@ args = 8, pretend = 0, frame = 16
	@ frame_needed = 1, uses_anonymous_args = 0
	.movsp ip
	mov	ip, sp	@,
	stmfd	sp!, {r4, r5, r6, r7, r8, r9, sl, fp, ip, lr, pc}	@,
	.pad #4
	.save {r4, r5, r6, r7, r8, r9, sl, fp, ip, lr}
	.setfp fp, ip, #-4
	sub	fp, ip, #4	@,,
	.pad #20
	sub	sp, sp, #20	@,,
	push	{lr}
	bl	__gnu_mcount_nc
	cmp	r2, #31	@ list_idx,
	movcc	r4, r2	@ list_idx.2039, list_idx
	movcs	r4, #31	@ list_idx.2039,
	ldr	r2, [fp, #8]	@ long_term, long_term
	movw	ip, #:lower16:MVC_IsSTRefFlg	@ tmp218,
	movt	ip, #:upper16:MVC_IsSTRefFlg	@ tmp218,
	movw	r5, #:lower16:MVC_IsLTRefFlg	@ tmp217,
	cmp	r2, #0	@ long_term,
	movt	r5, #:upper16:MVC_IsLTRefFlg	@ tmp217,
	mov	r6, r1	@ fs_list, fs_list
	str	r3, [fp, #-56]	@ list, %sfp
	moveq	r5, ip	@ is_ref, tmp218
	cmp	r0, #1	@ currStrcture,
	beq	.L579	@,
	cmp	r0, #2	@ currStrcture,
	bne	.L508	@,
	mov	r8, #0	@ top_idx.2017,
	mov	r6, r5	@ is_ref, is_ref
	mov	sl, r8	@ bot_idx, top_idx.2017
	str	r1, [fp, #-48]	@ fs_list, %sfp
.L558:
	cmp	r8, r4	@ top_idx.2017, list_idx.2039
	movcs	r2, #0	@,
	movcc	r2, #1	@,
	str	r2, [fp, #-52]	@, %sfp
	ldr	r1, [fp, #-52]	@, %sfp
	cmp	sl, r4	@ bot_idx, list_idx.2039
	movcs	r3, #0	@, temp.2011
	movcc	r3, #1	@, temp.2011
	orrs	r1, r3, r1	@, temp.2011,
	beq	.L508	@,
	cmp	r3, #0	@ temp.2011,
	beq	.L513	@,
	ldr	ip, [fp, #-48]	@, %sfp
	mvn	r7, sl	@ tmp235, bot_idx
	add	r5, r7, r4	@ tmp234, tmp235, list_idx.2039
	and	r5, r5, #1	@ tmp236, tmp234,
	add	r7, ip, sl, asl #2	@, ivtmp.1998,, bot_idx,
	ldr	r0, [ip, sl, asl #2]	@ temp.2013,
	ldrb	r3, [r0, #1]	@ zero_extendqisi2	@ <variable>.is_used, <variable>.is_used
	tst	r3, #2	@ <variable>.is_used,
	bne	.L580	@,
.L542:
	add	sl, sl, #1	@ bot_idx, bot_idx,
	add	r7, r7, #4	@ ivtmp.1998, ivtmp.1998,
	cmp	sl, r4	@ bot_idx, list_idx.2039
	bcs	.L513	@,
	cmp	r5, #0	@ tmp236,
	beq	.L512	@,
	ldr	r0, [r7, #0]	@ temp.2013,* ivtmp.1998
	ldrb	ip, [r0, #1]	@ zero_extendqisi2	@ <variable>.is_used, <variable>.is_used
	tst	ip, #2	@ <variable>.is_used,
	bne	.L581	@,
.L544:
	add	sl, sl, #1	@ bot_idx, bot_idx,
	add	r7, r7, #4	@ ivtmp.1998, ivtmp.1998,
	cmp	sl, r4	@ bot_idx, list_idx.2039
	bcc	.L512	@,
	b	.L513	@
.L510:
	add	r7, r7, #4	@ ivtmp.1998, ivtmp.1998,
	add	sl, sl, #1	@ bot_idx, bot_idx,
	ldr	r0, [r7, #0]	@ temp.2013,* ivtmp.1998
	mov	r9, sl	@ tmp237, bot_idx
	mov	r5, r7	@ tmp238, ivtmp.1998
	ldrb	ip, [r0, #1]	@ zero_extendqisi2	@ <variable>.is_used, <variable>.is_used
	tst	ip, #2	@ <variable>.is_used,
	bne	.L582	@,
.L547:
	add	sl, r9, #1	@ bot_idx, tmp237,
	add	r7, r5, #4	@ ivtmp.1998, tmp238,
	cmp	sl, r4	@ bot_idx, list_idx.2039
	bcs	.L513	@,
.L512:
	ldr	r0, [r7, #0]	@ temp.2013,* ivtmp.1998
	ldrb	r2, [r0, #1]	@ zero_extendqisi2	@ <variable>.is_used, <variable>.is_used
	tst	r2, #2	@ <variable>.is_used,
	beq	.L510	@,
	add	r0, r0, #544	@, temp.2013,
	blx	r6	@ is_ref
	cmp	r0, #0	@,
	beq	.L510	@,
.L566:
	ldr	r0, [fp, #4]	@, list_size
	add	sl, sl, #1	@ bot_idx, bot_idx,
	ldr	ip, [fp, #-56]	@, %sfp
	ldr	lr, [r7, #0]	@ tmp195,* ivtmp.1998
	ldr	r3, [r0, #0]	@ tmp194,
	add	r2, lr, #544	@ tmp196, tmp195,
	str	r2, [ip, r3, asl #2]	@ tmp196,
	ldr	lr, [fp, #4]	@, list_size
	ldr	r1, [lr, #0]	@ tmp197,
	add	r0, r1, #1	@ tmp198, tmp197,
	str	r0, [lr, #0]	@ tmp198,
.L513:
	ldr	r1, [fp, #-52]	@, %sfp
	cmp	r1, #0	@,
	beq	.L558	@,
	ldr	r3, [fp, #-48]	@, %sfp
	mvn	r5, r8	@ tmp230, top_idx.2017
	add	r7, r5, r4	@ tmp229, tmp230, list_idx.2039
	and	r7, r7, #1	@ tmp231, tmp229,
	add	r5, r3, r8, asl #2	@, ivtmp.1993,, top_idx.2017,
	ldr	r0, [r3, r8, asl #2]	@ temp.2027,
	ldrb	r2, [r0, #1]	@ zero_extendqisi2	@ <variable>.is_used, <variable>.is_used
	tst	r2, #1	@ <variable>.is_used,
	bne	.L583	@,
.L535:
	add	r8, r8, #1	@ top_idx.2017, top_idx.2017,
	add	r5, r5, #4	@ ivtmp.1993, ivtmp.1993,
	cmp	r8, r4	@ top_idx.2017, list_idx.2039
	bcs	.L558	@,
	cmp	r7, #0	@ tmp231,
	beq	.L515	@,
	ldr	r0, [r5, #0]	@ temp.2027,* ivtmp.1993
	ldrb	r3, [r0, #1]	@ zero_extendqisi2	@ <variable>.is_used, <variable>.is_used
	tst	r3, #1	@ <variable>.is_used,
	bne	.L584	@,
.L537:
	add	r8, r8, #1	@ top_idx.2017, top_idx.2017,
	add	r5, r5, #4	@ ivtmp.1993, ivtmp.1993,
	cmp	r8, r4	@ top_idx.2017, list_idx.2039
	bcc	.L515	@,
	b	.L558	@
.L514:
	add	r5, r5, #4	@ ivtmp.1993, ivtmp.1993,
	add	r8, r8, #1	@ top_idx.2017, top_idx.2017,
	ldr	r0, [r5, #0]	@ temp.2027,* ivtmp.1993
	mov	r9, r8	@ tmp232, top_idx.2017
	mov	r7, r5	@ tmp233, ivtmp.1993
	ldrb	ip, [r0, #1]	@ zero_extendqisi2	@ <variable>.is_used, <variable>.is_used
	tst	ip, #1	@ <variable>.is_used,
	bne	.L585	@,
.L540:
	add	r8, r9, #1	@ top_idx.2017, tmp232,
	add	r5, r7, #4	@ ivtmp.1993, tmp233,
	cmp	r8, r4	@ top_idx.2017, list_idx.2039
	bcs	.L558	@,
.L515:
	ldr	r0, [r5, #0]	@ temp.2027,* ivtmp.1993
	ldrb	r1, [r0, #1]	@ zero_extendqisi2	@ <variable>.is_used, <variable>.is_used
	tst	r1, #1	@ <variable>.is_used,
	beq	.L514	@,
	add	r0, r0, #504	@, temp.2027,
	blx	r6	@ is_ref
	cmp	r0, #0	@,
	beq	.L514	@,
.L565:
	ldr	r0, [fp, #4]	@, list_size
	add	r8, r8, #1	@ top_idx.2017, top_idx.2017,
	ldr	r1, [fp, #-56]	@, %sfp
	ldr	lr, [r5, #0]	@ tmp204,* ivtmp.1993
	ldr	r3, [r0, #0]	@ tmp203,
	add	r2, lr, #504	@ tmp205, tmp204,
	str	r2, [r1, r3, asl #2]	@ tmp205,
	ldr	lr, [fp, #4]	@, list_size
	ldr	ip, [lr, #0]	@ tmp206,
	add	r0, ip, #1	@ tmp207, tmp206,
	str	r0, [lr, #0]	@ tmp207,
	b	.L558	@
.L508:
	mov	r0, #0	@,
	sub	sp, fp, #40
	ldmfd	sp, {r4, r5, r6, r7, r8, r9, sl, fp, sp, pc}
.L585:
	add	r0, r0, #504	@, temp.2027,
	blx	r6	@ is_ref
	cmp	r0, #0	@,
	beq	.L540	@,
	b	.L565	@
.L582:
	add	r0, r0, #544	@, temp.2013,
	blx	r6	@ is_ref
	cmp	r0, #0	@,
	beq	.L547	@,
	b	.L566	@
.L580:
	add	r0, r0, #544	@, temp.2013,
	blx	r6	@ is_ref
	cmp	r0, #0	@,
	beq	.L542	@,
	b	.L566	@
.L583:
	add	r0, r0, #504	@, temp.2027,
	blx	r6	@ is_ref
	cmp	r0, #0	@,
	beq	.L535	@,
	b	.L565	@
.L584:
	add	r0, r0, #504	@, temp.2027,
	blx	r6	@ is_ref
	cmp	r0, #0	@,
	beq	.L537	@,
	b	.L565	@
.L581:
	add	r0, r0, #544	@, temp.2013,
	blx	r6	@ is_ref
	cmp	r0, #0	@,
	beq	.L544	@,
	b	.L566	@
.L579:
	mov	r8, #0	@ top_idx,
	mov	r6, r5	@ is_ref, is_ref
	mov	sl, r8	@ bot_idx.2022, top_idx
	str	r1, [fp, #-48]	@ fs_list, %sfp
.L553:
	cmp	sl, r4	@ bot_idx.2022, list_idx.2039
	movcs	r1, #0	@,
	movcc	r1, #1	@,
	cmp	r8, r4	@ top_idx, list_idx.2039
	movcs	r3, #0	@, D.39646
	movcc	r3, #1	@, D.39646
	str	r1, [fp, #-52]	@, %sfp
	orrs	r1, r1, r3	@,, D.39646
	beq	.L508	@,
	cmp	r3, #0	@ D.39646,
	beq	.L505	@,
	ldr	r3, [fp, #-48]	@, %sfp
	mvn	r7, r8	@ tmp225, top_idx
	add	r5, r7, r4	@ tmp224, tmp225, list_idx.2039
	and	r5, r5, #1	@ tmp226, tmp224,
	add	r7, r3, r8, asl #2	@, ivtmp.1988,, top_idx,
	ldr	r0, [r3, r8, asl #2]	@ D.39619,
	ldrb	ip, [r0, #1]	@ zero_extendqisi2	@ <variable>.is_used, <variable>.is_used
	tst	ip, #1	@ <variable>.is_used,
	bne	.L586	@,
.L528:
	add	r8, r8, #1	@ top_idx, top_idx,
	add	r7, r7, #4	@ ivtmp.1988, ivtmp.1988,
	cmp	r8, r4	@ top_idx, list_idx.2039
	bcs	.L505	@,
	cmp	r5, #0	@ tmp226,
	beq	.L504	@,
	ldr	r0, [r7, #0]	@ D.39619,* ivtmp.1988
	ldrb	r2, [r0, #1]	@ zero_extendqisi2	@ <variable>.is_used, <variable>.is_used
	tst	r2, #1	@ <variable>.is_used,
	bne	.L587	@,
.L530:
	add	r8, r8, #1	@ top_idx, top_idx,
	add	r7, r7, #4	@ ivtmp.1988, ivtmp.1988,
	cmp	r8, r4	@ top_idx, list_idx.2039
	bcc	.L504	@,
	b	.L505	@
.L502:
	add	r7, r7, #4	@ ivtmp.1988, ivtmp.1988,
	add	r8, r8, #1	@ top_idx, top_idx,
	ldr	r0, [r7, #0]	@ D.39619,* ivtmp.1988
	mov	r9, r8	@ tmp228, top_idx
	mov	r5, r7	@ tmp227, ivtmp.1988
	ldrb	r2, [r0, #1]	@ zero_extendqisi2	@ <variable>.is_used, <variable>.is_used
	tst	r2, #1	@ <variable>.is_used,
	bne	.L588	@,
.L533:
	add	r8, r9, #1	@ top_idx, tmp228,
	add	r7, r5, #4	@ ivtmp.1988, tmp227,
	cmp	r8, r4	@ top_idx, list_idx.2039
	bcs	.L505	@,
.L504:
	ldr	r0, [r7, #0]	@ D.39619,* ivtmp.1988
	ldrb	r3, [r0, #1]	@ zero_extendqisi2	@ <variable>.is_used, <variable>.is_used
	tst	r3, #1	@ <variable>.is_used,
	beq	.L502	@,
	add	r0, r0, #504	@, D.39619,
	blx	r6	@ is_ref
	cmp	r0, #0	@,
	beq	.L502	@,
.L564:
	ldr	r1, [fp, #4]	@, list_size
	add	r8, r8, #1	@ top_idx, top_idx,
	ldr	ip, [fp, #-56]	@, %sfp
	ldr	r0, [r7, #0]	@ tmp170,* ivtmp.1988
	ldr	r3, [r1, #0]	@ tmp169,
	add	r2, r0, #504	@ tmp171, tmp170,
	str	r2, [ip, r3, asl #2]	@ tmp171,
	ldr	r0, [fp, #4]	@, list_size
	ldr	lr, [r0, #0]	@ tmp172,
	add	r1, lr, #1	@ tmp173, tmp172,
	str	r1, [r0, #0]	@ tmp173,
.L505:
	ldr	ip, [fp, #-52]	@, %sfp
	cmp	ip, #0	@,
	beq	.L553	@,
	ldr	r1, [fp, #-48]	@, %sfp
	mvn	r5, sl	@ tmp220, bot_idx.2022
	add	r7, r5, r4	@ tmp219, tmp220, list_idx.2039
	and	r7, r7, #1	@ tmp221, tmp219,
	add	r5, r1, sl, asl #2	@, ivtmp.1983,, bot_idx.2022,
	ldr	r0, [r1, sl, asl #2]	@ D.39636,
	ldrb	r3, [r0, #1]	@ zero_extendqisi2	@ <variable>.is_used, <variable>.is_used
	tst	r3, #2	@ <variable>.is_used,
	bne	.L589	@,
.L521:
	add	sl, sl, #1	@ bot_idx.2022, bot_idx.2022,
	add	r5, r5, #4	@ ivtmp.1983, ivtmp.1983,
	cmp	sl, r4	@ bot_idx.2022, list_idx.2039
	bcs	.L553	@,
	cmp	r7, #0	@ tmp221,
	beq	.L507	@,
	ldr	r0, [r5, #0]	@ D.39636,* ivtmp.1983
	ldrb	r1, [r0, #1]	@ zero_extendqisi2	@ <variable>.is_used, <variable>.is_used
	tst	r1, #2	@ <variable>.is_used,
	bne	.L590	@,
.L523:
	add	sl, sl, #1	@ bot_idx.2022, bot_idx.2022,
	add	r5, r5, #4	@ ivtmp.1983, ivtmp.1983,
	cmp	sl, r4	@ bot_idx.2022, list_idx.2039
	bcc	.L507	@,
	b	.L553	@
.L506:
	add	r5, r5, #4	@ ivtmp.1983, ivtmp.1983,
	add	sl, sl, #1	@ bot_idx.2022, bot_idx.2022,
	ldr	r0, [r5, #0]	@ D.39636,* ivtmp.1983
	mov	r9, sl	@ tmp222, bot_idx.2022
	mov	r7, r5	@ tmp223, ivtmp.1983
	ldrb	r2, [r0, #1]	@ zero_extendqisi2	@ <variable>.is_used, <variable>.is_used
	tst	r2, #2	@ <variable>.is_used,
	bne	.L591	@,
.L526:
	add	sl, r9, #1	@ bot_idx.2022, tmp222,
	add	r5, r7, #4	@ ivtmp.1983, tmp223,
	cmp	sl, r4	@ bot_idx.2022, list_idx.2039
	bcs	.L553	@,
.L507:
	ldr	r0, [r5, #0]	@ D.39636,* ivtmp.1983
	ldrb	ip, [r0, #1]	@ zero_extendqisi2	@ <variable>.is_used, <variable>.is_used
	tst	ip, #2	@ <variable>.is_used,
	beq	.L506	@,
	add	r0, r0, #544	@, D.39636,
	blx	r6	@ is_ref
	cmp	r0, #0	@,
	beq	.L506	@,
.L563:
	ldr	r0, [fp, #4]	@, list_size
	add	sl, sl, #1	@ bot_idx.2022, bot_idx.2022,
	ldr	r1, [fp, #-56]	@, %sfp
	ldr	lr, [r5, #0]	@ tmp179,* ivtmp.1983
	ldr	r3, [r0, #0]	@ tmp178,
	add	ip, lr, #544	@ tmp180, tmp179,
	str	ip, [r1, r3, asl #2]	@ tmp180,
	ldr	lr, [fp, #4]	@, list_size
	ldr	r2, [lr, #0]	@ tmp181,
	add	r0, r2, #1	@ tmp182, tmp181,
	str	r0, [lr, #0]	@ tmp182,
	b	.L553	@
.L591:
	add	r0, r0, #544	@, D.39636,
	blx	r6	@ is_ref
	cmp	r0, #0	@,
	beq	.L526	@,
	b	.L563	@
.L588:
	add	r0, r0, #504	@, D.39619,
	blx	r6	@ is_ref
	cmp	r0, #0	@,
	beq	.L533	@,
	b	.L564	@
.L589:
	add	r0, r0, #544	@, D.39636,
	blx	r6	@ is_ref
	cmp	r0, #0	@,
	beq	.L521	@,
	b	.L563	@
.L586:
	add	r0, r0, #504	@, D.39619,
	blx	r6	@ is_ref
	cmp	r0, #0	@,
	beq	.L528	@,
	b	.L564	@
.L587:
	add	r0, r0, #504	@, D.39619,
	blx	r6	@ is_ref
	cmp	r0, #0	@,
	beq	.L530	@,
	b	.L564	@
.L590:
	add	r0, r0, #544	@, D.39636,
	blx	r6	@ is_ref
	cmp	r0, #0	@,
	beq	.L523	@,
	b	.L563	@
	.fnend
	.size	MVC_GenPiclistfromFrmlist, .-MVC_GenPiclistfromFrmlist
	.align	2
	.global	MVC_GetBaseViewId
	.type	MVC_GetBaseViewId, %function
MVC_GetBaseViewId:
	.fnstart
.LFB1588:
	@ args = 0, pretend = 0, frame = 0
	@ frame_needed = 1, uses_anonymous_args = 0
	.movsp ip
	mov	ip, sp	@,
	stmfd	sp!, {r3, r4, fp, ip, lr, pc}	@,
	.pad #4
	.save {r3, r4, fp, ip, lr}
	.setfp fp, ip, #-4
	sub	fp, ip, #4	@,,
	push	{lr}
	bl	__gnu_mcount_nc
	add	r3, r0, #17408	@ ivtmp.2071, pMvcCtx,
	add	r3, r3, #188	@ ivtmp.2071, ivtmp.2071,
	mov	ip, #0	@ i,
	b	.L595	@
.L593:
	ldr	r3, [r2, #0]	@ <variable>.num_views_minus1, <variable>.num_views_minus1
	add	ip, ip, #1	@ i, i,
	cmp	r3, #0	@ <variable>.num_views_minus1,
	mov	r3, ip	@ tmp156, i
	beq	.L598	@,
	ldr	r1, [r4, #0]	@ <variable>.is_valid, <variable>.is_valid
	cmp	r1, #0	@ <variable>.is_valid,
	bne	.L601	@,
.L598:
	add	ip, r3, #1	@ i, tmp156,
	movw	r3, #:lower16:337528	@ ivtmp.2071,
	cmp	ip, #32	@ i,
	movt	r3, #:upper16:337528	@ ivtmp.2071,
	add	r3, r2, r3	@ ivtmp.2071, ivtmp.2071, ivtmp.2071
	beq	.L603	@,
.L595:
	movw	r1, #:lower16:333528	@ tmp144,
	movw	r2, #:lower16:337528	@ ivtmp.2071,
	movt	r1, #:upper16:333528	@ tmp144,
	movt	r2, #:upper16:337528	@ ivtmp.2071,
	add	r4, r3, #667648	@ tmp159, ivtmp.2071,
	add	r1, r3, r1	@ tmp144, ivtmp.2071, tmp144
	add	r2, r3, r2	@ ivtmp.2071, ivtmp.2071, ivtmp.2071
	ldr	r3, [r3, #0]	@ <variable>.num_views_minus1, <variable>.num_views_minus1
	add	r4, r4, #3408	@ tmp159, tmp159,
	cmp	r3, #0	@ <variable>.num_views_minus1,
	beq	.L593	@,
	ldr	r3, [r1, #0]	@ <variable>.is_valid, <variable>.is_valid
	cmp	r3, #0	@ <variable>.is_valid,
	beq	.L593	@,
.L601:
	movw	r1, #:lower16:337528	@ tmp149,
	movt	r1, #:upper16:337528	@ tmp149,
	mla	r2, r1, ip, r0	@ tmp150, tmp149, i, pMvcCtx
	movw	ip, #17600	@ tmp147,
	ldr	r0, [r2, ip]	@ baseviewid, <variable>.view_id
	ldmfd	sp, {r3, r4, fp, sp, pc}	@
.L603:
	mvn	r0, #0	@ baseviewid,
	ldmfd	sp, {r3, r4, fp, sp, pc}	@
	.fnend
	.size	MVC_GetBaseViewId, .-MVC_GetBaseViewId
	.align	2
	.global	MVC_GetVOIdx
	.type	MVC_GetVOIdx, %function
MVC_GetVOIdx:
	.fnstart
.LFB1589:
	@ args = 0, pretend = 0, frame = 0
	@ frame_needed = 1, uses_anonymous_args = 0
	.movsp ip
	mov	ip, sp	@,
	stmfd	sp!, {fp, ip, lr, pc}	@,
	.pad #4
	.save {fp, ip, lr}
	.setfp fp, ip, #-4
	sub	fp, ip, #4	@,,
	push	{lr}
	bl	__gnu_mcount_nc
	cmp	r1, #0	@ num_views
	mov	r3, r0	@ ref_view_id, ref_view_id
	beq	.L605	@,
	ldr	r0, [r0, #0]	@ tmp139,* ref_view_id
	cmp	r0, r2	@ tmp139, CurrViewId
	beq	.L605	@,
	tst	r1, #1	@ num_views,
	mov	r0, #0	@ i,
	bne	.L606	@,
	ldr	ip, [r3, #4]	@ tmp148,
	mov	r0, #1	@ i,
	cmp	ip, r2	@ tmp148, CurrViewId
	ldmeqfd	sp, {fp, sp, pc}	@
	add	r0, r0, #1	@ i, i,
	cmp	r0, r1	@ i, num_views
	bcs	.L615	@,
.L608:
	ldr	ip, [r3, r0, asl #2]	@ tmp141,* ref_view_id
	cmp	ip, r2	@ tmp141, CurrViewId
	beq	.L616	@,
	add	r0, r0, #1	@ i, i,
	ldr	ip, [r3, r0, asl #2]	@ tmp150,* ref_view_id
	cmp	ip, r2	@ tmp150, CurrViewId
	beq	.L617	@,
.L606:
	add	r0, r0, #1	@ i, i,
	cmp	r0, r1	@ i, num_views
	bcc	.L608	@,
.L615:
	ldmfd	sp, {fp, sp, pc}	@
.L616:
	ldmfd	sp, {fp, sp, pc}	@
.L617:
	ldmfd	sp, {fp, sp, pc}	@
.L605:
	mov	r0, #0	@ i,
	ldmfd	sp, {fp, sp, pc}	@
	.fnend
	.size	MVC_GetVOIdx, .-MVC_GetVOIdx
	.align	2
	.global	MVC_is_view_id_in_ref_view_list
	.type	MVC_is_view_id_in_ref_view_list, %function
MVC_is_view_id_in_ref_view_list:
	.fnstart
.LFB1590:
	@ args = 0, pretend = 0, frame = 0
	@ frame_needed = 1, uses_anonymous_args = 0
	.movsp ip
	mov	ip, sp	@,
	stmfd	sp!, {r3, r4, fp, ip, lr, pc}	@,
	.pad #4
	.save {r3, r4, fp, ip, lr}
	.setfp fp, ip, #-4
	sub	fp, ip, #4	@,,
	push	{lr}
	bl	__gnu_mcount_nc
	cmp	r2, #0	@ num_ref_views
	beq	.L619	@,
	ldr	r3, [r1, #0]	@ tmp139,* ref_view_id
	cmp	r3, r0	@ tmp139, view_id
	beq	.L619	@,
	tst	r2, #1	@ num_ref_views,
	mov	ip, #0	@ i,
	bne	.L620	@,
	ldr	r4, [r1, #4]	@ tmp153,
	mov	ip, #1	@ i,
	mov	r3, ip	@ i.632, i
	cmp	r4, r0	@ tmp153, view_id
	bne	.L620	@,
.L621:
	cmp	r2, #0	@ num_ref_views,
	cmpne	r2, r3	@, num_ref_views, i.632
	movls	r0, #0	@,
	movhi	r0, #1	@,
	ldmfd	sp, {r3, r4, fp, sp, pc}	@
.L622:
	ldr	r4, [r1, r3, asl #2]	@ tmp141,* ref_view_id
	cmp	r4, r0	@ tmp141, view_id
	beq	.L621	@,
	ldr	r4, [r1, ip, asl #2]	@ tmp155,* ref_view_id
	mov	r3, ip	@ i.632, i
	cmp	r4, r0	@ tmp155, view_id
	beq	.L621	@,
.L620:
	add	r3, ip, #1	@ i.632, i,
	cmp	r2, r3	@ num_ref_views, i.632
	add	ip, r3, #1	@ i, i.632,
	bhi	.L622	@,
	cmp	r2, #0	@ num_ref_views,
	cmpne	r2, r3	@, num_ref_views, i.632
	movls	r0, #0	@,
	movhi	r0, #1	@,
	ldmfd	sp, {r3, r4, fp, sp, pc}	@
.L619:
	mov	r3, #0	@ i.632,
	b	.L621	@
	.fnend
	.size	MVC_is_view_id_in_ref_view_list, .-MVC_is_view_id_in_ref_view_list
	.align	2
	.global	MVC_GenPiclistfromFrmlist_Interview
	.type	MVC_GenPiclistfromFrmlist_Interview, %function
MVC_GenPiclistfromFrmlist_Interview:
	.fnstart
.LFB1591:
	@ args = 4, pretend = 0, frame = 0
	@ frame_needed = 1, uses_anonymous_args = 0
	.movsp ip
	mov	ip, sp	@,
	stmfd	sp!, {r4, r5, r6, r7, fp, ip, lr, pc}	@,
	.pad #4
	.save {r4, r5, r6, r7, fp, ip, lr}
	.setfp fp, ip, #-4
	sub	fp, ip, #4	@,,
	push	{lr}
	bl	__gnu_mcount_nc
	cmp	r0, #1	@ currStrcture,
	ldr	ip, [fp, #4]	@ list_size, list_size
	beq	.L647	@,
	cmp	r0, #2	@ currStrcture,
	ldmnefd	sp, {r4, r5, r6, r7, fp, sp, pc}	@
	cmp	r2, #0	@ list_idx,
	ldmeqfd	sp, {r4, r5, r6, r7, fp, sp, pc}	@
	ldr	r4, [ip, #0]	@ prephitmp.2154,* list_size
	add	r5, r1, #544	@ tmp146, fs_list,
	cmp	r2, #1	@ list_idx,
	sub	r7, r2, #1	@ tmp153, list_idx,
	mov	r6, #1	@ i.2179,
	and	r7, r7, #1	@ tmp155, tmp153,
	str	r5, [r3, r4, asl #2]	@ tmp146,* list
	add	r4, r1, #672	@ ivtmp.2174, fs_list,
	ldr	r5, [ip, #0]	@ tmp147,* list_size
	add	r5, r5, r6	@ prephitmp.2154, tmp147,
	str	r5, [ip, #0]	@ prephitmp.2154,* list_size
	ldmlsfd	sp, {r4, r5, r6, r7, fp, sp, pc}	@
	cmp	r7, #0	@ tmp155,
	beq	.L633	@,
	add	r4, r1, #1216	@ tmp180, fs_list,
	mov	r6, r0	@ i.2179, currStrcture
	str	r4, [r3, r5, asl #2]	@ tmp180,* list
	cmp	r2, r0	@ list_idx, i.2179
	ldr	r0, [ip, #0]	@ tmp181,* list_size
	add	r4, r1, #1344	@ ivtmp.2174, fs_list,
	add	r5, r0, #1	@ prephitmp.2154, tmp181,
	str	r5, [ip, #0]	@ prephitmp.2154,* list_size
	ldmlsfd	sp, {r4, r5, r6, r7, fp, sp, pc}	@
.L633:
	add	r1, r4, #544	@ tmp171, ivtmp.2174,
	str	r1, [r3, r5, asl #2]	@ tmp171,* list
	ldr	r0, [ip, #0]	@ tmp172,* list_size
	add	r6, r6, #2	@ i.2179, i.2179,
	add	r5, r4, #1216	@ tmp176, ivtmp.2174,
	cmp	r2, r6	@ list_idx, i.2179
	add	r1, r0, #1	@ prephitmp.2154, tmp172,
	str	r1, [ip, #0]	@ prephitmp.2154,* list_size
	add	r4, r4, #1344	@ ivtmp.2174, ivtmp.2174,
	str	r5, [r3, r1, asl #2]	@ tmp176,* list
	ldr	r0, [ip, #0]	@ tmp177,* list_size
	add	r5, r0, #1	@ prephitmp.2154, tmp177,
	str	r5, [ip, #0]	@ prephitmp.2154,* list_size
	bhi	.L633	@,
	ldmfd	sp, {r4, r5, r6, r7, fp, sp, pc}	@
.L647:
	cmp	r2, #0	@ list_idx,
	ldmeqfd	sp, {r4, r5, r6, r7, fp, sp, pc}	@
	ldr	r4, [ip, #0]	@ prephitmp.2180,* list_size
	add	r5, r1, #504	@ tmp144, fs_list,
	cmp	r2, #1	@ list_idx,
	sub	r6, r2, #1	@ tmp148, list_idx,
	and	r6, r6, #1	@ tmp150, tmp148,
	str	r5, [r3, r4, asl #2]	@ tmp144,* list
	add	r4, r1, #672	@ ivtmp.2170, fs_list,
	ldr	r5, [ip, #0]	@ tmp145,* list_size
	add	r5, r5, #1	@ prephitmp.2180, tmp145,
	str	r5, [ip, #0]	@ prephitmp.2180,* list_size
	ldmlsfd	sp, {r4, r5, r6, r7, fp, sp, pc}	@
	cmp	r6, #0	@ tmp150,
	beq	.L632	@,
	add	r4, r4, #504	@ tmp178, ivtmp.2170,
	mov	r0, #2	@ i,
	str	r4, [r3, r5, asl #2]	@ tmp178,* list
	cmp	r2, r0	@ list_idx, i
	ldr	r5, [ip, #0]	@ tmp179,* list_size
	add	r4, r1, #1344	@ ivtmp.2170, fs_list,
	add	r5, r5, #1	@ prephitmp.2180, tmp179,
	str	r5, [ip, #0]	@ prephitmp.2180,* list_size
	ldmlsfd	sp, {r4, r5, r6, r7, fp, sp, pc}	@
.L632:
	add	r1, r4, #504	@ tmp161, ivtmp.2170,
	str	r1, [r3, r5, asl #2]	@ tmp161,* list
	ldr	r5, [ip, #0]	@ tmp162,* list_size
	add	r1, r4, #1168	@ tmp166, ivtmp.2170,
	add	r0, r0, #2	@ i, i,
	add	r1, r1, #8	@ tmp166, tmp166,
	add	r5, r5, #1	@ prephitmp.2180, tmp162,
	cmp	r2, r0	@ list_idx, i
	str	r5, [ip, #0]	@ prephitmp.2180,* list_size
	add	r4, r4, #1344	@ ivtmp.2170, ivtmp.2170,
	str	r1, [r3, r5, asl #2]	@ tmp166,* list
	ldr	r1, [ip, #0]	@ tmp167,* list_size
	add	r5, r1, #1	@ prephitmp.2180, tmp167,
	str	r5, [ip, #0]	@ prephitmp.2180,* list_size
	bhi	.L632	@,
	ldmfd	sp, {r4, r5, r6, r7, fp, sp, pc}	@
	.fnend
	.size	MVC_GenPiclistfromFrmlist_Interview, .-MVC_GenPiclistfromFrmlist_Interview
	.align	2
	.global	MVC_FindNearestPOCPicId
	.type	MVC_FindNearestPOCPicId, %function
MVC_FindNearestPOCPicId:
	.fnstart
.LFB1595:
	@ args = 0, pretend = 0, frame = 0
	@ frame_needed = 1, uses_anonymous_args = 0
	.movsp ip
	mov	ip, sp	@,
	stmfd	sp!, {r3, r4, r5, r6, r7, r8, fp, ip, lr, pc}	@,
	.pad #4
	.save {r3, r4, r5, r6, r7, r8, fp, ip, lr}
	.setfp fp, ip, #-4
	sub	fp, ip, #4	@,,
	push	{lr}
	bl	__gnu_mcount_nc
	movw	r1, #:lower16:11168616	@ tmp143,
	movt	r1, #:upper16:11168616	@ tmp143,
	ldr	r3, [r0, r1]	@ <variable>.DPB.used_size, <variable>.DPB.used_size
	cmp	r3, #0	@ <variable>.DPB.used_size,
	mvneq	r6, #0	@ nearest_pic_id,
	beq	.L650	@,
	movw	r2, #:lower16:11168612	@ tmp146,
	movt	r2, #:upper16:11168612	@ tmp146,
	movw	ip, #:lower16:11196660	@ tmp145,
	movt	ip, #:upper16:11196660	@ tmp145,
	ldr	r5, [r0, r2]	@ D.40110, <variable>.DPB.size
	ldr	r4, [r0, ip]	@ curr_poc, <variable>.CurrPic.thispoc
	cmp	r5, #0	@ D.40110,
	moveq	r6, r5	@ nearest_pic_id, D.40110
	beq	.L650	@,
	movw	r1, #:lower16:11168420	@ tmp148,
	movt	r1, #:upper16:11168420	@ tmp148,
	add	r3, r0, r1	@ tmp148, pMvcCtx, tmp148
	mov	r5, r5, asl #2	@ D.47768, D.40110,
	sub	r6, r5, #4	@ tmp157, D.47768,
	mvn	ip, #-2147483648	@ nearest_poc_diff,
	ldr	r3, [r3, #0]	@ D.40102, <variable>.DPB.fs
	ubfx	r1, r6, #2, #1	@ tmp158, tmp157,,
	mov	r6, #0	@ nearest_pic_id,
	cmp	r3, r6	@ D.40102,
	beq	.L656	@,
	ldr	r2, [r3, #600]	@ <variable>.poc, <variable>.poc
	rsb	r2, r2, r4	@ tmp171, <variable>.poc, curr_poc
	cmp	r2, #0	@ tmp171,
	rsblt	r2, r2, #0	@ new_poc_diff, tmp171
	cmn	r2, #-2147483647	@ new_poc_diff,
	ldrlt	r6, [r3, #184]	@ nearest_pic_id, <variable>.fs_image.image_id
	movlt	ip, r2	@ nearest_poc_diff, new_poc_diff
.L656:
	mov	r3, #4	@ ivtmp.2209,
	cmp	r3, r5	@ ivtmp.2209, D.47768
	beq	.L650	@,
	cmp	r1, #0	@ tmp158,
	beq	.L653	@,
	movw	r2, #:lower16:11168424	@ tmp175,
	movt	r2, #:upper16:11168424	@ tmp175,
	add	r1, r0, r2	@ tmp175, pMvcCtx, tmp175
	ldr	r2, [r1, #0]	@ D.40102, <variable>.DPB.fs
	cmp	r2, #0	@ D.40102,
	beq	.L658	@,
	ldr	r1, [r2, #600]	@ <variable>.poc, <variable>.poc
	rsb	r1, r1, r4	@ tmp178, <variable>.poc, curr_poc
	cmp	r1, #0	@ tmp178,
	rsblt	r1, r1, #0	@ new_poc_diff, tmp178
	cmp	r1, ip	@ new_poc_diff, nearest_poc_diff
	ldrlt	r6, [r2, #184]	@ nearest_pic_id, <variable>.fs_image.image_id
	movlt	ip, r1	@ nearest_poc_diff, new_poc_diff
.L658:
	add	r3, r3, #4	@ ivtmp.2209, ivtmp.2209,
	cmp	r3, r5	@ ivtmp.2209, D.47768
	beq	.L650	@,
.L653:
	movw	r2, #:lower16:11168420	@ tmp163,
	movt	r2, #:upper16:11168420	@ tmp163,
	add	r8, r0, r3	@ tmp161, pMvcCtx, ivtmp.2209
	add	r1, r3, #4	@ tmp159, ivtmp.2209,
	mov	r3, r2	@ tmp168, tmp163
	add	r2, r8, r2	@ tmp163, tmp161, tmp163
	add	r7, r0, r1	@ tmp166, pMvcCtx, tmp159
	ldr	r2, [r2, #0]	@ D.40102, <variable>.DPB.fs
	add	r3, r7, r3	@ tmp168, tmp166, tmp168
	cmp	r2, #0	@ D.40102,
	beq	.L652	@,
	ldr	r7, [r2, #600]	@ <variable>.poc, <variable>.poc
	rsb	r7, r7, r4	@ tmp150, <variable>.poc, curr_poc
	cmp	r7, #0	@ tmp150,
	rsblt	r7, r7, #0	@ new_poc_diff, tmp150
	cmp	r7, ip	@ new_poc_diff, nearest_poc_diff
	ldrlt	r6, [r2, #184]	@ nearest_pic_id, <variable>.fs_image.image_id
	movlt	ip, r7	@ nearest_poc_diff, new_poc_diff
.L652:
	ldr	r3, [r3, #0]	@ D.40102, <variable>.DPB.fs
	cmp	r3, #0	@ D.40102,
	beq	.L661	@,
	ldr	r2, [r3, #600]	@ <variable>.poc, <variable>.poc
	rsb	r2, r2, r4	@ tmp181, <variable>.poc, curr_poc
	cmp	r2, #0	@ tmp181,
	rsblt	r2, r2, #0	@ new_poc_diff, tmp181
	cmp	r2, ip	@ new_poc_diff, nearest_poc_diff
	ldrlt	r6, [r3, #184]	@ nearest_pic_id, <variable>.fs_image.image_id
	movlt	ip, r2	@ nearest_poc_diff, new_poc_diff
.L661:
	add	r3, r1, #4	@ ivtmp.2209, tmp159,
	cmp	r3, r5	@ ivtmp.2209, D.47768
	bne	.L653	@,
.L650:
	mov	r0, r6	@, nearest_pic_id
	ldmfd	sp, {r3, r4, r5, r6, r7, r8, fp, sp, pc}	@
	.fnend
	.size	MVC_FindNearestPOCPicId, .-MVC_FindNearestPOCPicId
	.align	2
	.global	MVC_FindMinRefIdx
	.type	MVC_FindMinRefIdx, %function
MVC_FindMinRefIdx:
	.fnstart
.LFB1596:
	@ args = 0, pretend = 0, frame = 8
	@ frame_needed = 1, uses_anonymous_args = 0
	.movsp ip
	mov	ip, sp	@,
	stmfd	sp!, {r4, r5, r6, r7, r8, r9, sl, fp, ip, lr, pc}	@,
	.pad #4
	.save {r4, r5, r6, r7, r8, r9, sl, fp, ip, lr}
	.setfp fp, ip, #-4
	sub	fp, ip, #4	@,,
	.pad #12
	sub	sp, sp, #12	@,,
	push	{lr}
	bl	__gnu_mcount_nc
	movw	r1, #:lower16:11162624	@ tmp154,
	movt	r1, #:upper16:11162624	@ tmp154,
	mov	r9, r0	@ pMvcCtx, pMvcCtx
	ldrb	r3, [r0, r1]	@ zero_extendqisi2	@ <variable>.CurrSlice.slice_type, <variable>.CurrSlice.slice_type
	cmp	r3, #2	@ <variable>.CurrSlice.slice_type,
	beq	.L679	@,
	movw	r2, #:lower16:11196171	@ tmp156,
	movt	r2, #:upper16:11196171	@ tmp156,
	ldrb	r0, [r0, r2]	@ zero_extendqisi2	@ <variable>.CurrPic.structure, <variable>.CurrPic.structure
	cmp	r0, #0	@ <variable>.CurrPic.structure,
	bne	.L708	@,
	movw	r2, #:lower16:11162668	@ tmp160,
	movt	r2, #:upper16:11162668	@ tmp160,
	movw	r6, #:lower16:11168896	@ ivtmp.2260,
	add	ip, r9, #11141120	@ ivtmp.2252, pMvcCtx,
	movt	r6, #:upper16:11168896	@ ivtmp.2260,
	ldr	r1, [r9, r2]	@, <variable>.CurrSlice.listXsize
	add	r6, r9, r6	@ ivtmp.2260, pMvcCtx, ivtmp.2260
	add	r8, ip, #27904	@ ivtmp.2252, ivtmp.2252,
	mov	sl, r2	@ tmp180, tmp160
	str	r1, [fp, #-48]	@, %sfp
.L670:
	ldr	ip, [fp, #-48]	@, %sfp
	cmp	ip, #0	@,
	beq	.L674	@,
	ldr	r2, [r8, #0]	@ tmp205, <variable>.pListX
	mov	r1, #32	@ minrefidx,
	ldr	r7, [r9, sl]	@ temp.2278, <variable>.CurrSlice.listXsize
	ldr	r3, [r2, #4]	@ <variable>.frame_store, <variable>.frame_store
	sub	ip, r7, #1	@ tmp188, temp.2278,
	and	ip, ip, #1	@ tmp190, tmp188,
	ldr	r2, [r3, #632]	@ <variable>.apc_idc, <variable>.apc_idc
	cmp	r2, r0	@ <variable>.apc_idc, i
	beq	.L709	@,
.L682:
	mov	r2, #1	@ j,
	cmp	r7, r2	@ temp.2278, j
	add	r3, r8, #4	@ ivtmp.2252, ivtmp.2252,
	bls	.L702	@,
	cmp	ip, #0	@ tmp190,
	beq	.L672	@,
	ldr	ip, [r8, #4]	@ tmp226, <variable>.pListX
	ldr	ip, [ip, #4]	@ <variable>.frame_store, <variable>.frame_store
	ldr	ip, [ip, #632]	@ <variable>.apc_idc, <variable>.apc_idc
	cmp	ip, r0	@ <variable>.apc_idc, i
	beq	.L710	@,
.L684:
	add	r2, r2, #1	@ j, j,
	add	r3, r3, #4	@ ivtmp.2252, ivtmp.2252,
	cmp	r7, r2	@ temp.2278, j
	bhi	.L672	@,
	b	.L702	@
.L671:
	ldr	r3, [r3, #4]	@ tmp200, <variable>.pListX
	ldr	r2, [r3, #4]	@ <variable>.frame_store, <variable>.frame_store
	ldr	r3, [r2, #632]	@ <variable>.apc_idc, <variable>.apc_idc
	cmp	r3, r0	@ <variable>.apc_idc, i
	beq	.L711	@,
.L687:
	add	r2, ip, #1	@ j, tmp191,
	add	r3, r4, #4	@ ivtmp.2252, tmp192,
	cmp	r7, r2	@ temp.2278, j
	bls	.L702	@,
.L672:
	ldr	r5, [r3, #0]	@ tmp162, <variable>.pListX
	add	ip, r2, #1	@ tmp191, j,
	add	r4, r3, #4	@ tmp192, ivtmp.2252,
	ldr	r5, [r5, #4]	@ <variable>.frame_store, <variable>.frame_store
	ldr	r5, [r5, #632]	@ <variable>.apc_idc, <variable>.apc_idc
	cmp	r5, r0	@ <variable>.apc_idc, i
	bne	.L671	@,
	ldr	r3, [r3, #4]	@ tmp200, <variable>.pListX
	cmp	r1, r2	@ minrefidx, j
	movcs	r1, r2	@ minrefidx, j
	str	r1, [r6, #0]	@ minrefidx, <variable>.APC.RefIdx
	str	r1, [r6, #4]	@ minrefidx, <variable>.APC.RefIdx
	ldr	r2, [r3, #4]	@ <variable>.frame_store, <variable>.frame_store
	ldr	r3, [r2, #632]	@ <variable>.apc_idc, <variable>.apc_idc
	cmp	r3, r0	@ <variable>.apc_idc, i
	bne	.L687	@,
.L711:
	add	r2, ip, #1	@ j, tmp191,
	cmp	r1, ip	@ minrefidx, tmp191
	movcs	r1, ip	@ minrefidx, tmp191
	cmp	r7, r2	@ temp.2278, j
	str	r1, [r6, #0]	@ minrefidx, <variable>.APC.RefIdx
	str	r1, [r6, #4]	@ minrefidx, <variable>.APC.RefIdx
	add	r3, r4, #4	@ ivtmp.2252, tmp192,
	bhi	.L672	@,
.L702:
	cmp	r1, #31	@ minrefidx,
	bls	.L673	@,
.L674:
	mov	r1, #0	@,
	str	r1, [r6, #0]	@, <variable>.APC.RefIdx
	str	r1, [r6, #4]	@, <variable>.APC.RefIdx
.L673:
	add	r0, r0, #1	@ i, i,
	add	r6, r6, #8	@ ivtmp.2260, ivtmp.2260,
	cmp	r0, #16	@ i,
	bne	.L670	@,
.L679:
	sub	sp, fp, #40
	ldmfd	sp, {r4, r5, r6, r7, r8, r9, sl, fp, sp, pc}
.L708:
	movw	r3, #:lower16:11162668	@ tmp158,
	movt	r3, #:upper16:11162668	@ tmp158,
	movw	r8, #:lower16:11168896	@ ivtmp.2274,
	add	sl, r9, #11141120	@ ivtmp.2266, pMvcCtx,
	movt	r8, #:upper16:11168896	@ ivtmp.2274,
	ldr	ip, [r9, r3]	@, <variable>.CurrSlice.listXsize
	add	r8, r9, r8	@ ivtmp.2274, pMvcCtx, ivtmp.2274
	add	sl, sl, #27904	@ ivtmp.2266, ivtmp.2266,
	mov	r0, #0	@ i.2285,
	str	ip, [fp, #-48]	@, %sfp
.L669:
	ldr	r1, [fp, #-48]	@, %sfp
	cmp	r1, #0	@,
	beq	.L678	@,
	ldr	r3, [sl, #0]	@ temp.2281, <variable>.pListX
	movw	r2, #:lower16:11162668	@,
	movt	r2, #:upper16:11162668	@,
	mov	r6, #32	@ minrefidx.2277,
	ldr	ip, [r3, #4]	@ <variable>.frame_store, <variable>.frame_store
	ldr	r7, [r9, r2]	@ temp.2279, <variable>.CurrSlice.listXsize
	ldrb	r2, [r3, #0]	@ zero_extendqisi2	@ <variable>.structure, <variable>.structure
	ldr	r3, [ip, #632]	@ <variable>.apc_idc, <variable>.apc_idc
	sub	r1, r7, #1	@ tmp193, temp.2279,
	and	r1, r1, #1	@ tmp195, tmp193,
	mov	r3, r3, asl #1	@ tmp224, <variable>.apc_idc,
	cmp	r2, #2	@ <variable>.structure,
	orreq	r3, r3, #1	@,, tmp225, tmp224
	cmp	r3, r0	@ tmp225, i.2285
	beq	.L712	@,
.L689:
	mov	r2, #1	@ j.2284,
	cmp	r7, r2	@ temp.2279, j.2284
	add	r3, sl, #4	@ ivtmp.2266, ivtmp.2266,
	bls	.L703	@,
	cmp	r1, #0	@ tmp195,
	beq	.L676	@,
	ldr	r1, [sl, #4]	@ temp.2281, <variable>.pListX
	ldr	ip, [r1, #4]	@ <variable>.frame_store, <variable>.frame_store
	ldrb	r4, [r1, #0]	@ zero_extendqisi2	@ <variable>.structure, <variable>.structure
	ldr	r1, [ip, #632]	@ <variable>.apc_idc, <variable>.apc_idc
	mov	r1, r1, asl r2	@ tmp234, <variable>.apc_idc,
	cmp	r4, #2	@ <variable>.structure,
	orreq	r1, r1, #1	@,, tmp235, tmp234
	cmp	r1, r0	@ tmp235, i.2285
	beq	.L713	@,
.L691:
	add	r2, r2, #1	@ j.2284, j.2284,
	add	r3, r3, #4	@ ivtmp.2266, ivtmp.2266,
	cmp	r7, r2	@ temp.2279, j.2284
	bhi	.L676	@,
	b	.L703	@
.L675:
	ldr	r3, [r3, #4]	@ temp.2281, <variable>.pListX
	ldr	r2, [r3, #4]	@ <variable>.frame_store, <variable>.frame_store
	ldrb	r1, [r3, #0]	@ zero_extendqisi2	@ <variable>.structure, <variable>.structure
	ldr	r3, [r2, #632]	@ <variable>.apc_idc, <variable>.apc_idc
	mov	r3, r3, asl #1	@ tmp215, <variable>.apc_idc,
	cmp	r1, #2	@ <variable>.structure,
	orreq	r3, r3, #1	@,, tmp216, tmp215
	cmp	r3, r0	@ tmp216, i.2285
	beq	.L714	@,
	add	r2, ip, #1	@ j.2284, tmp196,
	add	r3, r4, #4	@ ivtmp.2266, tmp197,
	cmp	r7, r2	@ temp.2279, j.2284
	bls	.L703	@,
.L676:
	ldr	r1, [r3, #0]	@ temp.2281, <variable>.pListX
	add	ip, r2, #1	@ tmp196, j.2284,
	add	r4, r3, #4	@ tmp197, ivtmp.2266,
	ldr	r5, [r1, #4]	@ <variable>.frame_store, <variable>.frame_store
	ldrb	r1, [r1, #0]	@ zero_extendqisi2	@ <variable>.structure, <variable>.structure
	ldr	r5, [r5, #632]	@ <variable>.apc_idc, <variable>.apc_idc
	mov	r5, r5, asl #1	@ tmp173, <variable>.apc_idc,
	cmp	r1, #2	@ <variable>.structure,
	movne	r1, r5	@, tmp175, tmp173
	orreq	r1, r5, #1	@,, tmp175, tmp173
	cmp	r1, r0	@ tmp175, i.2285
	bne	.L675	@,
	cmp	r6, r2	@ minrefidx.2277, j.2284
	movcs	r6, r2	@ minrefidx.2277, j.2284
	str	r6, [r8, #0]	@ minrefidx.2277, <variable>.APC.RefIdx
	b	.L675	@
.L714:
	add	r2, ip, #1	@ j.2284, tmp196,
	cmp	r6, ip	@ minrefidx.2277, tmp196
	movcs	r6, ip	@ minrefidx.2277, tmp196
	cmp	r7, r2	@ temp.2279, j.2284
	str	r6, [r8, #0]	@ minrefidx.2277, <variable>.APC.RefIdx
	add	r3, r4, #4	@ ivtmp.2266, tmp197,
	bhi	.L676	@,
.L703:
	cmp	r6, #31	@ minrefidx.2277,
	bls	.L677	@,
.L678:
	mov	ip, #0	@,
	str	ip, [r8, #0]	@, <variable>.APC.RefIdx
.L677:
	add	r0, r0, #1	@ i.2285, i.2285,
	add	r8, r8, #4	@ ivtmp.2274, ivtmp.2274,
	cmp	r0, #32	@ i.2285,
	bne	.L669	@,
	b	.L679	@
.L712:
	mov	r6, #0	@ minrefidx.2277,
	str	r6, [r8, #0]	@ minrefidx.2277, <variable>.APC.RefIdx
	b	.L689	@
.L713:
	cmp	r6, r2	@ minrefidx.2277, j.2284
	movcs	r6, r2	@ minrefidx.2277, j.2284
	str	r6, [r8, #0]	@ minrefidx.2277, <variable>.APC.RefIdx
	b	.L691	@
.L709:
	mov	r1, #0	@ minrefidx,
	str	r1, [r6, #0]	@ minrefidx, <variable>.APC.RefIdx
	str	r1, [r6, #4]	@ minrefidx, <variable>.APC.RefIdx
	b	.L682	@
.L710:
	cmp	r1, r2	@ minrefidx, j
	movcs	r1, r2	@ minrefidx, j
	str	r1, [r6, #0]	@ minrefidx, <variable>.APC.RefIdx
	str	r1, [r6, #4]	@ minrefidx, <variable>.APC.RefIdx
	b	.L684	@
	.fnend
	.size	MVC_FindMinRefIdx, .-MVC_FindMinRefIdx
	.align	2
	.global	MVC_NoPicOut
	.type	MVC_NoPicOut, %function
MVC_NoPicOut:
	.fnstart
.LFB1598:
	@ args = 0, pretend = 0, frame = 0
	@ frame_needed = 1, uses_anonymous_args = 0
	.movsp ip
	mov	ip, sp	@,
	stmfd	sp!, {r4, r5, fp, ip, lr, pc}	@,
	.pad #4
	.save {r4, r5, fp, ip, lr}
	.setfp fp, ip, #-4
	sub	fp, ip, #4	@,,
	push	{lr}
	bl	__gnu_mcount_nc
	movw	r3, #:lower16:11197996	@ tmp167,
	movt	r3, #:upper16:11197996	@ tmp167,
	ldr	r5, [r0, r3]	@ D.40195, <variable>.TotalFsNum
	cmp	r5, #0	@ D.40195,
	beq	.L716	@,
	movw	r4, #:lower16:11169900	@ ivtmp.2317,
	movt	r4, #:upper16:11169900	@ ivtmp.2317,
	add	r3, r0, r4	@ ivtmp.2317, pMvcCtx, ivtmp.2317
	sub	r1, r5, #1	@ tmp185, D.40195,
	and	r4, r1, #1	@ tmp187, tmp185,
	mov	ip, #0	@ tmp179,
	ldr	r2, [r3, #0]	@ <variable>.is_displayed, <variable>.is_displayed
	cmp	r2, #1	@ <variable>.is_displayed,
	beq	.L729	@,
	ldrb	r1, [r3, #-608]	@ zero_extendqisi2	@ <variable>.is_in_dpb, <variable>.is_in_dpb
	cmp	r1, #1	@ <variable>.is_in_dpb,
	beq	.L729	@,
.L730:
	mov	r1, #1	@ i,
	cmp	r1, r5	@ i, D.40195
	add	r3, r3, #672	@ ivtmp.2317, ivtmp.2317,
	bcs	.L716	@,
	cmp	r4, #0	@ tmp187,
	beq	.L719	@,
	ldr	r2, [r3, #0]	@ <variable>.is_displayed, <variable>.is_displayed
	cmp	r2, r1	@ <variable>.is_displayed,
	beq	.L732	@,
	ldrb	r2, [r3, #-608]	@ zero_extendqisi2	@ <variable>.is_in_dpb, <variable>.is_in_dpb
	cmp	r2, #1	@ <variable>.is_in_dpb,
	beq	.L732	@,
	add	r1, r1, #1	@ i, i,
	add	r3, r3, #672	@ ivtmp.2317, ivtmp.2317,
	cmp	r1, r5	@ i, D.40195
	bcc	.L719	@,
.L716:
	movw	r2, #:lower16:11198000	@ tmp175,
	movt	r2, #:upper16:11198000	@ tmp175,
	ldr	ip, [r0, r2]	@ D.40196, <variable>.TotalPmvNum
	cmp	ip, #0	@ D.40196,
	ldmeqfd	sp, {r4, r5, fp, sp, pc}	@
	movw	r1, #:lower16:11197924	@ ivtmp.2312,
	movt	r1, #:upper16:11197924	@ ivtmp.2312,
	add	r3, r0, r1	@ ivtmp.2312, pMvcCtx, ivtmp.2312
	mov	r1, #1	@ i.2323,
	cmp	r1, ip	@ i.2323, D.40196
	sub	r0, ip, #1	@ tmp180, D.40196,
	and	r2, r0, r1	@ tmp182, tmp180,
	mov	r0, #0	@ tmp178,
	str	r0, [r3], #4	@ tmp178, <variable>.PmvStoreUsedFlag
	ldmcsfd	sp, {r4, r5, fp, sp, pc}	@
	cmp	r2, #0	@ tmp182,
	beq	.L721	@,
	mov	r1, #2	@ i.2323,
	cmp	r1, ip	@ i.2323, D.40196
	str	r0, [r3], #4	@ tmp178, <variable>.PmvStoreUsedFlag
	ldmcsfd	sp, {r4, r5, fp, sp, pc}	@
.L721:
	add	r1, r1, #2	@ i.2323, i.2323,
	mov	r2, r3	@ tmp184, ivtmp.2312
	cmp	r1, ip	@ i.2323, D.40196
	str	r0, [r2], #4	@ tmp178, <variable>.PmvStoreUsedFlag
	str	r0, [r3, #4]	@ tmp178, <variable>.PmvStoreUsedFlag
	add	r3, r2, #4	@ ivtmp.2312, tmp184,
	bcc	.L721	@,
	ldmfd	sp, {r4, r5, fp, sp, pc}	@
.L744:
	ldrb	r4, [r3, #-608]	@ zero_extendqisi2	@ <variable>.is_in_dpb, <variable>.is_in_dpb
	cmp	r4, #1	@ <variable>.is_in_dpb,
	beq	.L717	@,
	ldr	r3, [r3, #672]	@ <variable>.is_displayed, <variable>.is_displayed
	cmp	r3, #1	@ <variable>.is_displayed,
	beq	.L736	@,
.L742:
	ldrb	r3, [r2, #-608]	@ zero_extendqisi2	@ <variable>.is_in_dpb, <variable>.is_in_dpb
	cmp	r3, #1	@ <variable>.is_in_dpb,
	beq	.L736	@,
.L737:
	add	r1, r1, #1	@ i, tmp189,
	add	r3, r2, #672	@ ivtmp.2317, tmp188,
	cmp	r1, r5	@ i, D.40195
	bcs	.L716	@,
.L719:
	ldr	r4, [r3, #0]	@ <variable>.is_displayed, <variable>.is_displayed
	add	r1, r1, #1	@ tmp189, i,
	add	r2, r3, #672	@ tmp188, ivtmp.2317,
	cmp	r4, #1	@ <variable>.is_displayed,
	bne	.L744	@,
.L717:
	strb	ip, [r3, #-611]	@ tmp179, <variable>.is_used
	strb	ip, [r3, #-610]	@ tmp179, <variable>.is_reference
	ldr	r3, [r3, #672]	@ <variable>.is_displayed, <variable>.is_displayed
	cmp	r3, #1	@ <variable>.is_displayed,
	bne	.L742	@,
.L736:
	strb	ip, [r2, #-611]	@ tmp179, <variable>.is_used
	strb	ip, [r2, #-610]	@ tmp179, <variable>.is_reference
	b	.L737	@
.L732:
	add	r1, r1, #1	@ i, i,
	strb	ip, [r3, #-611]	@ tmp179, <variable>.is_used
	cmp	r1, r5	@ i, D.40195
	strb	ip, [r3, #-610]	@ tmp179, <variable>.is_reference
	add	r3, r3, #672	@ ivtmp.2317, ivtmp.2317,
	bcc	.L719	@,
	b	.L716	@
.L729:
	strb	ip, [r3, #-611]	@ tmp179, <variable>.is_used
	strb	ip, [r3, #-610]	@ tmp179, <variable>.is_reference
	b	.L730	@
	.fnend
	.size	MVC_NoPicOut, .-MVC_NoPicOut
	.align	2
	.global	mvc_wait_vo
	.type	mvc_wait_vo, %function
mvc_wait_vo:
	.fnstart
.LFB1601:
	@ args = 0, pretend = 0, frame = 0
	@ frame_needed = 1, uses_anonymous_args = 0
	.movsp ip
	mov	ip, sp	@,
	stmfd	sp!, {fp, ip, lr, pc}	@,
	.pad #4
	.save {fp, ip, lr}
	.setfp fp, ip, #-4
	sub	fp, ip, #4	@,,
	push	{lr}
	bl	__gnu_mcount_nc
	ldmfd	sp, {fp, sp, pc}	@
	.fnend
	.size	mvc_wait_vo, .-mvc_wait_vo
	.align	2
	.global	MVC_RoundLog2
	.type	MVC_RoundLog2, %function
MVC_RoundLog2:
	.fnstart
.LFB1602:
	@ args = 0, pretend = 0, frame = 0
	@ frame_needed = 1, uses_anonymous_args = 0
	.movsp ip
	mov	ip, sp	@,
	stmfd	sp!, {fp, ip, lr, pc}	@,
	.pad #4
	.save {fp, ip, lr}
	.setfp fp, ip, #-4
	sub	fp, ip, #4	@,,
	push	{lr}
	bl	__gnu_mcount_nc
	mul	r0, r0, r0	@ iValue_square, iValue, iValue
	mov	r3, #0	@ iRet,
	mov	r2, #1	@ tmp140,
.L748:
	add	r3, r3, #1	@ iRet, iRet,
	cmp	r0, r2, asl r3	@ iValue_square, tmp140,
	bge	.L748	@,
	mov	r0, r3, asr #1	@, iRet,
	ldmfd	sp, {fp, sp, pc}	@
	.fnend
	.size	MVC_RoundLog2, .-MVC_RoundLog2
	.global	__aeabi_uidiv
	.global	__aeabi_uidivmod
	.align	2
	.global	MVC_DecPOC
	.type	MVC_DecPOC, %function
MVC_DecPOC:
	.fnstart
.LFB1604:
	@ args = 0, pretend = 0, frame = 0
	@ frame_needed = 1, uses_anonymous_args = 0
	.movsp ip
	mov	ip, sp	@,
	stmfd	sp!, {r3, r4, r5, r6, r7, r8, fp, ip, lr, pc}	@,
	.pad #4
	.save {r3, r4, r5, r6, r7, r8, fp, ip, lr}
	.setfp fp, ip, #-4
	sub	fp, ip, #4	@,,
	push	{lr}
	bl	__gnu_mcount_nc
	movw	r3, #:lower16:11152036	@ tmp172,
	movt	r3, #:upper16:11152036	@ tmp172,
	movw	ip, #:lower16:11162627	@ tmp169,
	movt	ip, #:upper16:11162627	@ tmp169,
	mov	r4, r0	@ pMvcCtx, pMvcCtx
	ldr	r5, [r0, r3]	@ sps, <variable>.pCurrSPS
	mov	r1, #1	@ tmp175,
	ldrb	r2, [r0, ip]	@ zero_extendqisi2	@ <variable>.CurrSlice.nal_unit_type, <variable>.CurrSlice.nal_unit_type
	ldr	r3, [r5, #2900]	@ <variable>.pic_order_cnt_type, <variable>.pic_order_cnt_type
	cmp	r2, #5	@ <variable>.CurrSlice.nal_unit_type,
	movne	r2, #0	@, tmp171
	moveq	r2, #1	@, tmp171
	ldr	r0, [r5, #2896]	@ <variable>.log2_max_frame_num_minus4, <variable>.log2_max_frame_num_minus4
	cmp	r3, r1	@ <variable>.pic_order_cnt_type,
	ldr	ip, [r5, #2904]	@ D.40427, <variable>.log2_max_pic_order_cnt_lsb_minus4
	add	r0, r0, #4	@ tmp173, <variable>.log2_max_frame_num_minus4,
	mov	r0, r1, asl r0	@ MaxFrameNum, tmp175,
	beq	.L754	@,
	bcs	.L807	@,
	cmp	r2, #0	@ tmp171,
	add	r0, ip, #4	@ tmp177, D.40427,
	mov	r1, r1, asl r0	@ MaxPicOrderCntLsb, tmp175,
	bne	.L808	@,
	movw	ip, #:lower16:11161504	@ tmp183,
	movt	ip, #:upper16:11161504	@ tmp183,
	ldr	r0, [r4, ip]	@ <variable>.CurrPOC.last_has_mmco_5, <variable>.CurrPOC.last_has_mmco_5
	cmp	r0, #0	@ <variable>.CurrPOC.last_has_mmco_5,
	bne	.L758	@,
	movw	r3, #:lower16:11161488	@ tmp186,
	movt	r3, #:upper16:11161488	@ tmp186,
	movw	r5, #:lower16:11161492	@ tmp185,
	movt	r5, #:upper16:11161492	@ tmp185,
	ldr	ip, [r4, r3]	@ prephitmp.2410, <variable>.CurrPOC.PrevPicOrderCntMsb
	ldr	r3, [r4, r5]	@ prephitmp.2408, <variable>.CurrPOC.PrevPicOrderCntLsb
	mov	r5, ip	@ prephitmp.2412, prephitmp.2410
.L759:
	movw	r2, #:lower16:11161480	@ tmp197,
	movt	r2, #:upper16:11161480	@ tmp197,
	ldr	r0, [r4, r2]	@ D.40450, <variable>.CurrPOC.pic_order_cnt_lsb
	cmp	r0, r3	@ D.40450, prephitmp.2408
	bcs	.L761	@,
	rsb	r2, r0, r3	@ tmp198, D.40450, prephitmp.2408
	cmp	r2, r1, lsr #1	@ tmp198, MaxPicOrderCntLsb,
	bcc	.L761	@,
	add	r1, r5, r1	@ D.40459, prephitmp.2412, MaxPicOrderCntLsb
	movw	r3, #:lower16:11161496	@ tmp201,
	movt	r3, #:upper16:11161496	@ tmp201,
	mov	r2, r1	@ prephitmp.2478, D.40459
	str	r1, [r4, r3]	@ D.40459, <variable>.CurrPOC.PicOrderCntMsb
.L764:
	movw	r3, #:lower16:11162625	@ tmp207,
	movt	r3, #:upper16:11162625	@ tmp207,
	ldrb	ip, [r4, r3]	@ zero_extendqisi2	@ <variable>.CurrSlice.field_pic_flag, <variable>.CurrSlice.field_pic_flag
	cmp	ip, #0	@ <variable>.CurrSlice.field_pic_flag,
	bne	.L766	@,
.L811:
	movw	r5, #:lower16:11161480	@ tmp209,
	movt	r5, #:upper16:11161480	@ tmp209,
	movw	r3, #:lower16:11161484	@ tmp212,
	movt	r3, #:upper16:11161484	@ tmp212,
	ldr	r1, [r4, r5]	@ <variable>.CurrPOC.pic_order_cnt_lsb, <variable>.CurrPOC.pic_order_cnt_lsb
	movw	ip, #:lower16:11161516	@ tmp214,
	ldr	r6, [r4, r3]	@ <variable>.CurrPOC.delta_pic_order_cnt_bottom, <variable>.CurrPOC.delta_pic_order_cnt_bottom
	movw	r5, #:lower16:11161512	@ tmp211,
	add	r2, r2, r1	@ D.40473, prephitmp.2478, <variable>.CurrPOC.pic_order_cnt_lsb
	movt	r5, #:upper16:11161512	@ tmp211,
	movt	ip, #:upper16:11161516	@ tmp214,
	movw	r0, #:lower16:11161520	@ tmp215,
	movw	r3, #:lower16:11161524	@ tmp216,
	movt	r0, #:upper16:11161520	@ tmp215,
	movt	r3, #:upper16:11161524	@ tmp216,
	add	r6, r2, r6	@ D.40475, D.40473, <variable>.CurrPOC.delta_pic_order_cnt_bottom
	cmp	r6, r2	@ D.40475, D.40473
	movlt	r1, r6	@ prephitmp.2403, D.40475
	movge	r1, r2	@ prephitmp.2403, D.40473
	str	r2, [r4, r5]	@ D.40473, <variable>.CurrPOC.toppoc
	str	r6, [r4, ip]	@ D.40475, <variable>.CurrPOC.bottompoc
	str	r1, [r4, r0]	@ prephitmp.2403,
	str	r1, [r4, r3]	@ prephitmp.2403, <variable>.CurrPOC.ThisPOC
.L767:
	movw	r2, #:lower16:11161544	@ tmp228,
	movt	r2, #:upper16:11161544	@ tmp228,
	movw	r3, #:lower16:11161540	@ tmp229,
	movt	r3, #:upper16:11161540	@ tmp229,
	ldr	r0, [r4, r2]	@ D.40485, <variable>.CurrPOC.frame_num
	movw	r2, #:lower16:11161520	@ tmp227,
	movt	r2, #:upper16:11161520	@ tmp227,
	ldr	ip, [r4, r3]	@ <variable>.CurrPOC.PreviousFrameNum, <variable>.CurrPOC.PreviousFrameNum
	str	r1, [r4, r2]	@ prephitmp.2403, <variable>.CurrPOC.framepoc
	movw	r2, #:lower16:11162656	@ tmp232,
	movt	r2, #:upper16:11162656	@ tmp232,
	cmp	r0, ip	@ D.40485, <variable>.CurrPOC.PreviousFrameNum
	strne	r0, [r4, r3]	@ D.40485, <variable>.CurrPOC.PreviousFrameNum
	ldr	r0, [r4, r2]	@ <variable>.CurrSlice.nal_ref_idc, <variable>.CurrSlice.nal_ref_idc
	cmp	r0, #0	@ <variable>.CurrSlice.nal_ref_idc,
	ldmeqfd	sp, {r3, r4, r5, r6, r7, r8, fp, sp, pc}	@
	movw	r2, #:lower16:11161480	@ tmp235,
	movw	r3, #:lower16:11161496	@ tmp238,
	movt	r2, #:upper16:11161480	@ tmp235,
	movt	r3, #:upper16:11161496	@ tmp238,
	movw	ip, #:lower16:11161492	@ tmp234,
	movt	ip, #:upper16:11161492	@ tmp234,
	ldr	r1, [r4, r3]	@ <variable>.CurrPOC.PicOrderCntMsb, <variable>.CurrPOC.PicOrderCntMsb
	movw	r3, #:lower16:11161488	@ tmp237,
	ldr	r0, [r4, r2]	@ <variable>.CurrPOC.pic_order_cnt_lsb, <variable>.CurrPOC.pic_order_cnt_lsb
	movt	r3, #:upper16:11161488	@ tmp237,
	str	r0, [r4, ip]	@ <variable>.CurrPOC.pic_order_cnt_lsb,
	str	r1, [r4, r3]	@ <variable>.CurrPOC.PicOrderCntMsb,
	ldmfd	sp, {r3, r4, r5, r6, r7, r8, fp, sp, pc}	@
.L807:
	cmp	r3, #2	@ <variable>.pic_order_cnt_type,
	ldmnefd	sp, {r3, r4, r5, r6, r7, r8, fp, sp, pc}	@
	cmp	r2, #0	@ tmp171,
	bne	.L809	@,
	movw	r1, #:lower16:11161504	@ tmp346,
	movt	r1, #:upper16:11161504	@ tmp346,
	ldr	r3, [r4, r1]	@ <variable>.CurrPOC.last_has_mmco_5, <variable>.CurrPOC.last_has_mmco_5
	cmp	r3, #0	@ <variable>.CurrPOC.last_has_mmco_5,
	bne	.L790	@,
	movw	r3, #:lower16:11161540	@ tmp349,
	movw	r2, #:lower16:11161544	@ tmp350,
	movt	r3, #:upper16:11161540	@ tmp349,
	movt	r2, #:upper16:11161544	@ tmp350,
	movw	ip, #:lower16:11161552	@ tmp348,
	movt	ip, #:upper16:11161552	@ tmp348,
	ldr	r1, [r4, r3]	@ <variable>.CurrPOC.PreviousFrameNum, <variable>.CurrPOC.PreviousFrameNum
	ldr	r2, [r4, r2]	@ <variable>.CurrPOC.frame_num, <variable>.CurrPOC.frame_num
	cmp	r1, r2	@ <variable>.CurrPOC.PreviousFrameNum, <variable>.CurrPOC.frame_num
	ldr	r1, [r4, ip]	@ prephitmp.2398, <variable>.CurrPOC.PrevFrameNumOffset
	bls	.L792	@,
	movw	r2, #:lower16:11161548	@ tmp357,
	movt	r2, #:upper16:11161548	@ tmp357,
	add	r1, r1, r0	@ prephitmp.2398, prephitmp.2398, MaxFrameNum
	str	r1, [r4, r2]	@ prephitmp.2398, <variable>.CurrPOC.FrameNumOffset
.L793:
	movw	r3, #:lower16:11162656	@ tmp362,
	movt	r3, #:upper16:11162656	@ tmp362,
	movw	r2, #:lower16:11161544	@ tmp359,
	movt	r2, #:upper16:11161544	@ tmp359,
	ldr	r0, [r4, r3]	@ <variable>.CurrSlice.nal_ref_idc, <variable>.CurrSlice.nal_ref_idc
	movw	r3, #:lower16:11161536	@ tmp361,
	ldr	ip, [r4, r2]	@ <variable>.CurrPOC.frame_num, <variable>.CurrPOC.frame_num
	movt	r3, #:upper16:11161536	@ tmp361,
	cmp	r0, #0	@ <variable>.CurrSlice.nal_ref_idc,
	movw	r0, #:lower16:11162625	@ tmp367,
	movt	r0, #:upper16:11162625	@ tmp367,
	add	r2, r1, ip	@ temp.2468, prephitmp.2398, <variable>.CurrPOC.frame_num
	str	r2, [r4, r3]	@ temp.2468, <variable>.CurrPOC.AbsFrameNum
	movw	ip, #:lower16:11161524	@ tmp365,
	ldrb	r1, [r4, r0]	@ zero_extendqisi2	@ <variable>.CurrSlice.field_pic_flag, <variable>.CurrSlice.field_pic_flag
	mov	r2, r2, asl #1	@ tmp364, temp.2468,
	subeq	r2, r2, #1	@ prephitmp.2470, tmp364,
	movt	ip, #:upper16:11161524	@ tmp365,
	cmp	r1, #0	@ <variable>.CurrSlice.field_pic_flag,
	str	r2, [r4, ip]	@ prephitmp.2470, <variable>.CurrPOC.ThisPOC
	bne	.L796	@,
	movw	r0, #:lower16:11161520	@ tmp369,
	movw	ip, #:lower16:11161516	@ tmp370,
	movt	r0, #:upper16:11161520	@ tmp369,
	movt	ip, #:upper16:11161516	@ tmp370,
	movw	r1, #:lower16:11161512	@ tmp371,
	movt	r1, #:upper16:11161512	@ tmp371,
	str	r2, [r4, r0]	@ prephitmp.2470, <variable>.CurrPOC.framepoc
	str	r2, [r4, r1]	@ prephitmp.2470,
	str	r2, [r4, ip]	@ prephitmp.2470,
.L789:
	movw	ip, #:lower16:11161544	@ tmp379,
	movw	r1, #:lower16:11161548	@ tmp382,
	movt	ip, #:upper16:11161544	@ tmp379,
	movt	r1, #:upper16:11161548	@ tmp382,
	movw	r2, #:lower16:11161540	@ tmp378,
	movw	r3, #:lower16:11161552	@ tmp381,
	ldr	r0, [r4, ip]	@ <variable>.CurrPOC.frame_num, <variable>.CurrPOC.frame_num
	movt	r2, #:upper16:11161540	@ tmp378,
	ldr	ip, [r4, r1]	@ <variable>.CurrPOC.FrameNumOffset, <variable>.CurrPOC.FrameNumOffset
	movt	r3, #:upper16:11161552	@ tmp381,
	str	r0, [r4, r2]	@ <variable>.CurrPOC.frame_num,
	str	ip, [r4, r3]	@ <variable>.CurrPOC.FrameNumOffset,
	ldmfd	sp, {r3, r4, r5, r6, r7, r8, fp, sp, pc}	@
.L754:
	cmp	r2, #0	@ tmp171,
	bne	.L810	@,
	movw	r1, #:lower16:11161504	@ tmp242,
	movt	r1, #:upper16:11161504	@ tmp242,
	ldr	r6, [r4, r1]	@ <variable>.CurrPOC.last_has_mmco_5, <variable>.CurrPOC.last_has_mmco_5
	cmp	r6, #0	@ <variable>.CurrPOC.last_has_mmco_5,
	beq	.L772	@,
	movw	ip, #:lower16:11161552	@ tmp244,
	movw	r0, #:lower16:11161540	@ tmp246,
	movt	ip, #:upper16:11161552	@ tmp244,
	movt	r0, #:upper16:11161540	@ tmp246,
	mov	r1, r2	@ prephitmp.2402, tmp171
	str	r2, [r4, ip]	@ tmp171, <variable>.CurrPOC.PrevFrameNumOffset
	str	r2, [r4, r0]	@ tmp171, <variable>.CurrPOC.PreviousFrameNum
.L773:
	movw	r3, #:lower16:11161548	@ tmp257,
	movt	r3, #:upper16:11161548	@ tmp257,
	str	r1, [r4, r3]	@ prephitmp.2402, <variable>.CurrPOC.FrameNumOffset
.L771:
	ldr	r7, [r5, #2916]	@ <variable>.num_ref_frames_in_pic_order_cnt_cycle, <variable>.num_ref_frames_in_pic_order_cnt_cycle
	cmp	r7, #0	@ <variable>.num_ref_frames_in_pic_order_cnt_cycle,
	movweq	r2, #:lower16:11161536	@ tmp265,
	movteq	r2, #:upper16:11161536	@ tmp265,
	streq	r7, [r4, r2]	@ <variable>.num_ref_frames_in_pic_order_cnt_cycle, <variable>.CurrPOC.AbsFrameNum
	beq	.L776	@,
	movw	r0, #:lower16:11161544	@ tmp260,
	movw	ip, #:lower16:11161548	@ tmp261,
	movt	r0, #:upper16:11161544	@ tmp260,
	movt	ip, #:upper16:11161548	@ tmp261,
	movw	r6, #:lower16:11161536	@ tmp259,
	movt	r6, #:upper16:11161536	@ tmp259,
	ldr	r1, [r4, r0]	@ <variable>.CurrPOC.frame_num, <variable>.CurrPOC.frame_num
	ldr	r2, [r4, ip]	@ <variable>.CurrPOC.FrameNumOffset, <variable>.CurrPOC.FrameNumOffset
	add	r2, r1, r2	@ tmp264, <variable>.CurrPOC.frame_num, <variable>.CurrPOC.FrameNumOffset
	str	r2, [r4, r6]	@ tmp264, <variable>.CurrPOC.AbsFrameNum
.L776:
	movw	r7, #:lower16:11162656	@ tmp267,
	movt	r7, #:upper16:11162656	@ tmp267,
	ldr	r3, [r4, r7]	@ <variable>.CurrSlice.nal_ref_idc, <variable>.CurrSlice.nal_ref_idc
	cmp	r3, #0	@ <variable>.CurrSlice.nal_ref_idc,
	bne	.L777	@,
	movw	r6, #:lower16:11161536	@ tmp269,
	movt	r6, #:upper16:11161536	@ tmp269,
	ldr	r2, [r4, r6]	@ D.40511, <variable>.CurrPOC.AbsFrameNum
	cmp	r2, #0	@ D.40511,
	subne	r2, r2, #1	@ tmp271, D.40511,
	strne	r2, [r4, r6]	@ tmp271, <variable>.CurrPOC.AbsFrameNum
.L777:
	movw	ip, #:lower16:11161568	@ tmp272,
	movt	ip, #:upper16:11161568	@ tmp272,
	mov	r3, #0	@ tmp273,
	str	r3, [r4, ip]	@ tmp273, <variable>.CurrPOC.ExpectedDeltaPerPicOrderCntCycle
	ldr	r1, [r5, #2916]	@ temp.2473, <variable>.num_ref_frames_in_pic_order_cnt_cycle
	cmp	r1, r3	@ temp.2473,
	ble	.L778	@,
	add	r2, r5, #2912	@ ivtmp.2432, sps,
	add	r0, r2, #8	@ ivtmp.2432, ivtmp.2432,
	mov	r2, r3	@ i, prephitmp.2399
.L779:
	ldr	r1, [r0], #4	@ tmp275, <variable>.offset_for_ref_frame
	add	r2, r2, #1	@ i, i,
	add	r3, r3, r1	@ prephitmp.2399, prephitmp.2399, tmp275
	str	r3, [r4, ip]	@ prephitmp.2399, <variable>.CurrPOC.ExpectedDeltaPerPicOrderCntCycle
	ldr	r1, [r5, #2916]	@ temp.2473, <variable>.num_ref_frames_in_pic_order_cnt_cycle
	cmp	r1, r2	@ temp.2473, i
	bgt	.L779	@,
.L778:
	movw	ip, #:lower16:11161536	@ tmp277,
	movt	ip, #:upper16:11161536	@ tmp277,
	ldr	r7, [r4, ip]	@ temp.2447, <variable>.CurrPOC.AbsFrameNum
	cmp	r7, #0	@ temp.2447,
	beq	.L780	@,
	sub	r7, r7, #1	@ tmp278, temp.2447,
	mov	r0, r7	@, tmp278
	bl	__aeabi_uidiv	@
	movw	r2, #:lower16:11161560	@ tmp282,
	movt	r2, #:upper16:11161560	@ tmp282,
	mov	r6, r0	@ tmp281,
	mov	r0, r7	@, tmp278
	str	r6, [r4, r2]	@ tmp281, <variable>.CurrPOC.PicOrderCntCycleCnt
	ldr	r1, [r5, #2916]	@, <variable>.num_ref_frames_in_pic_order_cnt_cycle
	bl	__aeabi_uidivmod	@
	movw	r3, #:lower16:11161568	@ tmp292,
	movt	r3, #:upper16:11161568	@ tmp292,
	movw	r0, #:lower16:11161556	@ tmp291,
	movw	ip, #:lower16:11161564	@ tmp294,
	movt	r0, #:upper16:11161556	@ tmp291,
	ldr	r2, [r4, r3]	@ <variable>.CurrPOC.ExpectedDeltaPerPicOrderCntCycle, <variable>.CurrPOC.ExpectedDeltaPerPicOrderCntCycle
	movt	ip, #:upper16:11161564	@ tmp294,
	mul	r6, r2, r6	@ prephitmp.2451, <variable>.CurrPOC.ExpectedDeltaPerPicOrderCntCycle, tmp281
	str	r6, [r4, ip]	@ prephitmp.2451, <variable>.CurrPOC.ExpectedPicOrderCnt
	cmp	r1, #0	@ D.40526,
	str	r1, [r4, r0]	@ D.40526, <variable>.CurrPOC.FrameNumInPicOrderCntCycle
	blt	.L781	@,
	add	r3, r5, #2912	@ tmp295, sps,
	cmp	r1, #1	@ D.40526,
	and	r8, r1, #1	@ tmp403, D.40526,
	mov	r0, #1	@ i.2453,
	ldr	r7, [r3, #8]	@ tmp296, <variable>.offset_for_ref_frame
	add	r2, r3, #12	@ ivtmp.2427, tmp295,
	add	r6, r6, r7	@ prephitmp.2451, prephitmp.2451, tmp296
	str	r6, [r4, ip]	@ prephitmp.2451, <variable>.CurrPOC.ExpectedPicOrderCnt
	blt	.L781	@,
	cmp	r8, #0	@ tmp403,
	beq	.L782	@,
	ldr	r7, [r2, #0]	@ tmp415, <variable>.offset_for_ref_frame
	mov	r0, #2	@ i.2453,
	cmp	r1, r0	@ D.40526, i.2453
	add	r2, r3, #16	@ ivtmp.2427, tmp295,
	add	r6, r6, r7	@ prephitmp.2451, prephitmp.2451, tmp415
	str	r6, [r4, ip]	@ prephitmp.2451, <variable>.CurrPOC.ExpectedPicOrderCnt
	blt	.L781	@,
.L782:
	mov	r3, r2	@ tmp404, ivtmp.2427
	add	r0, r0, #2	@ i.2453, i.2453,
	ldr	r7, [r3], #4	@ tmp408, <variable>.offset_for_ref_frame
	cmp	r1, r0	@ D.40526, i.2453
	add	lr, r6, r7	@ prephitmp.2451, prephitmp.2451, tmp408
	str	lr, [r4, ip]	@ prephitmp.2451, <variable>.CurrPOC.ExpectedPicOrderCnt
	ldr	r7, [r2, #4]	@ tmp413, <variable>.offset_for_ref_frame
	add	r2, r3, #4	@ ivtmp.2427, tmp404,
	add	r6, lr, r7	@ prephitmp.2451, prephitmp.2451, tmp413
	str	r6, [r4, ip]	@ prephitmp.2451, <variable>.CurrPOC.ExpectedPicOrderCnt
	bge	.L782	@,
.L781:
	movw	r1, #:lower16:11162656	@ tmp300,
	movt	r1, #:upper16:11162656	@ tmp300,
	movw	r0, #:lower16:11162625	@ tmp305,
	movt	r0, #:upper16:11162625	@ tmp305,
	ldr	r3, [r4, r1]	@ <variable>.CurrSlice.nal_ref_idc, <variable>.CurrSlice.nal_ref_idc
	ldrb	ip, [r4, r0]	@ zero_extendqisi2	@ <variable>.CurrSlice.field_pic_flag, <variable>.CurrSlice.field_pic_flag
	cmp	r3, #0	@ <variable>.CurrSlice.nal_ref_idc,
	movwne	r3, #:lower16:11161564	@ tmp302,
	ldreq	r2, [r5, #2908]	@ <variable>.offset_for_non_ref_pic, <variable>.offset_for_non_ref_pic
	movweq	r3, #:lower16:11161564	@ tmp304,
	movtne	r3, #:upper16:11161564	@ tmp302,
	movteq	r3, #:upper16:11161564	@ tmp304,
	addeq	r6, r6, r2	@ prephitmp.2455, prephitmp.2451, <variable>.offset_for_non_ref_pic
	ldrne	r6, [r4, r3]	@ prephitmp.2455, <variable>.CurrPOC.ExpectedPicOrderCnt
	streq	r6, [r4, r3]	@ prephitmp.2455, <variable>.CurrPOC.ExpectedPicOrderCnt
	cmp	ip, #0	@ <variable>.CurrSlice.field_pic_flag,
	bne	.L785	@,
	movw	r1, #:lower16:11161528	@ tmp307,
	movt	r1, #:upper16:11161528	@ tmp307,
	movw	r2, #:lower16:11161512	@ tmp309,
	movw	r3, #:lower16:11161532	@ tmp310,
	ldr	r0, [r4, r1]	@ <variable>.CurrPOC.delta_pic_order_cnt, <variable>.CurrPOC.delta_pic_order_cnt
	movt	r2, #:upper16:11161512	@ tmp309,
	movt	r3, #:upper16:11161532	@ tmp310,
	movw	r1, #:lower16:11161516	@ tmp314,
	add	r6, r6, r0	@ D.40540, prephitmp.2455, <variable>.CurrPOC.delta_pic_order_cnt
	str	r6, [r4, r2]	@ D.40540, <variable>.CurrPOC.toppoc
	ldr	ip, [r4, r3]	@ <variable>.CurrPOC.delta_pic_order_cnt, <variable>.CurrPOC.delta_pic_order_cnt
	movt	r1, #:upper16:11161516	@ tmp314,
	ldr	r0, [r5, #2912]	@ <variable>.offset_for_top_to_bottom_field, <variable>.offset_for_top_to_bottom_field
	movw	r2, #:lower16:11161520	@ tmp315,
	movw	r3, #:lower16:11161524	@ tmp316,
	movt	r2, #:upper16:11161520	@ tmp315,
	add	r0, ip, r0	@ tmp311, <variable>.CurrPOC.delta_pic_order_cnt, <variable>.offset_for_top_to_bottom_field
	movt	r3, #:upper16:11161524	@ tmp316,
	add	ip, r0, r6	@ D.40544, tmp311, D.40540
	str	ip, [r4, r1]	@ D.40544, <variable>.CurrPOC.bottompoc
	cmp	ip, r6	@ D.40544, D.40540
	movlt	r6, ip	@ prephitmp.2460, D.40544
	movge	r6, r6	@ prephitmp.2460, D.40540
	str	r6, [r4, r2]	@ prephitmp.2460,
	str	r6, [r4, r3]	@ prephitmp.2460, <variable>.CurrPOC.ThisPOC
.L786:
	movw	r2, #:lower16:11161544	@ tmp331,
	movw	r3, #:lower16:11161548	@ tmp334,
	movt	r2, #:upper16:11161544	@ tmp331,
	movt	r3, #:upper16:11161548	@ tmp334,
	movw	r1, #:lower16:11161520	@ tmp329,
	movt	r1, #:upper16:11161520	@ tmp329,
	ldr	r0, [r4, r2]	@ <variable>.CurrPOC.frame_num, <variable>.CurrPOC.frame_num
	movw	r2, #:lower16:11161552	@ tmp333,
	ldr	ip, [r4, r3]	@ <variable>.CurrPOC.FrameNumOffset, <variable>.CurrPOC.FrameNumOffset
	movt	r2, #:upper16:11161552	@ tmp333,
	movw	r3, #:lower16:11161540	@ tmp330,
	movt	r3, #:upper16:11161540	@ tmp330,
	str	r6, [r4, r1]	@ prephitmp.2460, <variable>.CurrPOC.framepoc
	str	ip, [r4, r2]	@ <variable>.CurrPOC.FrameNumOffset, <variable>.CurrPOC.PrevFrameNumOffset
	str	r0, [r4, r3]	@ <variable>.CurrPOC.frame_num, <variable>.CurrPOC.PreviousFrameNum
	ldmfd	sp, {r3, r4, r5, r6, r7, r8, fp, sp, pc}	@
.L810:
	movw	r7, #:lower16:11161548	@ tmp240,
	movt	r7, #:upper16:11161548	@ tmp240,
	mov	r2, #0	@ tmp241,
	str	r2, [r4, r7]	@ tmp241, <variable>.CurrPOC.FrameNumOffset
	b	.L771	@
.L809:
	movw	r5, #:lower16:11161548	@ tmp336,
	movw	r0, #:lower16:11161516	@ tmp338,
	movt	r5, #:upper16:11161548	@ tmp336,
	movt	r0, #:upper16:11161516	@ tmp338,
	movw	r1, #:lower16:11161512	@ tmp340,
	movw	r2, #:lower16:11161520	@ tmp342,
	movt	r1, #:upper16:11161512	@ tmp340,
	movt	r2, #:upper16:11161520	@ tmp342,
	movw	ip, #:lower16:11161524	@ tmp344,
	movt	ip, #:upper16:11161524	@ tmp344,
	mov	r3, #0	@ tmp337,
	str	r3, [r4, r5]	@ tmp337, <variable>.CurrPOC.FrameNumOffset
	str	r3, [r4, ip]	@ tmp337, <variable>.CurrPOC.ThisPOC
	str	r3, [r4, r0]	@ tmp337, <variable>.CurrPOC.bottompoc
	str	r3, [r4, r1]	@ tmp337, <variable>.CurrPOC.toppoc
	str	r3, [r4, r2]	@ tmp337, <variable>.CurrPOC.framepoc
	b	.L789	@
.L808:
	movw	r2, #:lower16:11161488	@ tmp179,
	movw	r3, #:lower16:11161492	@ tmp181,
	movt	r2, #:upper16:11161488	@ tmp179,
	movt	r3, #:upper16:11161492	@ tmp181,
	mov	ip, #0	@ tmp180,
	str	ip, [r4, r2]	@ tmp180, <variable>.CurrPOC.PrevPicOrderCntMsb
	str	ip, [r4, r3]	@ tmp180, <variable>.CurrPOC.PrevPicOrderCntLsb
.L757:
	movw	r0, #:lower16:11161480	@ tmp384,
	movt	r0, #:upper16:11161480	@ tmp384,
	movw	r3, #:lower16:11161488	@ tmp385,
	movt	r3, #:upper16:11161488	@ tmp385,
	ldr	r0, [r4, r0]	@ D.40450, <variable>.CurrPOC.pic_order_cnt_lsb
	mov	r2, #0	@ prephitmp.2478,
	ldr	ip, [r4, r3]	@ prephitmp.2410, <variable>.CurrPOC.PrevPicOrderCntMsb
	mov	r3, r2	@ prephitmp.2408, prephitmp.2478
.L763:
	cmp	r3, r0	@ prephitmp.2408, D.40450
	bcs	.L765	@,
	rsb	r3, r3, r0	@ tmp203, prephitmp.2408, D.40450
	cmp	r3, r1, lsr #1	@ tmp203, MaxPicOrderCntLsb,
	bls	.L765	@,
	rsb	ip, r1, r2	@ D.40466, MaxPicOrderCntLsb, prephitmp.2478
	movw	r3, #:lower16:11161496	@ tmp205,
	movt	r3, #:upper16:11161496	@ tmp205,
	mov	r2, ip	@ prephitmp.2478, D.40466
	str	ip, [r4, r3]	@ D.40466, <variable>.CurrPOC.PicOrderCntMsb
	b	.L764	@
.L765:
	movw	r1, #:lower16:11161496	@ tmp206,
	movw	r3, #:lower16:11162625	@ tmp207,
	movt	r1, #:upper16:11161496	@ tmp206,
	movt	r3, #:upper16:11162625	@ tmp207,
	str	ip, [r4, r1]	@ prephitmp.2410, <variable>.CurrPOC.PicOrderCntMsb
	ldrb	ip, [r4, r3]	@ zero_extendqisi2	@ <variable>.CurrSlice.field_pic_flag, <variable>.CurrSlice.field_pic_flag
	cmp	ip, #0	@ <variable>.CurrSlice.field_pic_flag,
	beq	.L811	@,
.L766:
	movw	r1, #:lower16:11162626	@ tmp217,
	movt	r1, #:upper16:11162626	@ tmp217,
	movw	r3, #:lower16:11161480	@ tmp219,
	movt	r3, #:upper16:11161480	@ tmp219,
	ldrb	ip, [r4, r1]	@ zero_extendqisi2	@ <variable>.CurrSlice.bottom_field_flag, <variable>.CurrSlice.bottom_field_flag
	ldr	r1, [r4, r3]	@ <variable>.CurrPOC.pic_order_cnt_lsb, <variable>.CurrPOC.pic_order_cnt_lsb
	cmp	ip, #0	@ <variable>.CurrSlice.bottom_field_flag,
	movw	ip, #:lower16:11161524	@ tmp226,
	movt	ip, #:upper16:11161524	@ tmp226,
	add	r1, r2, r1	@ prephitmp.2403, prephitmp.2478, <variable>.CurrPOC.pic_order_cnt_lsb
	movweq	r0, #:lower16:11161512	@ tmp221,
	movwne	r0, #:lower16:11161516	@ tmp225,
	movteq	r0, #:upper16:11161512	@ tmp221,
	movtne	r0, #:upper16:11161516	@ tmp225,
	str	r1, [r4, r0]	@ prephitmp.2403,
	str	r1, [r4, ip]	@ prephitmp.2403, <variable>.CurrPOC.ThisPOC
	b	.L767	@
.L780:
	movw	r1, #:lower16:11161564	@ tmp298,
	movt	r1, #:upper16:11161564	@ tmp298,
	mov	r6, r7	@ prephitmp.2451, temp.2447
	str	r7, [r4, r1]	@ temp.2447, <variable>.CurrPOC.ExpectedPicOrderCnt
	b	.L781	@
.L785:
	movw	r3, #:lower16:11162626	@ tmp317,
	movt	r3, #:upper16:11162626	@ tmp317,
	ldrb	ip, [r4, r3]	@ zero_extendqisi2	@ <variable>.CurrSlice.bottom_field_flag, <variable>.CurrSlice.bottom_field_flag
	cmp	ip, #0	@ <variable>.CurrSlice.bottom_field_flag,
	bne	.L787	@,
	movw	ip, #:lower16:11161528	@ tmp319,
	movt	ip, #:upper16:11161528	@ tmp319,
	movw	r2, #:lower16:11161512	@ tmp321,
	movw	r0, #:lower16:11161524	@ tmp322,
	ldr	r1, [r4, ip]	@ <variable>.CurrPOC.delta_pic_order_cnt, <variable>.CurrPOC.delta_pic_order_cnt
	movt	r2, #:upper16:11161512	@ tmp321,
	movt	r0, #:upper16:11161524	@ tmp322,
	add	r6, r6, r1	@ prephitmp.2460, prephitmp.2455, <variable>.CurrPOC.delta_pic_order_cnt
	str	r6, [r4, r2]	@ prephitmp.2460,
	str	r6, [r4, r0]	@ prephitmp.2460, <variable>.CurrPOC.ThisPOC
	b	.L786	@
.L761:
	movw	r2, #:lower16:11161488	@ tmp202,
	movt	r2, #:upper16:11161488	@ tmp202,
	ldr	r2, [r4, r2]	@ prephitmp.2478, <variable>.CurrPOC.PrevPicOrderCntMsb
	b	.L763	@
.L758:
	movw	ip, #:lower16:11161508	@ tmp187,
	movt	ip, #:upper16:11161508	@ tmp187,
	ldr	r0, [r4, ip]	@ <variable>.CurrPOC.last_pic_bottom_field, <variable>.CurrPOC.last_pic_bottom_field
	cmp	r0, #0	@ <variable>.CurrPOC.last_pic_bottom_field,
	beq	.L760	@,
	movw	r0, #:lower16:11161488	@ tmp189,
	movw	r3, #:lower16:11161492	@ tmp191,
	movt	r0, #:upper16:11161488	@ tmp189,
	movt	r3, #:upper16:11161492	@ tmp191,
	str	r2, [r4, r0]	@ tmp171, <variable>.CurrPOC.PrevPicOrderCntMsb
	str	r2, [r4, r3]	@ tmp171, <variable>.CurrPOC.PrevPicOrderCntLsb
	b	.L757	@
.L787:
	movw	r3, #:lower16:11161528	@ tmp323,
	movt	r3, #:upper16:11161528	@ tmp323,
	ldr	ip, [r5, #2912]	@ <variable>.offset_for_top_to_bottom_field, <variable>.offset_for_top_to_bottom_field
	movw	r2, #:lower16:11161516	@ tmp327,
	ldr	r0, [r4, r3]	@ <variable>.CurrPOC.delta_pic_order_cnt, <variable>.CurrPOC.delta_pic_order_cnt
	movt	r2, #:upper16:11161516	@ tmp327,
	movw	r3, #:lower16:11161524	@ tmp328,
	movt	r3, #:upper16:11161524	@ tmp328,
	add	r1, r0, ip	@ tmp324, <variable>.CurrPOC.delta_pic_order_cnt, <variable>.offset_for_top_to_bottom_field
	add	r6, r1, r6	@ prephitmp.2460, tmp324, prephitmp.2455
	str	r6, [r4, r2]	@ prephitmp.2460,
	str	r6, [r4, r3]	@ prephitmp.2460, <variable>.CurrPOC.ThisPOC
	b	.L786	@
.L772:
	movw	r2, #:lower16:11161544	@ tmp248,
	movw	r7, #:lower16:11161540	@ tmp249,
	movt	r2, #:upper16:11161544	@ tmp248,
	movt	r7, #:upper16:11161540	@ tmp249,
	ldr	r2, [r4, r2]	@ <variable>.CurrPOC.frame_num, <variable>.CurrPOC.frame_num
	ldr	r3, [r4, r7]	@ <variable>.CurrPOC.PreviousFrameNum, <variable>.CurrPOC.PreviousFrameNum
	cmp	r2, r3	@ <variable>.CurrPOC.frame_num, <variable>.CurrPOC.PreviousFrameNum
	bcs	.L774	@,
	movw	ip, #:lower16:11161552	@ tmp253,
	movt	ip, #:upper16:11161552	@ tmp253,
	movw	r1, #:lower16:11161548	@ tmp252,
	movt	r1, #:upper16:11161548	@ tmp252,
	ldr	r2, [r4, ip]	@ <variable>.CurrPOC.PrevFrameNumOffset, <variable>.CurrPOC.PrevFrameNumOffset
	add	r6, r0, r2	@ tmp255, MaxFrameNum, <variable>.CurrPOC.PrevFrameNumOffset
	str	r6, [r4, r1]	@ tmp255, <variable>.CurrPOC.FrameNumOffset
	b	.L771	@
.L796:
	movw	r1, #:lower16:11162626	@ tmp372,
	movt	r1, #:upper16:11162626	@ tmp372,
	movw	ip, #:lower16:11161520	@ tmp374,
	movt	ip, #:upper16:11161520	@ tmp374,
	ldrb	r3, [r4, r1]	@ zero_extendqisi2	@ <variable>.CurrSlice.bottom_field_flag, <variable>.CurrSlice.bottom_field_flag
	str	r2, [r4, ip]	@ prephitmp.2470,
	cmp	r3, #0	@ <variable>.CurrSlice.bottom_field_flag,
	movweq	r3, #:lower16:11161512	@ tmp375,
	movwne	r3, #:lower16:11161516	@ tmp377,
	movteq	r3, #:upper16:11161512	@ tmp375,
	movtne	r3, #:upper16:11161516	@ tmp377,
	str	r2, [r4, r3]	@ prephitmp.2470,
	b	.L789	@
.L790:
	movw	ip, #:lower16:11161540	@ tmp353,
	movw	r0, #:lower16:11161552	@ tmp355,
	movt	ip, #:upper16:11161540	@ tmp353,
	movt	r0, #:upper16:11161552	@ tmp355,
	mov	r1, r2	@ prephitmp.2398, tmp171
	str	r2, [r4, ip]	@ tmp171, <variable>.CurrPOC.PreviousFrameNum
	str	r2, [r4, r0]	@ tmp171, <variable>.CurrPOC.PrevFrameNumOffset
.L792:
	movw	r3, #:lower16:11161548	@ tmp358,
	movt	r3, #:upper16:11161548	@ tmp358,
	str	r1, [r4, r3]	@ prephitmp.2398, <variable>.CurrPOC.FrameNumOffset
	b	.L793	@
.L760:
	movw	ip, #:lower16:11161512	@ tmp195,
	movt	ip, #:upper16:11161512	@ tmp195,
	movw	r6, #:lower16:11161488	@ tmp193,
	movw	r2, #:lower16:11161492	@ tmp196,
	ldr	r3, [r4, ip]	@ prephitmp.2408, <variable>.CurrPOC.toppoc
	movt	r6, #:upper16:11161488	@ tmp193,
	movt	r2, #:upper16:11161492	@ tmp196,
	mov	r5, r0	@ prephitmp.2412, <variable>.CurrPOC.last_pic_bottom_field
	mov	ip, r0	@ prephitmp.2410, prephitmp.2412
	str	r0, [r4, r6]	@ <variable>.CurrPOC.last_pic_bottom_field, <variable>.CurrPOC.PrevPicOrderCntMsb
	str	r3, [r4, r2]	@ prephitmp.2408, <variable>.CurrPOC.PrevPicOrderCntLsb
	b	.L759	@
.L774:
	movw	r0, #:lower16:11161552	@ tmp256,
	movt	r0, #:upper16:11161552	@ tmp256,
	ldr	r1, [r4, r0]	@ prephitmp.2402, <variable>.CurrPOC.PrevFrameNumOffset
	b	.L773	@
	.fnend
	.size	MVC_DecPOC, .-MVC_DecPOC
	.align	2
	.global	MVC_CalcPicNum
	.type	MVC_CalcPicNum, %function
MVC_CalcPicNum:
	.fnstart
.LFB1605:
	@ args = 0, pretend = 0, frame = 0
	@ frame_needed = 1, uses_anonymous_args = 0
	.movsp ip
	mov	ip, sp	@,
	stmfd	sp!, {r4, r5, r6, r7, r8, sl, fp, ip, lr, pc}	@,
	.pad #4
	.save {r4, r5, r6, r7, r8, sl, fp, ip, lr}
	.setfp fp, ip, #-4
	sub	fp, ip, #4	@,,
	push	{lr}
	bl	__gnu_mcount_nc
	movw	r4, #:lower16:11152036	@ tmp158,
	movt	r4, #:upper16:11152036	@ tmp158,
	movw	r2, #:lower16:11196171	@ tmp162,
	movt	r2, #:upper16:11196171	@ tmp162,
	ldr	r3, [r0, r4]	@ <variable>.pCurrSPS, <variable>.pCurrSPS
	ldrb	r2, [r0, r2]	@ zero_extendqisi2	@ D.40597, <variable>.CurrPic.structure
	ldr	r1, [r3, #2896]	@ <variable>.log2_max_frame_num_minus4, <variable>.log2_max_frame_num_minus4
	cmp	r2, #0	@ D.40597,
	mov	r3, #1	@ tmp161,
	add	ip, r1, #4	@ tmp159, <variable>.log2_max_frame_num_minus4,
	mov	ip, r3, asl ip	@ MaxFrameNum, tmp161,
	beq	.L813	@,
	movw	r7, #:lower16:11168620	@ tmp165,
	movt	r7, #:upper16:11168620	@ tmp165,
	cmp	r2, #2	@ D.40597,
	movne	r4, #0	@, add_bottom
	moveq	r4, #1	@, add_bottom
	cmp	r2, r3	@ D.40597,
	movne	r5, #0	@, add_top
	moveq	r5, #1	@, add_top
	ldr	r6, [r0, r7]	@ <variable>.DPB.ref_frames_in_buffer, <variable>.DPB.ref_frames_in_buffer
	cmp	r6, #0	@ <variable>.DPB.ref_frames_in_buffer,
	beq	.L815	@,
	movw	r8, #:lower16:11168484	@ ivtmp.2547,
	movt	r8, #:upper16:11168484	@ ivtmp.2547,
	add	r3, r0, r8	@ ivtmp.2547, pMvcCtx, ivtmp.2547
	movw	r8, #:lower16:11196648	@ tmp236,
	movt	r8, #:upper16:11196648	@ tmp236,
	mov	r2, #0	@ i,
.L828:
	ldr	r1, [r3, #0]	@ temp.2555, <variable>.DPB.fs_ref
	ldrb	r6, [r1, #2]	@ zero_extendqisi2	@ <variable>.is_reference, <variable>.is_reference
	cmp	r6, #0	@ <variable>.is_reference,
	beq	.L824	@,
	ldr	r6, [r1, #588]	@ temp.2557, <variable>.frame_num
	ldr	sl, [r0, r8]	@ <variable>.CurrPic.frame_num, <variable>.CurrPic.frame_num
	cmp	r6, sl	@ temp.2557, <variable>.CurrPic.frame_num
	rsbhi	r6, ip, r6	@ tmp194, MaxFrameNum, temp.2557
	str	r6, [r1, #592]	@ temp.2557, <variable>.frame_num_wrap
	ldr	r1, [r3, #0]	@ prephitmp.2514, <variable>.DPB.fs_ref
	ldrb	r6, [r1, #2]	@ zero_extendqisi2	@ prephitmp.2518, <variable>.is_reference
	tst	r6, #1	@ prephitmp.2518,
	beq	.L827	@,
	ldr	sl, [r1, #504]	@ tmp198,
	bic	sl, sl, #-16777216	@ tmp196, tmp198,
	bic	sl, sl, #255	@ tmp196, tmp196,
	cmp	sl, #65536	@ tmp196,
	ldreq	r6, [r1, #592]	@ <variable>.frame_num_wrap, <variable>.frame_num_wrap
	addeq	r6, r5, r6, asl #1	@, tmp201, add_top, <variable>.frame_num_wrap,
	streq	r6, [r1, #516]	@ tmp201, <variable>.top_field.pic_num
	ldreq	r1, [r3, #0]	@ prephitmp.2514, <variable>.DPB.fs_ref
	ldreqb	r6, [r1, #2]	@ zero_extendqisi2	@ prephitmp.2518, <variable>.is_reference
.L827:
	tst	r6, #2	@ prephitmp.2518,
	beq	.L824	@,
	ldr	r6, [r1, #544]	@ tmp205,
	bic	r6, r6, #-16777216	@ tmp203, tmp205,
	bic	r6, r6, #255	@ tmp203, tmp203,
	cmp	r6, #65536	@ tmp203,
	ldreq	r6, [r1, #592]	@ <variable>.frame_num_wrap, <variable>.frame_num_wrap
	addeq	r6, r4, r6, asl #1	@, tmp208, add_bottom, <variable>.frame_num_wrap,
	streq	r6, [r1, #556]	@ tmp208, <variable>.bottom_field.pic_num
.L824:
	ldr	r1, [r0, r7]	@ <variable>.DPB.ref_frames_in_buffer, <variable>.DPB.ref_frames_in_buffer
	add	r2, r2, #1	@ i, i,
	add	r3, r3, #4	@ ivtmp.2547, ivtmp.2547,
	cmp	r1, r2	@ <variable>.DPB.ref_frames_in_buffer, i
	bhi	.L828	@,
.L815:
	movw	r6, #:lower16:11168624	@ tmp211,
	movt	r6, #:upper16:11168624	@ tmp211,
	ldr	r3, [r0, r6]	@ <variable>.DPB.ltref_frames_in_buffer, <variable>.DPB.ltref_frames_in_buffer
	cmp	r3, #0	@ <variable>.DPB.ltref_frames_in_buffer,
	ldmeqfd	sp, {r4, r5, r6, r7, r8, sl, fp, sp, pc}	@
	movw	r2, #:lower16:11168548	@ ivtmp.2542,
	movt	r2, #:upper16:11168548	@ ivtmp.2542,
	add	r3, r0, r2	@ ivtmp.2542, pMvcCtx, ivtmp.2542
	mov	r2, #0	@ i.2559,
.L831:
	ldr	ip, [r3, #0]	@ prephitmp.2507, <variable>.DPB.fs_ltref
	add	r2, r2, #1	@ i.2559, i.2559,
	ldrb	r1, [ip, #2]	@ zero_extendqisi2	@ temp.2569, <variable>.is_reference
	cmp	r1, #0	@ temp.2569,
	beq	.L829	@,
	tst	r1, #1	@ prephitmp.2511,
	beq	.L830	@,
	ldr	r7, [ip, #504]	@ tmp217,
	bic	r7, r7, #-16777216	@ tmp215, tmp217,
	bic	r7, r7, #255	@ tmp215, tmp215,
	cmp	r7, #256	@ tmp215,
	ldreq	r1, [ip, #596]	@ <variable>.long_term_frame_idx, <variable>.long_term_frame_idx
	addeq	r1, r5, r1, asl #1	@, tmp220, add_top, <variable>.long_term_frame_idx,
	streq	r1, [ip, #512]	@ tmp220, <variable>.top_field.long_term_pic_num
	ldreq	ip, [r3, #0]	@ prephitmp.2507, <variable>.DPB.fs_ltref
	ldreqb	r1, [ip, #2]	@ zero_extendqisi2	@ prephitmp.2511, <variable>.is_reference
.L830:
	tst	r1, #2	@ prephitmp.2511,
	beq	.L829	@,
	ldr	r1, [ip, #544]	@ tmp224,
	bic	r1, r1, #-16777216	@ tmp222, tmp224,
	bic	r1, r1, #255	@ tmp222, tmp222,
	cmp	r1, #256	@ tmp222,
	ldreq	r1, [ip, #596]	@ <variable>.long_term_frame_idx, <variable>.long_term_frame_idx
	addeq	r1, r4, r1, asl #1	@, tmp227, add_bottom, <variable>.long_term_frame_idx,
	streq	r1, [ip, #552]	@ tmp227, <variable>.bottom_field.long_term_pic_num
.L829:
	ldr	ip, [r0, r6]	@ <variable>.DPB.ltref_frames_in_buffer, <variable>.DPB.ltref_frames_in_buffer
	add	r3, r3, #4	@ ivtmp.2542, ivtmp.2542,
	cmp	ip, r2	@ <variable>.DPB.ltref_frames_in_buffer, i.2559
	bhi	.L831	@,
	ldmfd	sp, {r4, r5, r6, r7, r8, sl, fp, sp, pc}	@
.L813:
	movw	r5, #:lower16:11168620	@ tmp167,
	movt	r5, #:upper16:11168620	@ tmp167,
	ldr	r1, [r0, r5]	@ <variable>.DPB.ref_frames_in_buffer, <variable>.DPB.ref_frames_in_buffer
	cmp	r1, #0	@ <variable>.DPB.ref_frames_in_buffer,
	beq	.L816	@,
	movw	r3, #:lower16:11168484	@ ivtmp.2537,
	movt	r3, #:upper16:11168484	@ ivtmp.2537,
	movw	r6, #:lower16:11196648	@ tmp233,
	add	r3, r0, r3	@ ivtmp.2537, pMvcCtx, ivtmp.2537
	movt	r6, #:upper16:11196648	@ tmp233,
	b	.L820	@
.L817:
	ldr	r1, [r0, r5]	@ <variable>.DPB.ref_frames_in_buffer, <variable>.DPB.ref_frames_in_buffer
	add	r2, r2, #1	@ i.2552, i.2552,
	add	r3, r3, #4	@ ivtmp.2537, ivtmp.2537,
	cmp	r1, r2	@ <variable>.DPB.ref_frames_in_buffer, i.2552
	bls	.L816	@,
.L820:
	ldr	r1, [r3, #0]	@ D.40601, <variable>.DPB.fs_ref
	ldrb	r4, [r1, #2]	@ zero_extendqisi2	@ <variable>.is_reference, <variable>.is_reference
	cmp	r4, #3	@ <variable>.is_reference,
	bne	.L817	@,
	ldr	r4, [r1, #464]	@ tmp173,
	bic	r4, r4, #-16777216	@ tmp171, tmp173,
	bic	r4, r4, #255	@ tmp171, tmp171,
	cmp	r4, #65536	@ tmp171,
	bne	.L817	@,
	ldr	r4, [r1, #588]	@ D.40609, <variable>.frame_num
	add	r2, r2, #1	@ i.2552, i.2552,
	ldr	r7, [r0, r6]	@ <variable>.CurrPic.frame_num, <variable>.CurrPic.frame_num
	cmp	r4, r7	@ D.40609, <variable>.CurrPic.frame_num
	rsb	r7, ip, r4	@ tmp176, MaxFrameNum, D.40609
	strls	r4, [r1, #592]	@ D.40609, <variable>.frame_num_wrap
	strhi	r7, [r1, #592]	@ tmp176, <variable>.frame_num_wrap
	ldr	r1, [r3, #0]	@ temp.2551, <variable>.DPB.fs_ref
	add	r3, r3, #4	@ ivtmp.2537, ivtmp.2537,
	ldr	r4, [r1, #592]	@ <variable>.frame_num_wrap, <variable>.frame_num_wrap
	str	r4, [r1, #476]	@ <variable>.frame_num_wrap, <variable>.frame.pic_num
	ldr	r1, [r0, r5]	@ <variable>.DPB.ref_frames_in_buffer, <variable>.DPB.ref_frames_in_buffer
	cmp	r1, r2	@ <variable>.DPB.ref_frames_in_buffer, i.2552
	bhi	.L820	@,
.L816:
	movw	r4, #:lower16:11168624	@ tmp180,
	movt	r4, #:upper16:11168624	@ tmp180,
	ldr	ip, [r0, r4]	@ <variable>.DPB.ltref_frames_in_buffer, <variable>.DPB.ltref_frames_in_buffer
	cmp	ip, #0	@ <variable>.DPB.ltref_frames_in_buffer,
	ldmeqfd	sp, {r4, r5, r6, r7, r8, sl, fp, sp, pc}	@
	movw	r2, #:lower16:11168548	@ ivtmp.2532,
	movt	r2, #:upper16:11168548	@ ivtmp.2532,
	add	r3, r0, r2	@ ivtmp.2532, pMvcCtx, ivtmp.2532
	mov	r2, #0	@ i.2553,
	b	.L823	@
.L822:
	ldr	r1, [r0, r4]	@ <variable>.DPB.ltref_frames_in_buffer, <variable>.DPB.ltref_frames_in_buffer
	cmp	r1, r2	@ <variable>.DPB.ltref_frames_in_buffer, i.2553
	bls	.L837	@,
.L823:
	ldr	r1, [r3, #0]	@ D.40619, <variable>.DPB.fs_ltref
	add	r2, r2, #1	@ i.2553, i.2553,
	add	r3, r3, #4	@ ivtmp.2532, ivtmp.2532,
	ldrb	ip, [r1, #2]	@ zero_extendqisi2	@ <variable>.is_reference, <variable>.is_reference
	cmp	ip, #3	@ <variable>.is_reference,
	bne	.L822	@,
	ldr	ip, [r1, #464]	@ tmp186,
	bic	ip, ip, #-16777216	@ tmp184, tmp186,
	bic	ip, ip, #255	@ tmp184, tmp184,
	cmp	ip, #256	@ tmp184,
	ldreq	ip, [r1, #596]	@ <variable>.long_term_frame_idx, <variable>.long_term_frame_idx
	streq	ip, [r1, #472]	@ <variable>.long_term_frame_idx, <variable>.frame.long_term_pic_num
	ldr	r1, [r0, r4]	@ <variable>.DPB.ltref_frames_in_buffer, <variable>.DPB.ltref_frames_in_buffer
	cmp	r1, r2	@ <variable>.DPB.ltref_frames_in_buffer, i.2553
	bhi	.L823	@,
.L837:
	ldmfd	sp, {r4, r5, r6, r7, r8, sl, fp, sp, pc}	@
	.fnend
	.size	MVC_CalcPicNum, .-MVC_CalcPicNum
	.align	2
	.global	MVC_IsOutDPB
	.type	MVC_IsOutDPB, %function
MVC_IsOutDPB:
	.fnstart
.LFB1606:
	@ args = 0, pretend = 0, frame = 0
	@ frame_needed = 1, uses_anonymous_args = 0
	.movsp ip
	mov	ip, sp	@,
	stmfd	sp!, {r3, r4, fp, ip, lr, pc}	@,
	.pad #4
	.save {r3, r4, fp, ip, lr}
	.setfp fp, ip, #-4
	sub	fp, ip, #4	@,,
	push	{lr}
	bl	__gnu_mcount_nc
	cmp	r1, #0	@ pFrameStore
	beq	.L839	@,
	movw	r3, #:lower16:11168612	@ tmp141,
	movt	r3, #:upper16:11168612	@ tmp141,
	ldr	r4, [r0, r3]	@ D.40698, <variable>.DPB.size
	cmp	r4, #0	@ D.40698,
	beq	.L839	@,
	movw	ip, #:lower16:11168420	@ ivtmp.2600,
	movt	ip, #:upper16:11168420	@ ivtmp.2600,
	add	r3, r0, ip	@ ivtmp.2600, pMvcCtx, ivtmp.2600
	sub	r2, r4, #1	@ tmp144, D.40698,
	and	r0, r2, #1	@ tmp146, tmp144,
	ldr	r2, [r3, #0]	@ D.40693, <variable>.DPB.fs
	cmp	r2, #0	@ D.40693,
	beq	.L845	@,
	cmp	r1, r2	@ pFrameStore, D.40693
	beq	.L855	@,
.L845:
	mov	r2, #1	@ i,
	cmp	r4, r2	@ D.40698, i
	add	r3, r3, #4	@ ivtmp.2600, ivtmp.2600,
	bls	.L839	@,
	cmp	r0, #0	@ tmp146,
	beq	.L842	@,
	ldr	r0, [r3, #0]	@ D.40693, <variable>.DPB.fs
	cmp	r0, #0	@ D.40693,
	beq	.L847	@,
	cmp	r1, r0	@ pFrameStore, D.40693
	beq	.L855	@,
.L847:
	add	r2, r2, #1	@ i, i,
	add	r3, r3, #4	@ ivtmp.2600, ivtmp.2600,
	cmp	r4, r2	@ D.40698, i
	bls	.L839	@,
.L842:
	ldr	r0, [r3, #0]	@ D.40693, <variable>.DPB.fs
	add	r2, r2, #1	@ tmp147, i,
	add	ip, r3, #4	@ tmp148, ivtmp.2600,
	cmp	r0, #0	@ D.40693,
	beq	.L840	@,
	cmp	r1, r0	@ pFrameStore, D.40693
	beq	.L855	@,
.L840:
	ldr	r3, [r3, #4]	@ D.40693, <variable>.DPB.fs
	cmp	r3, #0	@ D.40693,
	beq	.L850	@,
	cmp	r1, r3	@ pFrameStore, D.40693
	beq	.L855	@,
.L850:
	add	r2, r2, #1	@ i, tmp147,
	add	r3, ip, #4	@ ivtmp.2600, tmp148,
	cmp	r4, r2	@ D.40698, i
	bhi	.L842	@,
.L839:
	mov	r0, #1	@ D.40691,
	ldmfd	sp, {r3, r4, fp, sp, pc}	@
.L855:
	mov	r0, #0	@ D.40691,
	ldmfd	sp, {r3, r4, fp, sp, pc}	@
	.fnend
	.size	MVC_IsOutDPB, .-MVC_IsOutDPB
	.align	2
	.global	mvc_combine_scalinglist
	.type	mvc_combine_scalinglist, %function
mvc_combine_scalinglist:
	.fnstart
.LFB1609:
	@ args = 0, pretend = 0, frame = 0
	@ frame_needed = 1, uses_anonymous_args = 0
	.movsp ip
	mov	ip, sp	@,
	stmfd	sp!, {r3, r4, r5, r6, r7, r8, r9, sl, fp, ip, lr, pc}	@,
	.pad #4
	.save {r3, r4, r5, r6, r7, r8, r9, sl, fp, ip, lr}
	.setfp fp, ip, #-4
	sub	fp, ip, #4	@,,
	push	{lr}
	bl	__gnu_mcount_nc
	cmp	r2, #0	@ sizeOfScalingList
	ldmlefd	sp, {r3, r4, r5, r6, r7, r8, r9, sl, fp, sp, pc}	@
	movw	r5, #:lower16:.LANCHOR0	@ tmp155,
	movt	r5, #:upper16:.LANCHOR0	@ tmp155,
	cmp	r2, #16	@ sizeOfScalingList,
	add	r4, r5, #16	@ tmp156, tmp155,
	sub	r9, r2, #1	@ tmp158, sizeOfScalingList,
	mov	ip, #255	@ tmp157,
	and	r9, r9, #1	@ tmp160, tmp158,
	ldrneb	r3, [r4, #0]	@ zero_extendqisi2	@ scani, MVC_g_ZZ_SCAN8
	beq	.L877	@,
.L873:
	and	r6, r3, #252	@ tmp167, scani,
	and	r7, r3, #3	@ tmp169, scani,
	add	r6, r1, r6	@ D.40976, scalingList, tmp167
	ldrb	sl, [r0, r3, asl #2]	@ zero_extendqisi2	@ tmp177,* scalingList_Org
	mov	r7, r7, asl #3	@ D.40979, tmp169,
	mov	r3, #1	@ i,
	ldr	r8, [r6, #0]	@ tmp174,* D.40976
	cmp	r3, r2	@ i, sizeOfScalingList
	bic	r8, r8, ip, asl r7	@ tmp175, tmp174, tmp157,
	orr	r7, r8, sl, asl r7	@, tmp179, tmp175, tmp177,
	str	r7, [r6, #0]	@ tmp179,* D.40976
	ldmeqfd	sp, {r3, r4, r5, r6, r7, r8, r9, sl, fp, sp, pc}	@
	cmp	r9, #0	@ tmp160,
	beq	.L860	@,
	cmp	r2, #16	@ sizeOfScalingList,
	ldrneb	r6, [r4, r3]	@ zero_extendqisi2	@ scani, MVC_g_ZZ_SCAN8
	ldreqb	r6, [r5, r3]	@ zero_extendqisi2	@ scani, MVC_g_ZZ_SCAN
	add	r3, r3, #1	@ i, i,
	cmp	r3, r2	@ i, sizeOfScalingList
	and	sl, r6, #252	@ tmp183, scani,
	and	r8, r6, #3	@ tmp185, scani,
	add	r7, r1, sl	@ D.40976, scalingList, tmp183
	ldrb	sl, [r0, r6, asl #2]	@ zero_extendqisi2	@ tmp193,* scalingList_Org
	mov	r6, r8, asl #3	@ D.40979, tmp185,
	ldr	r8, [r7, #0]	@ tmp190,* D.40976
	bic	r8, r8, ip, asl r6	@ tmp191, tmp190, tmp157,
	orr	r6, r8, sl, asl r6	@, tmp195, tmp191, tmp193,
	str	r6, [r7, #0]	@ tmp195,* D.40976
	bne	.L860	@,
	ldmfd	sp, {r3, r4, r5, r6, r7, r8, r9, sl, fp, sp, pc}	@
.L876:
	mov	r7, r6, lsr #2	@ tmp198, scani,
	and	r8, r6, #3	@ tmp201, scani,
	ldrb	sl, [r0, r6, asl #2]	@ zero_extendqisi2	@ tmp209,* scalingList_Org
	add	r3, r3, #1	@ i, tmp161,
	mov	r6, r8, asl #3	@ D.40979, tmp201,
	ldr	r8, [r1, r7, asl #2]	@ tmp206,* scalingList
	cmp	r3, r2	@ i, sizeOfScalingList
	bic	r8, r8, ip, asl r6	@ tmp207, tmp206, tmp157,
	orr	r6, r8, sl, asl r6	@, tmp211, tmp207, tmp209,
	str	r6, [r1, r7, asl #2]	@ tmp211,* scalingList
	beq	.L878	@,
.L860:
	cmp	r2, #16	@ sizeOfScalingList,
	ldreqb	r6, [r5, r3]	@ zero_extendqisi2	@ scani, MVC_g_ZZ_SCAN
	ldrneb	r6, [r4, r3]	@ zero_extendqisi2	@ scani, MVC_g_ZZ_SCAN8
	cmp	r2, #16	@ sizeOfScalingList,
	add	r3, r3, #1	@ tmp161, i,
	and	r8, r6, #3	@ tmp145, scani,
	mov	r7, r6, lsr #2	@ tmp143, scani,
	ldrb	sl, [r0, r6, asl #2]	@ zero_extendqisi2	@ tmp151,* scalingList_Org
	mov	r6, r8, asl #3	@ D.40979, tmp145,
	ldr	r8, [r1, r7, asl #2]	@ tmp150,* scalingList
	bic	r8, r8, ip, asl r6	@ tmp149, tmp150, tmp157,
	orr	r6, r8, sl, asl r6	@, tmp154, tmp149, tmp151,
	str	r6, [r1, r7, asl #2]	@ tmp154,* scalingList
	ldrneb	r6, [r4, r3]	@ zero_extendqisi2	@ scani, MVC_g_ZZ_SCAN8
	ldreqb	r6, [r5, r3]	@ zero_extendqisi2	@ scani, MVC_g_ZZ_SCAN
	b	.L876	@
.L878:
	ldmfd	sp, {r3, r4, r5, r6, r7, r8, r9, sl, fp, sp, pc}	@
.L877:
	ldrb	r3, [r5, #0]	@ zero_extendqisi2	@ scani, MVC_g_ZZ_SCAN
	b	.L873	@
	.fnend
	.size	mvc_combine_scalinglist, .-mvc_combine_scalinglist
	.align	2
	.global	MVC_UpdatePicQpInf
	.type	MVC_UpdatePicQpInf, %function
MVC_UpdatePicQpInf:
	.fnstart
.LFB1614:
	@ args = 0, pretend = 0, frame = 0
	@ frame_needed = 1, uses_anonymous_args = 0
	.movsp ip
	mov	ip, sp	@,
	stmfd	sp!, {fp, ip, lr, pc}	@,
	.pad #4
	.save {fp, ip, lr}
	.setfp fp, ip, #-4
	sub	fp, ip, #4	@,,
	push	{lr}
	bl	__gnu_mcount_nc
	ldr	r2, [r1, #32]	@ <variable>.MaxQp, <variable>.MaxQp
	ldr	r3, [r1, #36]	@ <variable>.MinQp, <variable>.MinQp
	cmp	r2, r0	@ <variable>.MaxQp, SlcQp
	strge	r2, [r1, #32]	@, <variable>.MaxQp, <variable>.MaxQp
	strlt	r0, [r1, #32]	@, SlcQp, <variable>.MaxQp
	cmp	r3, r0	@ <variable>.MinQp, SlcQp
	strle	r3, [r1, #36]	@, <variable>.MinQp, <variable>.MinQp
	strgt	r0, [r1, #36]	@, SlcQp, <variable>.MinQp
	ldmfd	sp, {fp, sp, pc}	@
	.fnend
	.size	MVC_UpdatePicQpInf, .-MVC_UpdatePicQpInf
	.align	2
	.global	MVC_StopPicNum
	.type	MVC_StopPicNum, %function
MVC_StopPicNum:
	.fnstart
.LFB1616:
	@ args = 0, pretend = 0, frame = 0
	@ frame_needed = 1, uses_anonymous_args = 0
	.movsp ip
	mov	ip, sp	@,
	stmfd	sp!, {fp, ip, lr, pc}	@,
	.pad #4
	.save {fp, ip, lr}
	.setfp fp, ip, #-4
	sub	fp, ip, #4	@,,
	push	{lr}
	bl	__gnu_mcount_nc
	ldmfd	sp, {fp, sp, pc}	@
	.fnend
	.size	MVC_StopPicNum, .-MVC_StopPicNum
	.align	2
	.global	MVC_GetPicStreamSize
	.type	MVC_GetPicStreamSize, %function
MVC_GetPicStreamSize:
	.fnstart
.LFB1618:
	@ args = 0, pretend = 0, frame = 0
	@ frame_needed = 1, uses_anonymous_args = 0
	.movsp ip
	mov	ip, sp	@,
	stmfd	sp!, {fp, ip, lr, pc}	@,
	.pad #4
	.save {fp, ip, lr}
	.setfp fp, ip, #-4
	sub	fp, ip, #4	@,,
	push	{lr}
	bl	__gnu_mcount_nc
	movw	r3, #:lower16:11199172	@ tmp138,
	movt	r3, #:upper16:11199172	@ tmp138,
	ldr	r3, [r0, r3]	@ pMVCSliceParam, <variable>.DecPicPara.pFirstSlice
	cmp	r3, #0	@ pMVCSliceParam,
	moveq	r0, r3	@ TotalSize, pMVCSliceParam
	ldmeqfd	sp, {fp, sp, pc}	@
	mov	r0, #0	@ TotalSize,
.L886:
	ldr	r2, [r3, #12]	@ <variable>.valid_bitlen, <variable>.valid_bitlen
	ldr	r1, [r3, #8]	@ <variable>.valid_bitlen, <variable>.valid_bitlen
	ldr	r3, [r3, #4056]	@ pMVCSliceParam, <variable>.pNextSlice
	add	ip, r1, r2	@ tmp139, <variable>.valid_bitlen, <variable>.valid_bitlen
	add	r2, ip, #7	@ tmp142, tmp139,
	cmp	r3, #0	@ pMVCSliceParam,
	add	r0, r0, r2, lsr #3	@, TotalSize, TotalSize, tmp142,
	bne	.L886	@,
	ldmfd	sp, {fp, sp, pc}	@
	.fnend
	.size	MVC_GetPicStreamSize, .-MVC_GetPicStreamSize
	.align	2
	.global	MVC_ExitSlice
	.type	MVC_ExitSlice, %function
MVC_ExitSlice:
	.fnstart
.LFB1629:
	@ args = 0, pretend = 0, frame = 0
	@ frame_needed = 1, uses_anonymous_args = 0
	.movsp ip
	mov	ip, sp	@,
	stmfd	sp!, {r3, r4, r5, r6, r7, r8, fp, ip, lr, pc}	@,
	.pad #4
	.save {r3, r4, r5, r6, r7, r8, fp, ip, lr}
	.setfp fp, ip, #-4
	sub	fp, ip, #4	@,,
	push	{lr}
	bl	__gnu_mcount_nc
	movw	r2, #:lower16:11152036	@ tmp136,
	movw	r5, #:lower16:11162632	@ tmp138,
	movt	r2, #:upper16:11152036	@ tmp136,
	movt	r5, #:upper16:11162632	@ tmp138,
	movw	r1, #:lower16:11162625	@ tmp149,
	ldr	r4, [r0, r2]	@ sps, <variable>.pCurrSPS
	movt	r1, #:upper16:11162625	@ tmp149,
	ldr	r6, [r0, r5]	@ <variable>.CurrSlice.pic_parameter_set_id, <variable>.CurrSlice.pic_parameter_set_id
	movw	r7, #:lower16:11164312	@ tmp137,
	movw	r3, #:lower16:11162676	@ tmp143,
	movt	r7, #:upper16:11164312	@ tmp137,
	movt	r3, #:upper16:11162676	@ tmp143,
	movw	r8, #:lower16:11162644	@ tmp146,
	movt	r8, #:upper16:11162644	@ tmp146,
	ldrb	r5, [r0, r1]	@ zero_extendqisi2	@ <variable>.CurrSlice.field_pic_flag, <variable>.CurrSlice.field_pic_flag
	str	r6, [r0, r7]	@ <variable>.CurrSlice.pic_parameter_set_id, <variable>.PrevSlice.pic_parameter_set_id
	movw	ip, #:lower16:11164308	@ tmp140,
	ldr	r7, [r0, r3]	@ <variable>.CurrSlice.first_mb_in_slice, <variable>.CurrSlice.first_mb_in_slice
	movt	ip, #:upper16:11164308	@ tmp140,
	ldr	r6, [r0, r8]	@ <variable>.CurrSlice.frame_num, <variable>.CurrSlice.frame_num
	movw	r1, #:lower16:11164344	@ tmp142,
	ldr	r8, [r4, #744]	@ <variable>.seq_parameter_set_id, <variable>.seq_parameter_set_id
	movt	r1, #:upper16:11164344	@ tmp142,
	movw	r2, #:lower16:11164320	@ tmp145,
	movw	r3, #:lower16:11164304	@ tmp148,
	movt	r2, #:upper16:11164320	@ tmp145,
	movt	r3, #:upper16:11164304	@ tmp148,
	cmp	r5, #0	@ <variable>.CurrSlice.field_pic_flag,
	str	r8, [r0, ip]	@ <variable>.seq_parameter_set_id, <variable>.PrevSlice.seq_parameter_set_id
	str	r7, [r0, r1]	@ <variable>.CurrSlice.first_mb_in_slice, <variable>.PrevSlice.first_mb_in_slice
	str	r6, [r0, r2]	@ <variable>.CurrSlice.frame_num, <variable>.PrevSlice.frame_num
	strb	r5, [r0, r3]	@ <variable>.CurrSlice.field_pic_flag, <variable>.PrevSlice.field_pic_flag
	beq	.L890	@,
	movw	r1, #:lower16:11162626	@ tmp155,
	movt	r1, #:upper16:11162626	@ tmp155,
	movw	r3, #:lower16:11164305	@ tmp154,
	movt	r3, #:upper16:11164305	@ tmp154,
	ldrb	ip, [r0, r1]	@ zero_extendqisi2	@ <variable>.CurrSlice.bottom_field_flag, <variable>.CurrSlice.bottom_field_flag
	strb	ip, [r0, r3]	@ <variable>.CurrSlice.bottom_field_flag, <variable>.PrevSlice.bottom_field_flag
.L890:
	movw	r2, #:lower16:11162627	@ tmp162,
	movt	r2, #:upper16:11162627	@ tmp162,
	movw	r3, #:lower16:11162656	@ tmp159,
	movt	r3, #:upper16:11162656	@ tmp159,
	ldrb	r1, [r0, r2]	@ zero_extendqisi2	@ <variable>.CurrSlice.nal_unit_type, <variable>.CurrSlice.nal_unit_type
	movw	r2, #:lower16:11164316	@ tmp158,
	ldr	ip, [r0, r3]	@ <variable>.CurrSlice.nal_ref_idc, <variable>.CurrSlice.nal_ref_idc
	movt	r2, #:upper16:11164316	@ tmp158,
	movw	r3, #:lower16:11164306	@ tmp161,
	cmp	r1, #5	@ <variable>.CurrSlice.nal_unit_type,
	movt	r3, #:upper16:11164306	@ tmp161,
	str	ip, [r0, r2]	@ <variable>.CurrSlice.nal_ref_idc, <variable>.PrevSlice.nal_ref_idc
	strb	r1, [r0, r3]	@ <variable>.CurrSlice.nal_unit_type, <variable>.PrevSlice.nal_unit_type
	beq	.L896	@,
.L891:
	ldr	r3, [r4, #2900]	@ prephitmp.2736, <variable>.pic_order_cnt_type
	cmp	r3, #0	@ prephitmp.2736,
	bne	.L892	@,
	movw	r1, #:lower16:11161480	@ tmp171,
	movw	r3, #:lower16:11161484	@ tmp174,
	movt	r1, #:upper16:11161480	@ tmp171,
	movt	r3, #:upper16:11161484	@ tmp174,
	movw	r2, #:lower16:11164328	@ tmp170,
	movt	r2, #:upper16:11164328	@ tmp170,
	ldr	ip, [r0, r1]	@ <variable>.CurrPOC.pic_order_cnt_lsb, <variable>.CurrPOC.pic_order_cnt_lsb
	ldr	r1, [r0, r3]	@ <variable>.CurrPOC.delta_pic_order_cnt_bottom, <variable>.CurrPOC.delta_pic_order_cnt_bottom
	movw	r3, #:lower16:11164332	@ tmp173,
	movt	r3, #:upper16:11164332	@ tmp173,
	str	ip, [r0, r2]	@ <variable>.CurrPOC.pic_order_cnt_lsb, <variable>.PrevSlice.pic_oder_cnt_lsb
	str	r1, [r0, r3]	@ <variable>.CurrPOC.delta_pic_order_cnt_bottom, <variable>.PrevSlice.delta_pic_oder_cnt_bottom
	ldr	r3, [r4, #2900]	@ prephitmp.2736, <variable>.pic_order_cnt_type
.L892:
	cmp	r3, #1	@ prephitmp.2736,
	beq	.L897	@,
.L893:
	movw	ip, #:lower16:11164276	@ tmp182,
	movt	ip, #:upper16:11164276	@ tmp182,
	ldr	r2, [r0, ip]	@ <variable>.CurrSlice.mvcinfo_flag, <variable>.CurrSlice.mvcinfo_flag
	cmp	r2, #1	@ <variable>.CurrSlice.mvcinfo_flag,
	bne	.L894	@,
	movw	r4, #:lower16:11164280	@ tmp185,
	movw	ip, #:lower16:11164288	@ tmp188,
	movt	r4, #:upper16:11164280	@ tmp185,
	movt	ip, #:upper16:11164288	@ tmp188,
	movw	r3, #:lower16:11164292	@ tmp191,
	movt	r3, #:upper16:11164292	@ tmp191,
	ldr	r5, [r0, r4]	@ <variable>.CurrSlice.view_id, <variable>.CurrSlice.view_id
	movw	r1, #:lower16:11164348	@ tmp184,
	ldr	r4, [r0, ip]	@ <variable>.CurrSlice.anchor_pic_flag, <variable>.CurrSlice.anchor_pic_flag
	movt	r1, #:upper16:11164348	@ tmp184,
	ldr	ip, [r0, r3]	@ <variable>.CurrSlice.inter_view_flag, <variable>.CurrSlice.inter_view_flag
	movw	r2, #:lower16:11164352	@ tmp187,
	movw	r3, #:lower16:11164356	@ tmp190,
	movt	r2, #:upper16:11164352	@ tmp187,
	movt	r3, #:upper16:11164356	@ tmp190,
	str	r5, [r0, r1]	@ <variable>.CurrSlice.view_id, <variable>.PrevSlice.view_id
	str	r4, [r0, r2]	@ <variable>.CurrSlice.anchor_pic_flag, <variable>.PrevSlice.anchor_pic_flag
	str	ip, [r0, r3]	@ <variable>.CurrSlice.inter_view_flag, <variable>.PrevSlice.inter_view_flag
.L894:
	movw	r1, #:lower16:11199476	@ tmp193,
	movt	r1, #:upper16:11199476	@ tmp193,
	ldr	r3, [r0, r1]	@ <variable>.TotalSlice, <variable>.TotalSlice
	add	r2, r3, #1	@ tmp196, <variable>.TotalSlice,
	str	r2, [r0, r1]	@ tmp196, <variable>.TotalSlice
	ldmfd	sp, {r3, r4, r5, r6, r7, r8, fp, sp, pc}	@
.L897:
	movw	r1, #:lower16:11161528	@ tmp177,
	movw	r3, #:lower16:11161532	@ tmp180,
	movt	r1, #:upper16:11161528	@ tmp177,
	movt	r3, #:upper16:11161532	@ tmp180,
	movw	r2, #:lower16:11164336	@ tmp176,
	movt	r2, #:upper16:11164336	@ tmp176,
	ldr	ip, [r0, r1]	@ <variable>.CurrPOC.delta_pic_order_cnt, <variable>.CurrPOC.delta_pic_order_cnt
	ldr	r1, [r0, r3]	@ <variable>.CurrPOC.delta_pic_order_cnt, <variable>.CurrPOC.delta_pic_order_cnt
	movw	r3, #:lower16:11164340	@ tmp179,
	movt	r3, #:upper16:11164340	@ tmp179,
	str	ip, [r0, r2]	@ <variable>.CurrPOC.delta_pic_order_cnt, <variable>.PrevSlice.delta_pic_order_cnt
	str	r1, [r0, r3]	@ <variable>.CurrPOC.delta_pic_order_cnt, <variable>.PrevSlice.delta_pic_order_cnt
	b	.L893	@
.L896:
	movw	r3, #:lower16:11162664	@ tmp168,
	movt	r3, #:upper16:11162664	@ tmp168,
	movw	ip, #:lower16:11164324	@ tmp167,
	movt	ip, #:upper16:11164324	@ tmp167,
	ldr	r1, [r0, r3]	@ <variable>.CurrSlice.idr_pic_id, <variable>.CurrSlice.idr_pic_id
	str	r1, [r0, ip]	@ <variable>.CurrSlice.idr_pic_id, <variable>.PrevSlice.idr_pic_id
	b	.L891	@
	.fnend
	.size	MVC_ExitSlice, .-MVC_ExitSlice
	.align	2
	.global	MVC_PicTypeStatistic
	.type	MVC_PicTypeStatistic, %function
MVC_PicTypeStatistic:
	.fnstart
.LFB1630:
	@ args = 0, pretend = 0, frame = 0
	@ frame_needed = 1, uses_anonymous_args = 0
	.movsp ip
	mov	ip, sp	@,
	stmfd	sp!, {fp, ip, lr, pc}	@,
	.pad #4
	.save {fp, ip, lr}
	.setfp fp, ip, #-4
	sub	fp, ip, #4	@,,
	push	{lr}
	bl	__gnu_mcount_nc
	movw	r3, #:lower16:11162624	@ tmp134,
	movt	r3, #:upper16:11162624	@ tmp134,
	ldrb	r3, [r0, r3]	@ zero_extendqisi2	@ <variable>.CurrSlice.slice_type, <variable>.CurrSlice.slice_type
	cmp	r3, #1	@ <variable>.CurrSlice.slice_type,
	beq	.L901	@,
	bcs	.L906	@,
	movw	ip, #:lower16:11196692	@ tmp140,
	movt	ip, #:upper16:11196692	@ tmp140,
	ldr	r2, [r0, ip]	@ <variable>.CurrPic.pic_type, <variable>.CurrPic.pic_type
	cmp	r2, #2	@ <variable>.CurrPic.pic_type,
	movne	r2, #1	@ tmp143,
	strne	r2, [r0, ip]	@ tmp143, <variable>.CurrPic.pic_type
.L904:
	movw	r3, #:lower16:11196696	@ tmp150,
	movt	r3, #:upper16:11196696	@ tmp150,
	mov	r1, #0	@ tmp151,
	str	r1, [r0, r3]	@ tmp151, <variable>.CurrPic.is_idr_pic
	ldmfd	sp, {fp, sp, pc}	@
.L906:
	cmp	r3, #2	@ <variable>.CurrSlice.slice_type,
	ldmnefd	sp, {fp, sp, pc}	@
	movw	r3, #:lower16:11162627	@ tmp146,
	movt	r3, #:upper16:11162627	@ tmp146,
	ldrb	r1, [r0, r3]	@ zero_extendqisi2	@ <variable>.CurrSlice.nal_unit_type, <variable>.CurrSlice.nal_unit_type
	cmp	r1, #5	@ <variable>.CurrSlice.nal_unit_type,
	bne	.L904	@,
	movw	ip, #:lower16:11196696	@ tmp148,
	movt	ip, #:upper16:11196696	@ tmp148,
	mov	r2, #1	@ tmp149,
	str	r2, [r0, ip]	@ tmp149, <variable>.CurrPic.is_idr_pic
	ldmfd	sp, {fp, sp, pc}	@
.L901:
	movw	r3, #:lower16:11196692	@ tmp136,
	movw	ip, #:lower16:11196696	@ tmp138,
	movt	r3, #:upper16:11196692	@ tmp136,
	movt	ip, #:upper16:11196696	@ tmp138,
	mov	r1, #2	@ tmp137,
	mov	r2, #0	@ tmp139,
	str	r1, [r0, r3]	@ tmp137, <variable>.CurrPic.pic_type
	str	r2, [r0, ip]	@ tmp139, <variable>.CurrPic.is_idr_pic
	ldmfd	sp, {fp, sp, pc}	@
	.fnend
	.size	MVC_PicTypeStatistic, .-MVC_PicTypeStatistic
	.align	2
	.global	MVC_FreeMvcExtMem
	.type	MVC_FreeMvcExtMem, %function
MVC_FreeMvcExtMem:
	.fnstart
.LFB1642:
	@ args = 0, pretend = 0, frame = 0
	@ frame_needed = 1, uses_anonymous_args = 0
	.movsp ip
	mov	ip, sp	@,
	stmfd	sp!, {fp, ip, lr, pc}	@,
	.pad #4
	.save {fp, ip, lr}
	.setfp fp, ip, #-4
	sub	fp, ip, #4	@,,
	push	{lr}
	bl	__gnu_mcount_nc
	mov	r0, #0	@,
	ldmfd	sp, {fp, sp, pc}	@
	.fnend
	.size	MVC_FreeMvcExtMem, .-MVC_FreeMvcExtMem
	.align	2
	.global	MVC_FreeMvcVuiExtMem
	.type	MVC_FreeMvcVuiExtMem, %function
MVC_FreeMvcVuiExtMem:
	.fnstart
.LFB1643:
	@ args = 0, pretend = 0, frame = 0
	@ frame_needed = 1, uses_anonymous_args = 0
	.movsp ip
	mov	ip, sp	@,
	stmfd	sp!, {fp, ip, lr, pc}	@,
	.pad #4
	.save {fp, ip, lr}
	.setfp fp, ip, #-4
	sub	fp, ip, #4	@,,
	push	{lr}
	bl	__gnu_mcount_nc
	mov	r0, #0	@,
	ldmfd	sp, {fp, sp, pc}	@
	.fnend
	.size	MVC_FreeMvcVuiExtMem, .-MVC_FreeMvcVuiExtMem
	.align	2
	.global	MVC_PassBytes
	.type	MVC_PassBytes, %function
MVC_PassBytes:
	.fnstart
.LFB1647:
	@ args = 0, pretend = 0, frame = 0
	@ frame_needed = 1, uses_anonymous_args = 0
	.movsp ip
	mov	ip, sp	@,
	stmfd	sp!, {r4, r5, fp, ip, lr, pc}	@,
	.pad #4
	.save {r4, r5, fp, ip, lr}
	.setfp fp, ip, #-4
	sub	fp, ip, #4	@,,
	push	{lr}
	bl	__gnu_mcount_nc
	ldr	r3, [r0, #368]	@ D.44535, <variable>.pCurrNal
	cmp	r3, #0	@ D.44535,
	cmpne	r1, #0	@, len,
	bne	.L918	@,
.L912:
	mvn	r0, #0	@ D.44541,
	ldmfd	sp, {r4, r5, fp, sp, pc}	@
.L918:
	ldrb	r2, [r3, #0]	@ zero_extendqisi2	@ D.44542, <variable>.nal_used_segment
	rsb	ip, r2, r2, asl #3	@, tmp154, D.44542, D.44542,
	add	ip, r3, ip, asl #2	@, tmp156, D.44535, tmp154,
	ldr	ip, [ip, #4]	@ <variable>.streamBuffer, <variable>.streamBuffer
	cmp	ip, #0	@ <variable>.streamBuffer,
	beq	.L912	@,
	ldr	ip, [r3, #64]	@ D.44549, <variable>.nal_segment
	cmp	ip, #2	@ D.44549,
	bhi	.L912	@,
	cmp	r2, #1	@ D.44542,
	bhi	.L912	@,
	cmp	ip, r2	@ D.44549, segment_idx
	bls	.L912	@,
	mov	r4, r1, asl #3	@ len.2847, len,
	mov	r5, #28	@ tmp184,
.L916:
	mla	r3, r5, r2, r3	@ tmp161, tmp184, segment_idx, D.44535
	add	r2, r2, #1	@ segment_idx, segment_idx,
	add	ip, r3, #16	@ tmp162, tmp161,
	ldr	r1, [r3, #8]	@ <variable>.bitstream_length, <variable>.bitstream_length
	ldr	r3, [ip, #4]	@ <variable>.bitsoffset, <variable>.bitsoffset
	mov	r1, r1, asl #3	@ D.44557, <variable>.bitstream_length,
	add	r3, r4, r3	@ D.44555, len.2847, <variable>.bitsoffset
	cmp	r3, r1	@ D.44555, D.44557
	rsb	r4, r1, r3	@ len.2847, D.44557, D.44555
	bls	.L919	@,
	str	r1, [ip, #4]	@ D.44557, <variable>.bitsoffset
	ldr	r3, [r0, #368]	@ temp.2848, <variable>.pCurrNal
	ldrb	ip, [r3, #0]	@ zero_extendqisi2	@ <variable>.nal_used_segment, <variable>.nal_used_segment
	add	r1, ip, #1	@ tmp180, <variable>.nal_used_segment,
	strb	r1, [r3, #0]	@ tmp180, <variable>.nal_used_segment
	ldr	r3, [r0, #368]	@ D.44535, <variable>.pCurrNal
	ldr	ip, [r3, #64]	@ <variable>.nal_segment, <variable>.nal_segment
	cmp	ip, r2	@ <variable>.nal_segment, segment_idx
	bhi	.L916	@,
	mov	r0, #0	@ D.44541,
	ldmfd	sp, {r4, r5, fp, sp, pc}	@
.L919:
	str	r3, [ip, #4]	@ D.44555, <variable>.bitsoffset
	mov	r0, #1	@ D.44541,
	ldmfd	sp, {r4, r5, fp, sp, pc}	@
	.fnend
	.size	MVC_PassBytes, .-MVC_PassBytes
	.align	2
	.global	MVC_GetBytes
	.type	MVC_GetBytes, %function
MVC_GetBytes:
	.fnstart
.LFB1648:
	@ args = 0, pretend = 0, frame = 0
	@ frame_needed = 1, uses_anonymous_args = 0
	.movsp ip
	mov	ip, sp	@,
	stmfd	sp!, {r3, r4, r5, r6, r7, r8, r9, sl, fp, ip, lr, pc}	@,
	.pad #4
	.save {r3, r4, r5, r6, r7, r8, r9, sl, fp, ip, lr}
	.setfp fp, ip, #-4
	sub	fp, ip, #4	@,,
	push	{lr}
	bl	__gnu_mcount_nc
	cmp	r1, #0	@ pdes
	bne	.L929	@,
.L921:
	mvn	r0, #0	@ D.44583,
	ldmfd	sp, {r3, r4, r5, r6, r7, r8, r9, sl, fp, sp, pc}	@
.L929:
	ldr	r5, [r0, #368]	@ D.44579, <variable>.pCurrNal
	cmp	r5, #0	@ D.44579,
	cmpne	r2, #0	@, len,
	movne	r4, #0	@, tmp158
	moveq	r4, #1	@, tmp158
	beq	.L921	@,
	ldrb	ip, [r5, #0]	@ zero_extendqisi2	@ D.44584, <variable>.nal_used_segment
	rsb	r3, ip, ip, asl #3	@, tmp161, D.44584, D.44584,
	add	r3, r5, r3, asl #2	@, tmp163, D.44579, tmp161,
	ldr	r3, [r3, #4]	@ <variable>.streamBuffer, <variable>.streamBuffer
	cmp	r3, #0	@ <variable>.streamBuffer,
	beq	.L921	@,
	ldr	r3, [r5, #64]	@ D.44591, <variable>.nal_segment
	cmp	r3, #2	@ D.44591,
	bhi	.L921	@,
	cmp	ip, #1	@ D.44584,
	bhi	.L921	@,
	cmp	r3, ip	@ D.44591, segment_idx
	bls	.L921	@,
	mov	r9, #28	@ tmp202,
.L926:
	mul	r8, r9, ip	@ tmp165, tmp202, segment_idx
	mov	r3, #0	@ ivtmp.2878,
	add	sl, r8, r5	@ tmp167, tmp165, D.44579
	ldr	r6, [sl, #20]	@ <variable>.bitsoffset, <variable>.bitsoffset
	ldmib	sl, {r5, r7}	@ phole ldm
	add	r6, r6, #7	@ tmp173, <variable>.bitsoffset,
	add	r7, r5, r7	@ end_byte, D.44596, <variable>.bitstream_length
	add	r5, r5, r6, lsr #3	@, byte_pos, D.44596, tmp173,
.L922:
	add	sl, r3, r5	@ D.48470, ivtmp.2878, byte_pos
	add	r6, r3, r1	@ D.48468, ivtmp.2878, pdes
	cmp	r7, sl	@ end_byte, D.48470
	bls	.L930	@,
	ldrb	r6, [r5, r3]	@ zero_extendqisi2	@ tmp180,* ivtmp.2878
	add	r4, r4, #1	@ cnt, cnt,
	cmp	r2, r4	@ len, cnt
	strb	r6, [r1, r3]	@ tmp180,* ivtmp.2878
	add	r3, r3, #1	@ ivtmp.2878, ivtmp.2878,
	ldr	sl, [r0, #368]	@ temp.2896, <variable>.pCurrNal
	add	r6, r8, sl	@ tmp185, tmp201, temp.2896
	add	r6, r6, #16	@ tmp186, tmp185,
	ldr	sl, [r6, #4]	@ <variable>.bitsoffset, <variable>.bitsoffset
	add	sl, sl, #8	@ tmp193, <variable>.bitsoffset,
	str	sl, [r6, #4]	@ tmp193, <variable>.bitsoffset
	bhi	.L922	@,
	mov	r0, r2	@ D.44583, len
	ldmfd	sp, {r3, r4, r5, r6, r7, r8, r9, sl, fp, sp, pc}	@
.L930:
	ldr	r3, [r0, #368]	@ temp.2898, <variable>.pCurrNal
	add	ip, ip, #1	@ segment_idx, segment_idx,
	ldrb	r1, [r3, #0]	@ zero_extendqisi2	@ <variable>.nal_used_segment, <variable>.nal_used_segment
	add	r5, r1, #1	@ tmp196, <variable>.nal_used_segment,
	strb	r5, [r3, #0]	@ tmp196, <variable>.nal_used_segment
	ldr	r5, [r0, #368]	@ D.44579, <variable>.pCurrNal
	ldr	r1, [r5, #64]	@ <variable>.nal_segment, <variable>.nal_segment
	cmp	r1, ip	@ <variable>.nal_segment, segment_idx
	movhi	r1, r6	@ pdes, D.48468
	bhi	.L926	@
.L925:
	mov	r0, r4	@ D.44583, cnt
	ldmfd	sp, {r3, r4, r5, r6, r7, r8, r9, sl, fp, sp, pc}	@
	.fnend
	.size	MVC_GetBytes, .-MVC_GetBytes
	.align	2
	.global	MVC_InitOldSlice
	.type	MVC_InitOldSlice, %function
MVC_InitOldSlice:
	.fnstart
.LFB1652:
	@ args = 0, pretend = 0, frame = 24
	@ frame_needed = 1, uses_anonymous_args = 0
	.movsp ip
	mov	ip, sp	@,
	stmfd	sp!, {r4, r5, r6, r7, r8, r9, sl, fp, ip, lr, pc}	@,
	.pad #4
	.save {r4, r5, r6, r7, r8, r9, sl, fp, ip, lr}
	.setfp fp, ip, #-4
	sub	fp, ip, #4	@,,
	.pad #28
	sub	sp, sp, #28	@,,
	push	{lr}
	bl	__gnu_mcount_nc
	movw	sl, #:lower16:11155236	@ tmp161,
	movt	sl, #:upper16:11155236	@ tmp161,
	movw	r2, #:lower16:11164344	@,
	movt	r2, #:upper16:11164344	@,
	str	r2, [fp, #-64]	@, %sfp
	ldr	r9, [r0, sl]	@, <variable>.MaxPpsNum
	movw	r3, #:lower16:11164312	@,
	movt	r3, #:upper16:11164312	@,
	movw	r7, #:lower16:11164320	@ tmp162,
	movw	r6, #:lower16:11164305	@ tmp165,
	movt	r7, #:upper16:11164320	@ tmp162,
	str	r9, [fp, #-48]	@, %sfp
	movt	r6, #:upper16:11164305	@ tmp165,
	ldr	r2, [fp, #-48]	@, %sfp
	movw	r9, #:lower16:11164304	@ tmp164,
	movw	r5, #:lower16:11164316	@ tmp166,
	movt	r9, #:upper16:11164304	@ tmp164,
	movt	r5, #:upper16:11164316	@ tmp166,
	movw	r4, #:lower16:11164306	@ tmp167,
	str	r2, [r0, r3]	@, <variable>.PrevSlice.pic_parameter_set_id
	movt	r4, #:upper16:11164306	@ tmp167,
	ldr	r2, [fp, #-64]	@, %sfp
	movw	ip, #:lower16:11164328	@ tmp168,
	movw	r1, #:lower16:11164332	@ tmp169,
	movt	ip, #:upper16:11164328	@ tmp168,
	movt	r1, #:upper16:11164332	@ tmp169,
	movw	r8, #:lower16:11164336	@ tmp170,
	movw	sl, #:lower16:11164340	@ tmp171,
	movt	r8, #:upper16:11164336	@ tmp170,
	movt	sl, #:upper16:11164340	@ tmp171,
	mov	r3, #0	@ tmp140,
	str	r3, [r0, r8]	@ tmp140, <variable>.PrevSlice.delta_pic_order_cnt
	movw	r8, #:lower16:88888	@ tmp163,
	str	r3, [r0, sl]	@ tmp140, <variable>.PrevSlice.delta_pic_order_cnt
	movt	r8, #:upper16:88888	@ tmp163,
	strb	r3, [r0, r9]	@ tmp140, <variable>.PrevSlice.field_pic_flag
	str	r8, [r0, r7]	@ tmp163, <variable>.PrevSlice.frame_num
	mov	r7, #2	@ tmp143,
	strb	r7, [r0, r6]	@ tmp143, <variable>.PrevSlice.bottom_field_flag
	mov	r6, #7	@ tmp146,
	str	r6, [r0, r5]	@ tmp146, <variable>.PrevSlice.nal_ref_idc
	mov	r5, #32	@ tmp148,
	strb	r5, [r0, r4]	@ tmp148, <variable>.PrevSlice.nal_unit_type
	mov	r4, #3	@ tmp151,
	str	r4, [r0, ip]	@ tmp151, <variable>.PrevSlice.pic_oder_cnt_lsb
	mvn	ip, #0	@ tmp153,
	str	ip, [r0, r1]	@ tmp153, <variable>.PrevSlice.delta_pic_oder_cnt_bottom
	mov	r1, #262144	@ tmp159,
	str	r1, [r0, r2]	@ tmp159, <variable>.PrevSlice.first_mb_in_slice
	sub	sp, fp, #40
	ldmfd	sp, {r4, r5, r6, r7, r8, r9, sl, fp, sp, pc}
	.fnend
	.size	MVC_InitOldSlice, .-MVC_InitOldSlice
	.align	2
	.global	MVC_FindNaluArraySlot
	.type	MVC_FindNaluArraySlot, %function
MVC_FindNaluArraySlot:
	.fnstart
.LFB1660:
	@ args = 0, pretend = 0, frame = 0
	@ frame_needed = 1, uses_anonymous_args = 0
	.movsp ip
	mov	ip, sp	@,
	stmfd	sp!, {fp, ip, lr, pc}	@,
	.pad #4
	.save {fp, ip, lr}
	.setfp fp, ip, #-4
	sub	fp, ip, #4	@,,
	push	{lr}
	bl	__gnu_mcount_nc
	ldrb	r2, [r0, #377]	@ zero_extendqisi2	@ <variable>.is_valid, <variable>.is_valid
	mov	r3, #0	@ Pos,
	cmp	r2, r3	@ <variable>.is_valid,
	addne	r2, r0, #96	@ ivtmp.2956, pMvcCtx,
	movne	r3, #1	@ Pos,
	bne	.L935	@,
	b	.L934	@
.L944:
	ldrb	ip, [r2, #473]	@ zero_extendqisi2	@ <variable>.is_valid, <variable>.is_valid
	add	r3, r3, #1	@ Pos, Pos,
	add	r2, r2, #192	@ ivtmp.2956, ivtmp.2956,
	cmp	ip, #0	@ <variable>.is_valid,
	beq	.L934	@,
	add	r3, r3, #1	@ Pos, Pos,
	cmp	r3, #137	@ Pos,
	beq	.L936	@,
.L935:
	ldrb	r1, [r2, #377]	@ zero_extendqisi2	@ <variable>.is_valid, <variable>.is_valid
	cmp	r1, #0	@ <variable>.is_valid,
	bne	.L944	@,
.L934:
	cmp	r3, #136	@ Pos,
	bhi	.L936	@,
	add	r1, r3, r3, asl #1	@, tmp155, Pos, Pos,
	mov	r2, #1	@ tmp159,
	add	r0, r0, r1, asl #5	@, tmp157, pMvcCtx, tmp155,
	strb	r2, [r0, #377]	@ tmp159, <variable>.is_valid
	mov	r0, r3	@, D.45515
	ldmfd	sp, {fp, sp, pc}	@
.L936:
	mvn	r3, #0	@ D.45515,
	mov	r0, r3	@, D.45515
	ldmfd	sp, {fp, sp, pc}	@
	.fnend
	.size	MVC_FindNaluArraySlot, .-MVC_FindNaluArraySlot
	.align	2
	.global	MVC_HaveSliceToDec
	.type	MVC_HaveSliceToDec, %function
MVC_HaveSliceToDec:
	.fnstart
.LFB1662:
	@ args = 0, pretend = 0, frame = 0
	@ frame_needed = 1, uses_anonymous_args = 0
	.movsp ip
	mov	ip, sp	@,
	stmfd	sp!, {fp, ip, lr, pc}	@,
	.pad #4
	.save {fp, ip, lr}
	.setfp fp, ip, #-4
	sub	fp, ip, #4	@,,
	push	{lr}
	bl	__gnu_mcount_nc
	movw	r1, #:lower16:11199444	@ tmp136,
	movt	r1, #:upper16:11199444	@ tmp136,
	ldr	r3, [r0, r1]	@ <variable>.SliceParaNum, <variable>.SliceParaNum
	cmp	r3, #0	@ <variable>.SliceParaNum,
	mvneq	r0, #0	@,,
	movne	r0, #0	@,,
	ldmfd	sp, {fp, sp, pc}	@
	.fnend
	.size	MVC_HaveSliceToDec, .-MVC_HaveSliceToDec
	.global	__aeabi_idiv
	.align	2
	.global	MVC_GetDar
	.type	MVC_GetDar, %function
MVC_GetDar:
	.fnstart
.LFB1639:
	@ args = 4, pretend = 0, frame = 0
	@ frame_needed = 1, uses_anonymous_args = 0
	.movsp ip
	mov	ip, sp	@,
	stmfd	sp!, {r3, r4, fp, ip, lr, pc}	@,
	.pad #4
	.save {r3, r4, fp, ip, lr}
	.setfp fp, ip, #-4
	sub	fp, ip, #4	@,,
	push	{lr}
	bl	__gnu_mcount_nc
	cmp	r0, #0	@ ar_idc
	mov	ip, r1	@ sar_width, sar_width
	beq	.L950	@,
	subs	r1, r0, #255	@ D.43695, ar_idc,
	movne	r1, #1	@ D.43695
	cmp	r0, #255	@ ar_idc,
	cmpne	r0, #16	@, ar_idc,
	bgt	.L950	@,
	cmp	ip, #0	@ sar_width,
	cmpne	r2, #0	@, sar_height,
	beq	.L967	@,
.L951:
	cmp	r0, #1	@ ar_idc,
	moveq	r4, #5	@ final_dar,
	beq	.L953	@,
	cmp	r1, #0	@ D.43695,
	beq	.L954	@,
	movw	r2, #:lower16:.LANCHOR0	@ tmp162,
	movt	r2, #:upper16:.LANCHOR0	@ tmp162,
	add	r1, r2, r0, asl #3	@, tmp171, tmp162, ar_idc,
	ldr	r2, [r1, #84]	@ sar_height, MVC_SarTable
	ldr	ip, [r1, #80]	@ sar_width, MVC_SarTable
.L954:
	ldr	r0, [fp, #4]	@ img_height, img_height
	mov	lr, r3, asl #10	@ tmp174, img_width,
	mul	r1, r0, r2	@, img_height, sar_height
	mul	r0, ip, lr	@, sar_width, tmp174
	bl	__aeabi_idiv	@
	sub	r1, r0, #2400	@ iftmp.782, dar,
	sub	r3, r0, #2256	@ iftmp.3007, dar,
	sub	ip, r1, #6	@ iftmp.782, iftmp.782,
	sub	r3, r3, #7	@ iftmp.3007, iftmp.3007,
	cmp	ip, #0	@ iftmp.782,
	rsblt	ip, r0, #2400	@ tmp181, dar,
	addlt	ip, ip, #6	@ iftmp.782, tmp181,
	cmp	r3, #0	@ iftmp.3007,
	rsblt	r1, r0, #2256	@ tmp183, dar,
	addlt	r1, r1, #7	@ iftmp.783, tmp183,
	movge	r1, r3	@ iftmp.783, iftmp.3007
	cmp	ip, r1	@ iftmp.782, iftmp.783
	movlt	r4, #4	@ final_dar,
	blt	.L953	@,
	cmp	r3, #0	@ iftmp.3007,
	sub	r2, r0, #1808	@ iftmp.3008, dar,
	rsblt	r3, r0, #2256	@ tmp184, dar,
	sub	r2, r2, #12	@ iftmp.3008, iftmp.3008,
	addlt	r3, r3, #7	@ iftmp.3007, tmp184,
	cmp	r2, #0	@ iftmp.3008,
	rsblt	r1, r0, #1808	@ tmp186, dar,
	addlt	r1, r1, #12	@ iftmp.785, tmp186,
	movge	r1, r2	@ iftmp.785, iftmp.3008
	cmp	r3, r1	@ iftmp.3007, iftmp.785
	movlt	r4, #3	@ final_dar,
	blt	.L953	@,
	cmp	r2, #0	@ iftmp.3008,
	sub	r4, r0, #1360	@ iftmp.787, dar,
	sub	r4, r4, #5	@ iftmp.787, iftmp.787,
	rsblt	r2, r0, #1808	@ tmp187, dar,
	addlt	r2, r2, #12	@ iftmp.3008, tmp187,
	cmp	r4, #0	@ iftmp.787,
	rsblt	r4, r0, #1360	@ tmp189, dar,
	addlt	r4, r4, #5	@ iftmp.787, tmp189,
	cmp	r4, r2	@ iftmp.787, iftmp.3008
	movgt	r4, #2	@ final_dar,
	movle	r4, #1	@ final_dar,
	b	.L953	@
.L967:
	cmp	r0, #255	@ ar_idc,
	bne	.L951	@,
.L950:
	mov	r4, #0	@ final_dar,
.L953:
	mov	r2, r4	@, final_dar
	mov	r0, #22	@,
	movw	r1, #:lower16:.LC0	@,
	movt	r1, #:upper16:.LC0	@,
	bl	dprint_vfmw	@
	mov	r0, r4	@, final_dar
	ldmfd	sp, {r3, r4, fp, sp, pc}	@
	.fnend
	.size	MVC_GetDar, .-MVC_GetDar
	.align	2
	.global	MVC_SPSEqual
	.type	MVC_SPSEqual, %function
MVC_SPSEqual:
	.fnstart
.LFB1638:
	@ args = 0, pretend = 0, frame = 16
	@ frame_needed = 1, uses_anonymous_args = 0
	.movsp ip
	mov	ip, sp	@,
	stmfd	sp!, {r4, r5, r6, r7, r8, r9, sl, fp, ip, lr, pc}	@,
	.pad #4
	.save {r4, r5, r6, r7, r8, r9, sl, fp, ip, lr}
	.setfp fp, ip, #-4
	sub	fp, ip, #4	@,,
	.pad #20
	sub	sp, sp, #20	@,,
	push	{lr}
	bl	__gnu_mcount_nc
	subs	r3, r0, #0	@ pSPS1, pSPS1
	beq	.L1000	@,
	cmp	r1, #0	@ pSPS2,
	beq	.L1001	@,
	ldr	r6, [r3, #736]	@ <variable>.profile_idc, <variable>.profile_idc
	ldr	r4, [r1, #736]	@ <variable>.profile_idc, <variable>.profile_idc
	ldrb	r7, [r3, #0]	@ zero_extendqisi2	@ <variable>.constrained_set0_flag, <variable>.constrained_set0_flag
	ldrb	r2, [r1, #0]	@ zero_extendqisi2	@ <variable>.constrained_set0_flag, <variable>.constrained_set0_flag
	ldrb	r5, [r3, #1]	@ zero_extendqisi2	@ <variable>.constrained_set1_flag, <variable>.constrained_set1_flag
	cmp	r6, r4	@ <variable>.profile_idc, <variable>.profile_idc
	cmpeq	r7, r2	@, <variable>.constrained_set0_flag, <variable>.constrained_set0_flag
	ldrb	r0, [r1, #1]	@ zero_extendqisi2	@ <variable>.constrained_set1_flag, <variable>.constrained_set1_flag
	ldrb	r4, [r3, #2]	@ zero_extendqisi2	@ <variable>.constrained_set2_flag, <variable>.constrained_set2_flag
	ldrb	r7, [r1, #2]	@ zero_extendqisi2	@ <variable>.constrained_set2_flag, <variable>.constrained_set2_flag
	movne	ip, #0	@, equal.3106
	moveq	ip, #1	@, equal.3106
	ldr	r6, [r1, #740]	@ <variable>.level_idc, <variable>.level_idc
	cmp	r5, r0	@ <variable>.constrained_set1_flag, <variable>.constrained_set1_flag
	movne	r0, #0	@, equal.3107
	andeq	r0, ip, #1	@,, equal.3107, equal.3106
	ldr	r5, [r3, #740]	@ <variable>.level_idc, <variable>.level_idc
	cmp	r4, r7	@ <variable>.constrained_set2_flag, <variable>.constrained_set2_flag
	movne	r2, #0	@, equal.3108
	andeq	r2, r0, #1	@,, equal.3108, equal.3107
	ldr	r4, [r3, #744]	@ <variable>.seq_parameter_set_id, <variable>.seq_parameter_set_id
	ldr	r7, [r1, #744]	@ <variable>.seq_parameter_set_id, <variable>.seq_parameter_set_id
	cmp	r5, r6	@ <variable>.level_idc, <variable>.level_idc
	movne	ip, #0	@, equal.3109
	andeq	ip, r2, #1	@,, equal.3109, equal.3108
	ldrb	r2, [r3, #27]	@ zero_extendqisi2	@ D.43587, <variable>.seq_scaling_matrix_present_flag
	ldrb	r6, [r1, #27]	@ zero_extendqisi2	@ <variable>.seq_scaling_matrix_present_flag, <variable>.seq_scaling_matrix_present_flag
	cmp	r4, r7	@ <variable>.seq_parameter_set_id, <variable>.seq_parameter_set_id
	movne	r0, #0	@, equal.3110
	andeq	r0, ip, #1	@,, equal.3110, equal.3109
	cmp	r6, r2	@ <variable>.seq_scaling_matrix_present_flag, D.43587
	movne	r6, #0	@, equal
	andeq	r6, r0, #1	@,, equal, equal.3110
	cmp	r2, #0	@ D.43587,
	beq	.L972	@,
	mov	r9, r3	@ ivtmp.3069, pSPS1
	mov	r8, r1	@ ivtmp.3071, pSPS2
	mov	sl, #0	@ i,
	str	r3, [fp, #-48]	@ pSPS1, %sfp
	str	r1, [fp, #-52]	@ pSPS2, %sfp
	b	.L976	@
.L1003:
	ldr	r7, [fp, #-48]	@, %sfp
	mov	r4, sl, asl #6	@ tmp291, i,
	ldr	ip, [r9, #760]	@ tmp235, <variable>.ScalingList4x4
	add	r2, r4, r1	@, tmp291,
	ldr	r0, [r8, #760]	@ tmp236, <variable>.ScalingList4x4
	add	r5, r4, r7	@, tmp291,
	str	r2, [fp, #-60]	@, %sfp
	ldr	r1, [r9, #756]	@ tmp239, <variable>.ScalingList4x4
	str	r5, [fp, #-56]	@, %sfp
	ldr	r3, [r8, #756]	@ tmp240, <variable>.ScalingList4x4
	ldr	r5, [r9, #764]	@ tmp243, <variable>.ScalingList4x4
	cmp	ip, r0	@ tmp235, tmp236
	cmpeq	r1, r3	@, tmp239, tmp240
	ldr	r4, [r8, #764]	@ tmp244, <variable>.ScalingList4x4
	ldr	r7, [r9, #768]	@ tmp247, <variable>.ScalingList4x4
	ldr	r1, [r8, #768]	@ tmp248, <variable>.ScalingList4x4
	movne	r2, #0	@, equal.3127
	moveq	r2, #1	@, equal.3127
	ldr	ip, [r9, #772]	@ tmp251, <variable>.ScalingList4x4
	cmp	r5, r4	@ tmp243, tmp244
	movne	r3, #0	@, equal.3131
	andeq	r3, r2, #1	@,, equal.3131, equal.3127
	ldr	r0, [r8, #772]	@ tmp252, <variable>.ScalingList4x4
	cmp	r7, r1	@ tmp247, tmp248
	movne	r5, #0	@, equal.3135
	andeq	r5, r3, #1	@,, equal.3135, equal.3131
	ldr	r4, [r9, #776]	@ tmp255, <variable>.ScalingList4x4
	ldr	r3, [r8, #776]	@ tmp256, <variable>.ScalingList4x4
	cmp	ip, r0	@ tmp251, tmp252
	movne	r1, #0	@, equal.3139
	andeq	r1, r5, #1	@,, equal.3139, equal.3135
	ldr	r7, [r9, #780]	@ tmp259, <variable>.ScalingList4x4
	ldr	r2, [r8, #780]	@ tmp260, <variable>.ScalingList4x4
	cmp	r4, r3	@ tmp255, tmp256
	movne	r0, #0	@, equal.3143
	andeq	r0, r1, #1	@,, equal.3143, equal.3139
	ldr	r5, [r9, #784]	@ tmp263, <variable>.ScalingList4x4
	ldr	r3, [r8, #784]	@ tmp264, <variable>.ScalingList4x4
	cmp	r7, r2	@ tmp259, tmp260
	movne	ip, #0	@, equal.3147
	andeq	ip, r0, #1	@,, equal.3147, equal.3143
	ldr	r4, [r8, #788]	@ tmp268, <variable>.ScalingList4x4
	ldr	r7, [r9, #788]	@ tmp267, <variable>.ScalingList4x4
	cmp	r5, r3	@ tmp263, tmp264
	movne	r1, #0	@, equal.3151
	andeq	r1, ip, #1	@,, equal.3151, equal.3147
	ldr	ip, [r9, #792]	@ tmp271, <variable>.ScalingList4x4
	ldr	r5, [r8, #792]	@ tmp272, <variable>.ScalingList4x4
	cmp	r7, r4	@ tmp267, tmp268
	movne	r0, #0	@, equal.3155
	andeq	r0, r1, #1	@,, equal.3155, equal.3151
	ldr	r7, [r9, #796]	@ tmp275, <variable>.ScalingList4x4
	ldr	r4, [r8, #796]	@ tmp276, <variable>.ScalingList4x4
	cmp	ip, r5	@ tmp271, tmp272
	movne	r2, #0	@, equal.3159
	andeq	r2, r0, #1	@,, equal.3159, equal.3155
	ldr	r3, [r8, #800]	@ tmp280, <variable>.ScalingList4x4
	ldr	r5, [r9, #800]	@ tmp279, <variable>.ScalingList4x4
	cmp	r7, r4	@ tmp275, tmp276
	movne	r1, #0	@, equal.3163
	andeq	r1, r2, #1	@,, equal.3163, equal.3159
	ldr	ip, [r9, #804]	@ tmp283, <variable>.ScalingList4x4
	ldr	r2, [r8, #804]	@ tmp284, <variable>.ScalingList4x4
	cmp	r5, r3	@ tmp279, tmp280
	movne	r0, #0	@, equal.3167
	andeq	r0, r1, #1	@,, equal.3167, equal.3163
	ldr	r4, [fp, #-56]	@, %sfp
	cmp	ip, r2	@ tmp283, tmp284
	movne	r5, #0	@, equal.3171
	andeq	r5, r0, #1	@,, equal.3171, equal.3167
	ldr	ip, [fp, #-60]	@, %sfp
	ldr	r7, [r8, #808]	@ tmp288, <variable>.ScalingList4x4
	ldr	r1, [r9, #808]	@ tmp287, <variable>.ScalingList4x4
	ldr	r0, [r4, #752]	@ tmp299, <variable>.ScalingList4x4
	cmp	r1, r7	@ tmp287, tmp288
	movne	r5, #0	@, equal.3175
	andeq	r5, r5, #1	@,, equal.3175, equal.3171
	ldr	r3, [ip, #752]	@ tmp300, <variable>.ScalingList4x4
	and	r6, r6, r5	@ equal.3179, equal, equal.3175
	ldr	r7, [r9, #812]	@ tmp303, <variable>.ScalingList4x4
	ldr	r2, [r8, #812]	@ tmp304, <variable>.ScalingList4x4
	cmp	r0, r3	@ tmp299, tmp300
	movne	r4, #0	@, equal.3183
	andeq	r4, r6, #1	@,, equal.3183, equal.3179
	cmp	r7, r2	@ tmp303, tmp304
	movne	r6, #0	@, equal
	andeq	r6, r4, #1	@,, equal, equal.3183
.L973:
	add	sl, sl, #1	@ i, i,
	add	r9, r9, #64	@ ivtmp.3069, ivtmp.3069,
	cmp	sl, #8	@ i,
	add	r8, r8, #64	@ ivtmp.3071, ivtmp.3071,
	beq	.L1002	@,
.L976:
	ldr	r1, [fp, #-48]	@, %sfp
	add	ip, r1, sl	@ tmp228,, i
	ldr	r1, [fp, #-52]	@, %sfp
	add	r5, r1, sl	@ tmp229,, i
	ldrb	r3, [ip, #6]	@ zero_extendqisi2	@ D.43593, <variable>.seq_scaling_list_present_flag
	ldrb	r0, [r5, #6]	@ zero_extendqisi2	@ D.43593, <variable>.seq_scaling_list_present_flag
	cmp	r3, r0	@ D.43593, D.43593
	movne	r6, #0	@, equal
	andeq	r6, r6, #1	@,, equal, equal
	cmp	r3, #0	@ D.43593,
	beq	.L973	@,
	cmp	sl, #5	@ i,
	bls	.L1003	@,
	ldr	r0, [fp, #-52]	@, %sfp
	mov	r5, sl, asl #8	@ tmp306, i,
	ldr	r4, [fp, #-48]	@, %sfp
	sub	r1, r5, #400	@ tmp307, tmp306,
	ldr	r7, [fp, #-48]	@, %sfp
	add	r3, r0, r1	@ ivtmp.3056,, tmp307
	add	r2, r4, r1	@ ivtmp.3053,, tmp307
	ldr	r5, [r0, r1]	@ tmp312, <variable>.ScalingList8x8
	add	r0, r2, #8	@ ivtmp.3053, ivtmp.3053,
	mov	ip, #2	@ j,
	ldr	r4, [r7, r1]	@ tmp311, <variable>.ScalingList8x8
	add	r1, r3, #8	@ ivtmp.3056, ivtmp.3056,
	ldr	r7, [r2, #4]	@ tmp440, <variable>.ScalingList8x8
	ldr	r3, [r3, #4]	@ tmp441, <variable>.ScalingList8x8
	cmp	r4, r5	@ tmp311, tmp312
	movne	r6, #0	@, equal
	andeq	r6, r6, #1	@,, equal, equal
	cmp	r7, r3	@ tmp440, tmp441
	movne	r6, #0	@, equal
	andeq	r6, r6, #1	@,, equal, equal
.L975:
	mov	r2, r0	@ tmp406, ivtmp.3053
	mov	r3, r1	@ tmp407, ivtmp.3056
	ldr	r7, [r2], #4	@ tmp412, <variable>.ScalingList8x8
	add	ip, ip, #2	@ j, j,
	ldr	r5, [r3], #4	@ tmp413, <variable>.ScalingList8x8
	ldr	r4, [r0, #4]	@ tmp419, <variable>.ScalingList8x8
	add	r0, r2, #4	@ ivtmp.3053, tmp406,
	ldr	r2, [r1, #4]	@ tmp420, <variable>.ScalingList8x8
	cmp	r7, r5	@ tmp412, tmp413
	movne	r6, #0	@, equal
	andeq	r6, r6, #1	@,, equal, equal
	add	r1, r3, #4	@ ivtmp.3056, tmp407,
	cmp	r4, r2	@ tmp419, tmp420
	movne	r6, #0	@, equal
	andeq	r6, r6, #1	@,, equal, equal
	cmp	ip, #64	@ j,
	bne	.L975	@,
	add	sl, sl, #1	@ i, i,
	add	r9, r9, #64	@ ivtmp.3069, ivtmp.3069,
	cmp	sl, #8	@ i,
	add	r8, r8, #64	@ ivtmp.3071, ivtmp.3071,
	bne	.L976	@,
.L1002:
	ldr	r3, [fp, #-48]	@ pSPS1, %sfp
	ldr	r1, [fp, #-52]	@ pSPS2, %sfp
.L972:
	ldr	r2, [r3, #2900]	@ D.43612, <variable>.pic_order_cnt_type
	ldr	r4, [r1, #2900]	@ <variable>.pic_order_cnt_type, <variable>.pic_order_cnt_type
	ldr	r0, [r3, #2896]	@ <variable>.log2_max_frame_num_minus4, <variable>.log2_max_frame_num_minus4
	ldr	r5, [r1, #2896]	@ <variable>.log2_max_frame_num_minus4, <variable>.log2_max_frame_num_minus4
	cmp	r2, r4	@ D.43612, <variable>.pic_order_cnt_type
	cmpeq	r0, r5	@, <variable>.log2_max_frame_num_minus4, <variable>.log2_max_frame_num_minus4
	movne	ip, #0	@, equal.3111
	moveq	ip, #1	@, equal.3111
	cmp	r2, #0	@ D.43612,
	and	r6, ip, r6	@ equal.3101, equal.3111, equal
	bne	.L1004	@,
	ldr	r7, [r3, #2904]	@ <variable>.log2_max_pic_order_cnt_lsb_minus4, <variable>.log2_max_pic_order_cnt_lsb_minus4
	ldr	r2, [r1, #2904]	@ <variable>.log2_max_pic_order_cnt_lsb_minus4, <variable>.log2_max_pic_order_cnt_lsb_minus4
	cmp	r7, r2	@ <variable>.log2_max_pic_order_cnt_lsb_minus4, <variable>.log2_max_pic_order_cnt_lsb_minus4
	movne	r6, #0	@, equal.3101
	andeq	r6, r6, #1	@,, equal.3101, equal.3101
.L977:
	ldrb	r2, [r1, #19]	@ zero_extendqisi2	@ <variable>.gaps_in_frame_num_value_allowed_flag, <variable>.gaps_in_frame_num_value_allowed_flag
	ldr	r5, [r3, #3944]	@ <variable>.num_ref_frames, <variable>.num_ref_frames
	ldr	r0, [r1, #3944]	@ <variable>.num_ref_frames, <variable>.num_ref_frames
	ldrb	r7, [r3, #19]	@ zero_extendqisi2	@ <variable>.gaps_in_frame_num_value_allowed_flag, <variable>.gaps_in_frame_num_value_allowed_flag
	ldr	ip, [r1, #3948]	@ <variable>.pic_width_in_mbs_minus1, <variable>.pic_width_in_mbs_minus1
	cmp	r7, r2	@ <variable>.gaps_in_frame_num_value_allowed_flag, <variable>.gaps_in_frame_num_value_allowed_flag
	cmpeq	r5, r0	@, <variable>.num_ref_frames, <variable>.num_ref_frames
	ldr	r4, [r3, #3948]	@ <variable>.pic_width_in_mbs_minus1, <variable>.pic_width_in_mbs_minus1
	ldr	r5, [r3, #3952]	@ <variable>.pic_height_in_map_units_minus1, <variable>.pic_height_in_map_units_minus1
	ldr	r0, [r1, #3952]	@ <variable>.pic_height_in_map_units_minus1, <variable>.pic_height_in_map_units_minus1
	movne	r2, #0	@, equal.3115
	moveq	r2, #1	@, equal.3115
	cmp	r4, ip	@ <variable>.pic_width_in_mbs_minus1, <variable>.pic_width_in_mbs_minus1
	movne	r4, #0	@, equal.3116
	andeq	r4, r2, #1	@,, equal.3116, equal.3115
	ldrb	r2, [r3, #20]	@ zero_extendqisi2	@ D.43645, <variable>.frame_mbs_only_flag
	ldrb	ip, [r1, #20]	@ zero_extendqisi2	@ <variable>.frame_mbs_only_flag, <variable>.frame_mbs_only_flag
	cmp	r5, r0	@ <variable>.pic_height_in_map_units_minus1, <variable>.pic_height_in_map_units_minus1
	movne	r0, #0	@, equal.3117
	andeq	r0, r4, #1	@,, equal.3117, equal.3116
	cmp	ip, r2	@ <variable>.frame_mbs_only_flag, D.43645
	movne	r0, #0	@, equal.3118
	andeq	r0, r0, #1	@,, equal.3118, equal.3117
	cmp	r2, #0	@ D.43645,
	and	r6, r0, r6	@ equal.3102, equal.3118, equal.3101
	bne	.L981	@,
	ldrb	r4, [r3, #21]	@ zero_extendqisi2	@ <variable>.mb_adaptive_frame_field_flag, <variable>.mb_adaptive_frame_field_flag
	ldrb	ip, [r1, #21]	@ zero_extendqisi2	@ <variable>.mb_adaptive_frame_field_flag, <variable>.mb_adaptive_frame_field_flag
	cmp	r4, ip	@ <variable>.mb_adaptive_frame_field_flag, <variable>.mb_adaptive_frame_field_flag
	movne	r6, #0	@, equal.3102
	andeq	r6, r6, #1	@,, equal.3102, equal.3102
.L981:
	ldrb	r2, [r3, #23]	@ zero_extendqisi2	@ D.43656, <variable>.frame_cropping_flag
	ldrb	r0, [r3, #22]	@ zero_extendqisi2	@ <variable>.direct_8x8_inference_flag, <variable>.direct_8x8_inference_flag
	ldrb	r4, [r1, #23]	@ zero_extendqisi2	@ <variable>.frame_cropping_flag, <variable>.frame_cropping_flag
	ldrb	ip, [r1, #22]	@ zero_extendqisi2	@ <variable>.direct_8x8_inference_flag, <variable>.direct_8x8_inference_flag
	cmp	r4, r2	@ <variable>.frame_cropping_flag, D.43656
	cmpeq	r0, ip	@, <variable>.direct_8x8_inference_flag, <variable>.direct_8x8_inference_flag
	movne	r0, #0	@, equal.3119
	moveq	r0, #1	@, equal.3119
	cmp	r2, #0	@ D.43656,
	and	r2, r0, r6	@ equal.3103, equal.3119, equal.3102
	beq	.L982	@,
	ldr	r5, [r1, #3960]	@ <variable>.frame_crop_right_offset, <variable>.frame_crop_right_offset
	ldr	r4, [r3, #3956]	@ <variable>.frame_crop_left_offset, <variable>.frame_crop_left_offset
	ldr	r0, [r1, #3956]	@ <variable>.frame_crop_left_offset, <variable>.frame_crop_left_offset
	ldr	r7, [r3, #3960]	@ <variable>.frame_crop_right_offset, <variable>.frame_crop_right_offset
	ldr	r6, [r3, #3964]	@ <variable>.frame_crop_top_offset, <variable>.frame_crop_top_offset
	cmp	r7, r5	@ <variable>.frame_crop_right_offset, <variable>.frame_crop_right_offset
	cmpeq	r4, r0	@, <variable>.frame_crop_left_offset, <variable>.frame_crop_left_offset
	ldr	ip, [r1, #3964]	@ <variable>.frame_crop_top_offset, <variable>.frame_crop_top_offset
	ldr	r4, [r3, #3968]	@ <variable>.frame_crop_bottom_offset, <variable>.frame_crop_bottom_offset
	ldr	r0, [r1, #3968]	@ <variable>.frame_crop_bottom_offset, <variable>.frame_crop_bottom_offset
	movne	r5, #0	@, equal.3120
	moveq	r5, #1	@, equal.3120
	cmp	r6, ip	@ <variable>.frame_crop_top_offset, <variable>.frame_crop_top_offset
	movne	ip, #0	@, equal.3121
	andeq	ip, r5, #1	@,, equal.3121, equal.3120
	cmp	r4, r0	@ <variable>.frame_crop_bottom_offset, <variable>.frame_crop_bottom_offset
	movne	r0, #0	@, equal.3122
	andeq	r0, ip, #1	@,, equal.3122, equal.3121
	and	r2, r2, r0	@ equal.3103, equal.3103, equal.3122
.L982:
	ldrb	ip, [r3, #24]	@ zero_extendqisi2	@ <variable>.vui_parameters_present_flag, <variable>.vui_parameters_present_flag
	ldrb	r3, [r1, #24]	@ zero_extendqisi2	@ <variable>.vui_parameters_present_flag, <variable>.vui_parameters_present_flag
	cmp	ip, r3	@ <variable>.vui_parameters_present_flag, <variable>.vui_parameters_present_flag
	movne	r2, #0	@, tmp396
	andeq	r2, r2, #1	@,, tmp396, equal.3103
	cmp	r2, #0	@ tmp396,
	movne	r0, #0	@, ret,
	mvneq	r0, #0	@, ret,
.L970:
	sub	sp, fp, #40
	ldmfd	sp, {r4, r5, r6, r7, r8, r9, sl, fp, sp, pc}
.L1004:
	cmp	r2, #1	@ D.43612,
	bne	.L977	@,
	ldr	r7, [r3, #2908]	@ <variable>.offset_for_non_ref_pic, <variable>.offset_for_non_ref_pic
	ldr	ip, [r1, #2908]	@ <variable>.offset_for_non_ref_pic, <variable>.offset_for_non_ref_pic
	ldrb	r5, [r3, #18]	@ zero_extendqisi2	@ <variable>.delta_pic_order_always_zero_flag, <variable>.delta_pic_order_always_zero_flag
	ldrb	r0, [r1, #18]	@ zero_extendqisi2	@ <variable>.delta_pic_order_always_zero_flag, <variable>.delta_pic_order_always_zero_flag
	ldr	r4, [r3, #2912]	@ <variable>.offset_for_top_to_bottom_field, <variable>.offset_for_top_to_bottom_field
	cmp	r7, ip	@ <variable>.offset_for_non_ref_pic, <variable>.offset_for_non_ref_pic
	cmpeq	r5, r0	@, <variable>.delta_pic_order_always_zero_flag, <variable>.delta_pic_order_always_zero_flag
	ldr	r2, [r1, #2912]	@ <variable>.offset_for_top_to_bottom_field, <variable>.offset_for_top_to_bottom_field
	ldr	r7, [r3, #2916]	@ D.43627, <variable>.num_ref_frames_in_pic_order_cnt_cycle
	ldr	r0, [r1, #2916]	@ <variable>.num_ref_frames_in_pic_order_cnt_cycle, <variable>.num_ref_frames_in_pic_order_cnt_cycle
	movne	ip, #0	@, equal.3112
	moveq	ip, #1	@, equal.3112
	cmp	r4, r2	@ <variable>.offset_for_top_to_bottom_field, <variable>.offset_for_top_to_bottom_field
	movne	r5, #0	@, equal.3113
	andeq	r5, ip, #1	@,, equal.3113, equal.3112
	cmp	r7, r0	@ D.43627, <variable>.num_ref_frames_in_pic_order_cnt_cycle
	movne	r5, #0	@, equal.3114
	andeq	r5, r5, #1	@,, equal.3114, equal.3113
	cmp	r7, #0	@ D.43627,
	and	r6, r6, r5	@ equal.3101, equal.3101, equal.3114
	beq	.L977	@,
	ldr	r4, [r3, #2920]	@ tmp343, <variable>.offset_for_ref_frame
	mov	r7, r7, asl #2	@ D.48630, D.43627,
	ldr	r5, [r1, #2920]	@ tmp344, <variable>.offset_for_ref_frame
	mov	r2, #4	@ ivtmp.3044,
	sub	r0, r7, #4	@ tmp401, D.48630,
	cmp	r4, r5	@ tmp343, tmp344
	movne	r6, #0	@, equal.3101
	andeq	r6, r6, #1	@,, equal.3101, equal.3101
	cmp	r2, r7	@ ivtmp.3044, D.48630
	ubfx	r0, r0, #2, #1	@ tmp402, tmp401,,
	beq	.L977	@,
	cmp	r0, #0	@ tmp402,
	beq	.L980	@,
	ldr	r4, [r3, #2924]	@ tmp437, <variable>.offset_for_ref_frame
	mov	r2, #8	@ ivtmp.3044,
	ldr	r0, [r1, #2924]	@ tmp438, <variable>.offset_for_ref_frame
	cmp	r4, r0	@ tmp437, tmp438
	movne	r6, #0	@, equal.3101
	andeq	r6, r6, #1	@,, equal.3101, equal.3101
	cmp	r2, r7	@ ivtmp.3044, D.48630
	beq	.L977	@,
.L980:
	add	r0, r2, #4	@ tmp403, ivtmp.3044,
	add	r4, r3, r2	@ tmp423, pSPS1, ivtmp.3044
	add	r2, r1, r2	@ tmp424, pSPS2, ivtmp.3044
	add	ip, r3, r0	@ tmp430, pSPS1, tmp403
	add	r8, r1, r0	@ tmp431, pSPS2, tmp403
	ldr	r5, [r4, #2920]	@ tmp425, <variable>.offset_for_ref_frame
	ldr	r4, [r2, #2920]	@ tmp426, <variable>.offset_for_ref_frame
	add	r2, r0, #4	@ ivtmp.3044, tmp403,
	ldr	ip, [ip, #2920]	@ tmp432, <variable>.offset_for_ref_frame
	ldr	r0, [r8, #2920]	@ tmp433, <variable>.offset_for_ref_frame
	cmp	r5, r4	@ tmp425, tmp426
	movne	r6, #0	@, equal.3101
	andeq	r6, r6, #1	@,, equal.3101, equal.3101
	cmp	ip, r0	@ tmp432, tmp433
	movne	r6, #0	@, equal.3101
	andeq	r6, r6, #1	@,, equal.3101, equal.3101
	cmp	r2, r7	@ ivtmp.3044, D.48630
	bne	.L980	@,
	b	.L977	@
.L1001:
	mov	r0, r1	@, pSPS2
	movw	r2, #:lower16:.LC2	@,
	movw	r1, #:lower16:.LC1	@,
	movt	r2, #:upper16:.LC2	@,
	movt	r1, #:upper16:.LC1	@,
	movw	r3, #9835	@,
	bl	dprint_vfmw	@
	mvn	r0, #0	@ ret,
	b	.L970	@
.L1000:
	movw	r1, #:lower16:.LC1	@,
	movw	r2, #:lower16:.LC2	@,
	movt	r1, #:upper16:.LC1	@,
	movt	r2, #:upper16:.LC2	@,
	movw	r3, #9834	@,
	bl	dprint_vfmw	@
	mvn	r0, #0	@ ret,
	b	.L970	@
	.fnend
	.size	MVC_SPSEqual, .-MVC_SPSEqual
	.align	2
	.global	MVC_PPSEqual
	.type	MVC_PPSEqual, %function
MVC_PPSEqual:
	.fnstart
.LFB1636:
	@ args = 0, pretend = 0, frame = 24
	@ frame_needed = 1, uses_anonymous_args = 0
	.movsp ip
	mov	ip, sp	@,
	stmfd	sp!, {r4, r5, r6, r7, r8, r9, sl, fp, ip, lr, pc}	@,
	.pad #4
	.save {r4, r5, r6, r7, r8, r9, sl, fp, ip, lr}
	.setfp fp, ip, #-4
	sub	fp, ip, #4	@,,
	.pad #28
	sub	sp, sp, #28	@,,
	push	{lr}
	bl	__gnu_mcount_nc
	subs	r3, r0, #0	@ pPPS1, pPPS1
	beq	.L1026	@,
	cmp	r1, #0	@ pPPS2,
	beq	.L1027	@,
	ldr	r4, [r3, #24]	@ <variable>.pic_parameter_set_id, <variable>.pic_parameter_set_id
	ldr	ip, [r1, #24]	@ <variable>.pic_parameter_set_id, <variable>.pic_parameter_set_id
	ldr	r2, [r1, #28]	@ <variable>.seq_parameter_set_id, <variable>.seq_parameter_set_id
	ldr	r6, [r3, #28]	@ <variable>.seq_parameter_set_id, <variable>.seq_parameter_set_id
	ldrb	r0, [r1, #0]	@ zero_extendqisi2	@ <variable>.entropy_coding_mode_flag, <variable>.entropy_coding_mode_flag
	cmp	r4, ip	@ <variable>.pic_parameter_set_id, <variable>.pic_parameter_set_id
	cmpeq	r6, r2	@, <variable>.seq_parameter_set_id, <variable>.seq_parameter_set_id
	ldrb	r5, [r3, #0]	@ zero_extendqisi2	@ <variable>.entropy_coding_mode_flag, <variable>.entropy_coding_mode_flag
	ldrb	r2, [r1, #1]	@ zero_extendqisi2	@ <variable>.pic_order_present_flag, <variable>.pic_order_present_flag
	ldrb	r4, [r3, #1]	@ zero_extendqisi2	@ <variable>.pic_order_present_flag, <variable>.pic_order_present_flag
	movne	ip, #0	@, equal.3274
	moveq	ip, #1	@, equal.3274
	cmp	r5, r0	@ <variable>.entropy_coding_mode_flag, <variable>.entropy_coding_mode_flag
	movne	r5, #0	@, equal.3275
	andeq	r5, ip, #1	@,, equal.3275, equal.3274
	ldr	ip, [r1, #36]	@ <variable>.num_ref_idx_l0_active_minus1, <variable>.num_ref_idx_l0_active_minus1
	ldr	r0, [r3, #36]	@ <variable>.num_ref_idx_l0_active_minus1, <variable>.num_ref_idx_l0_active_minus1
	cmp	r4, r2	@ <variable>.pic_order_present_flag, <variable>.pic_order_present_flag
	movne	r4, #0	@, equal.3276
	andeq	r4, r5, #1	@,, equal.3276, equal.3275
	ldr	r5, [r1, #40]	@ <variable>.num_ref_idx_l1_active_minus1, <variable>.num_ref_idx_l1_active_minus1
	ldr	r2, [r3, #40]	@ <variable>.num_ref_idx_l1_active_minus1, <variable>.num_ref_idx_l1_active_minus1
	cmp	r0, ip	@ <variable>.num_ref_idx_l0_active_minus1, <variable>.num_ref_idx_l0_active_minus1
	movne	r0, #0	@, equal.3277
	andeq	r0, r4, #1	@,, equal.3277, equal.3276
	ldrb	r4, [r1, #2]	@ zero_extendqisi2	@ <variable>.weighted_pred_flag, <variable>.weighted_pred_flag
	ldrb	ip, [r3, #2]	@ zero_extendqisi2	@ <variable>.weighted_pred_flag, <variable>.weighted_pred_flag
	cmp	r2, r5	@ <variable>.num_ref_idx_l1_active_minus1, <variable>.num_ref_idx_l1_active_minus1
	movne	r2, #0	@, equal.3278
	andeq	r2, r0, #1	@,, equal.3278, equal.3277
	ldr	r0, [r1, #44]	@ <variable>.weighted_bipred_idc, <variable>.weighted_bipred_idc
	ldr	r5, [r3, #44]	@ <variable>.weighted_bipred_idc, <variable>.weighted_bipred_idc
	cmp	ip, r4	@ <variable>.weighted_pred_flag, <variable>.weighted_pred_flag
	movne	ip, #0	@, equal.3279
	andeq	ip, r2, #1	@,, equal.3279, equal.3278
	ldr	r2, [r1, #48]	@ <variable>.pic_init_qp_minus26, <variable>.pic_init_qp_minus26
	ldr	r4, [r3, #48]	@ <variable>.pic_init_qp_minus26, <variable>.pic_init_qp_minus26
	cmp	r5, r0	@ <variable>.weighted_bipred_idc, <variable>.weighted_bipred_idc
	movne	r5, #0	@, equal.3280
	andeq	r5, ip, #1	@,, equal.3280, equal.3279
	ldr	ip, [r1, #52]	@ <variable>.chroma_qp_index_offset, <variable>.chroma_qp_index_offset
	ldr	r0, [r3, #52]	@ <variable>.chroma_qp_index_offset, <variable>.chroma_qp_index_offset
	cmp	r4, r2	@ <variable>.pic_init_qp_minus26, <variable>.pic_init_qp_minus26
	movne	r4, #0	@, equal.3281
	andeq	r4, r5, #1	@,, equal.3281, equal.3280
	ldrb	r5, [r1, #3]	@ zero_extendqisi2	@ <variable>.deblocking_filter_control_present_flag, <variable>.deblocking_filter_control_present_flag
	ldrb	r2, [r3, #3]	@ zero_extendqisi2	@ <variable>.deblocking_filter_control_present_flag, <variable>.deblocking_filter_control_present_flag
	cmp	r0, ip	@ <variable>.chroma_qp_index_offset, <variable>.chroma_qp_index_offset
	movne	r0, #0	@, equal.3282
	andeq	r0, r4, #1	@,, equal.3282, equal.3281
	ldrb	r4, [r1, #4]	@ zero_extendqisi2	@ <variable>.constrained_intra_pred_flag, <variable>.constrained_intra_pred_flag
	ldrb	ip, [r3, #4]	@ zero_extendqisi2	@ <variable>.constrained_intra_pred_flag, <variable>.constrained_intra_pred_flag
	cmp	r2, r5	@ <variable>.deblocking_filter_control_present_flag, <variable>.deblocking_filter_control_present_flag
	movne	r2, #0	@, equal.3283
	andeq	r2, r0, #1	@,, equal.3283, equal.3282
	ldr	r0, [r3, #60]	@ D.43330, <variable>.transform_8x8_mode_flag
	ldr	r5, [r1, #60]	@ <variable>.transform_8x8_mode_flag, <variable>.transform_8x8_mode_flag
	cmp	ip, r4	@ <variable>.constrained_intra_pred_flag, <variable>.constrained_intra_pred_flag
	movne	ip, #0	@, equal.3284
	andeq	ip, r2, #1	@,, equal.3284, equal.3283
	ldrb	r2, [r3, #18]	@ zero_extendqisi2	@ D.43333, <variable>.pic_scaling_matrix_present_flag
	ldrb	r4, [r1, #18]	@ zero_extendqisi2	@ <variable>.pic_scaling_matrix_present_flag, <variable>.pic_scaling_matrix_present_flag
	cmp	r0, r5	@ D.43330, <variable>.transform_8x8_mode_flag
	movne	ip, #0	@, equal.3285
	andeq	ip, ip, #1	@,, equal.3285, equal.3284
	cmp	r4, r2	@ <variable>.pic_scaling_matrix_present_flag, D.43333
	movne	ip, #0	@, equal
	andeq	ip, ip, #1	@,, equal, equal.3285
	cmp	r2, #0	@ D.43333,
	beq	.L1009	@,
	mov	r2, r0, asl #1	@ tmp242, D.43330,
	adds	r0, r2, #6	@, tmp242,
	str	r0, [fp, #-64]	@, %sfp
	beq	.L1009	@,
	mov	r8, r3	@ ivtmp.3233, pPPS1
	mov	sl, r1	@ ivtmp.3332, pPPS2
	mov	r9, #0	@ i,
	str	r1, [fp, #-52]	@ pPPS2, %sfp
	str	r3, [fp, #-48]	@ pPPS1, %sfp
	str	r3, [fp, #-56]	@ pPPS1, %sfp
	str	r1, [fp, #-60]	@ pPPS2, %sfp
.L1013:
	ldr	r3, [fp, #-56]	@, %sfp
	ldr	r4, [fp, #-60]	@, %sfp
	add	r2, r3, r9	@ tmp243,, i
	add	r0, r4, r9	@ tmp244,, i
	ldrb	r3, [r2, #5]	@ zero_extendqisi2	@ D.43339, <variable>.pic_scaling_list_present_flag
	ldrb	r1, [r0, #5]	@ zero_extendqisi2	@ D.43339, <variable>.pic_scaling_list_present_flag
	cmp	r3, r1	@ D.43339, D.43339
	movne	ip, #0	@, equal
	andeq	ip, ip, #1	@,, equal, equal
	cmp	r3, #0	@ D.43339,
	beq	.L1025	@,
	cmp	r9, #5	@ i,
	bhi	.L1011	@,
	ldr	r4, [fp, #-48]	@, %sfp
	ldr	r2, [fp, #-52]	@, %sfp
	ldr	r0, [r4, #1984]	@ D.43346, <variable>.UseDefaultScalingMatrix4x4Flag
	ldr	r1, [r2, #1984]	@ tmp250, <variable>.UseDefaultScalingMatrix4x4Flag
	cmp	r0, r1	@ D.43346, tmp250
	movne	ip, #0	@, equal
	andeq	ip, ip, #1	@,, equal, equal
	cmp	r0, #0	@ D.43346,
	beq	.L1023	@,
.L1025:
	add	r9, r9, #1	@ i, i,
.L1010:
	ldr	r4, [fp, #-64]	@, %sfp
	add	r8, r8, #64	@ ivtmp.3233, ivtmp.3233,
	ldr	r2, [fp, #-48]	@, %sfp
	add	sl, sl, #64	@ ivtmp.3332, ivtmp.3332,
	ldr	r1, [fp, #-52]	@, %sfp
	cmp	r4, r9	@, i
	add	r3, r2, #4	@,,
	str	r3, [fp, #-48]	@, %sfp
	add	r0, r1, #4	@,,
	str	r0, [fp, #-52]	@, %sfp
	bhi	.L1013	@,
	ldr	r3, [fp, #-56]	@ pPPS1, %sfp
	ldr	r1, [fp, #-60]	@ pPPS2, %sfp
.L1009:
	ldr	r0, [r3, #56]	@ <variable>.second_chroma_qp_index_offset, <variable>.second_chroma_qp_index_offset
	ldr	r3, [r1, #56]	@ <variable>.second_chroma_qp_index_offset, <variable>.second_chroma_qp_index_offset
	cmp	r0, r3	@ <variable>.second_chroma_qp_index_offset, <variable>.second_chroma_qp_index_offset
	movne	ip, #0	@, tmp333
	andeq	ip, ip, #1	@,, tmp333, equal
	cmp	ip, #0	@ tmp333,
	movne	r0, #0	@, ret,
	mvneq	r0, #0	@, ret,
.L1007:
	sub	sp, fp, #40
	ldmfd	sp, {r4, r5, r6, r7, r8, r9, sl, fp, sp, pc}
.L1011:
	ldr	r2, [fp, #-48]	@, %sfp
	ldr	r1, [fp, #-52]	@, %sfp
	ldr	r4, [r2, #1984]	@ D.43357, <variable>.UseDefaultScalingMatrix8x8Flag
	sub	r2, r9, #6	@ D.43356, i,
	ldr	r0, [r1, #1984]	@ tmp319, <variable>.UseDefaultScalingMatrix8x8Flag
	cmp	r4, r0	@ D.43357, tmp319
	movne	ip, #0	@, equal
	andeq	ip, ip, #1	@,, equal, equal
	cmp	r4, #0	@ D.43357,
	bne	.L1025	@,
	mov	r3, r2, asl #8	@ tmp321, D.43356,
	ldr	r5, [fp, #-60]	@, %sfp
	ldr	r7, [fp, #-56]	@, %sfp
	add	r6, r3, #448	@ tmp322, tmp321,
	add	r0, r5, r6	@ ivtmp.3223,, tmp322
	add	r1, r7, r6	@ ivtmp.3220,, tmp322
.L1012:
	mov	r2, r1	@ tmp337, ivtmp.3220
	mov	r3, r0	@ tmp338, ivtmp.3223
	ldr	r7, [r2], #4	@ tmp326, <variable>.ScalingList8x8
	add	r4, r4, #2	@ j, j,
	ldr	r6, [r3], #4	@ tmp327, <variable>.ScalingList8x8
	ldr	r5, [r1, #4]	@ tmp343, <variable>.ScalingList8x8
	add	r1, r2, #4	@ ivtmp.3220, tmp337,
	ldr	r2, [r0, #4]	@ tmp344, <variable>.ScalingList8x8
	cmp	r7, r6	@ tmp326, tmp327
	movne	ip, #0	@, equal
	andeq	ip, ip, #1	@,, equal, equal
	add	r0, r3, #4	@ ivtmp.3223, tmp338,
	cmp	r5, r2	@ tmp343, tmp344
	movne	ip, #0	@, equal
	andeq	ip, ip, #1	@,, equal, equal
	cmp	r4, #64	@ j,
	bne	.L1012	@,
	b	.L1025	@
.L1023:
	ldr	r0, [r8, #72]	@ tmp253, <variable>.ScalingList4x4
	add	r9, r9, #1	@ i, i,
	ldr	r1, [sl, #72]	@ tmp254, <variable>.ScalingList4x4
	ldr	r2, [r8, #68]	@ tmp257, <variable>.ScalingList4x4
	ldr	r3, [sl, #68]	@ tmp258, <variable>.ScalingList4x4
	ldr	r5, [r8, #76]	@ tmp261, <variable>.ScalingList4x4
	cmp	r0, r1	@ tmp253, tmp254
	cmpeq	r2, r3	@, tmp257, tmp258
	ldr	r6, [sl, #76]	@ tmp262, <variable>.ScalingList4x4
	ldr	r4, [sl, #80]	@ tmp266, <variable>.ScalingList4x4
	ldr	r1, [r8, #80]	@ tmp265, <variable>.ScalingList4x4
	movne	r3, #0	@, equal.3290
	moveq	r3, #1	@, equal.3290
	ldr	r0, [r8, #84]	@ tmp269, <variable>.ScalingList4x4
	cmp	r5, r6	@ tmp261, tmp262
	movne	r3, #0	@, equal.3294
	andeq	r3, r3, #1	@,, equal.3294, equal.3290
	ldr	r5, [sl, #84]	@ tmp270, <variable>.ScalingList4x4
	cmp	r1, r4	@ tmp265, tmp266
	movne	r1, #0	@, equal.3298
	andeq	r1, r3, #1	@,, equal.3298, equal.3294
	ldr	r2, [r8, #88]	@ tmp273, <variable>.ScalingList4x4
	ldr	r3, [sl, #88]	@ tmp274, <variable>.ScalingList4x4
	cmp	r0, r5	@ tmp269, tmp270
	movne	r1, #0	@, equal.3302
	andeq	r1, r1, #1	@,, equal.3302, equal.3298
	ldr	r4, [r8, #92]	@ tmp277, <variable>.ScalingList4x4
	ldr	r5, [sl, #92]	@ tmp278, <variable>.ScalingList4x4
	cmp	r2, r3	@ tmp273, tmp274
	movne	r3, #0	@, equal.3306
	andeq	r3, r1, #1	@,, equal.3306, equal.3302
	ldr	r0, [r8, #96]	@ tmp281, <variable>.ScalingList4x4
	ldr	r1, [sl, #96]	@ tmp282, <variable>.ScalingList4x4
	cmp	r4, r5	@ tmp277, tmp278
	movne	r3, #0	@, equal.3310
	andeq	r3, r3, #1	@,, equal.3310, equal.3306
	ldr	r4, [r8, #100]	@ tmp285, <variable>.ScalingList4x4
	ldr	r5, [sl, #100]	@ tmp286, <variable>.ScalingList4x4
	cmp	r0, r1	@ tmp281, tmp282
	movne	r1, #0	@, equal.3314
	andeq	r1, r3, #1	@,, equal.3314, equal.3310
	ldr	r2, [r8, #104]	@ tmp289, <variable>.ScalingList4x4
	ldr	r0, [sl, #104]	@ tmp290, <variable>.ScalingList4x4
	cmp	r4, r5	@ tmp285, tmp286
	movne	r1, #0	@, equal.3318
	andeq	r1, r1, #1	@,, equal.3318, equal.3314
	ldr	r4, [r8, #108]	@ tmp293, <variable>.ScalingList4x4
	ldr	r5, [sl, #108]	@ tmp294, <variable>.ScalingList4x4
	cmp	r2, r0	@ tmp289, tmp290
	movne	r3, #0	@, equal.3322
	andeq	r3, r1, #1	@,, equal.3322, equal.3318
	ldr	r0, [r8, #112]	@ tmp297, <variable>.ScalingList4x4
	ldr	r1, [sl, #112]	@ tmp298, <variable>.ScalingList4x4
	cmp	r4, r5	@ tmp293, tmp294
	movne	r3, #0	@, equal.3326
	andeq	r3, r3, #1	@,, equal.3326, equal.3322
	ldr	r4, [r8, #116]	@ tmp301, <variable>.ScalingList4x4
	ldr	r5, [sl, #116]	@ tmp302, <variable>.ScalingList4x4
	cmp	r0, r1	@ tmp297, tmp298
	movne	r1, #0	@, equal.3331
	andeq	r1, r3, #1	@,, equal.3331, equal.3326
	ldr	r2, [r8, #120]	@ tmp305, <variable>.ScalingList4x4
	cmp	r4, r5	@ tmp301, tmp302
	movne	r1, #0	@, equal.3336
	andeq	r1, r1, #1	@,, equal.3336, equal.3331
	ldr	r4, [fp, #-56]	@, %sfp
	ldr	r3, [sl, #120]	@ tmp306, <variable>.ScalingList4x4
	ldr	r0, [r4, r9, asl #6]	@ tmp311, <variable>.ScalingList4x4
	cmp	r2, r3	@ tmp305, tmp306
	movne	r4, #0	@, equal.3340
	andeq	r4, r1, #1	@,, equal.3340, equal.3336
	ldr	r2, [fp, #-60]	@, %sfp
	and	ip, ip, r4	@ equal.3344, equal, equal.3340
	ldr	r3, [sl, #124]	@ tmp316, <variable>.ScalingList4x4
	ldr	r1, [r2, r9, asl #6]	@ tmp312, <variable>.ScalingList4x4
	ldr	r2, [r8, #124]	@ tmp315, <variable>.ScalingList4x4
	cmp	r0, r1	@ tmp311, tmp312
	movne	ip, #0	@, equal.3348
	andeq	ip, ip, #1	@,, equal.3348, equal.3344
	cmp	r2, r3	@ tmp315, tmp316
	movne	ip, #0	@, equal
	andeq	ip, ip, #1	@,, equal, equal.3348
	b	.L1010	@
.L1026:
	movw	r1, #:lower16:.LC1	@,
	movw	r2, #:lower16:.LC2	@,
	movt	r1, #:upper16:.LC1	@,
	movt	r2, #:upper16:.LC2	@,
	movw	r3, #9616	@,
	bl	dprint_vfmw	@
	mvn	r0, #0	@ ret,
	b	.L1007	@
.L1027:
	mov	r0, r1	@, pPPS2
	movw	r2, #:lower16:.LC2	@,
	movw	r1, #:lower16:.LC1	@,
	movt	r2, #:upper16:.LC2	@,
	movt	r1, #:upper16:.LC1	@,
	movw	r3, #9617	@,
	bl	dprint_vfmw	@
	mvn	r0, #0	@ ret,
	b	.L1007	@
	.fnend
	.size	MVC_PPSEqual, .-MVC_PPSEqual
	.align	2
