	.arch armv7-a
	.fpu softvfp
	.eabi_attribute 20, 1
	.eabi_attribute 21, 1
	.eabi_attribute 23, 3
	.eabi_attribute 24, 1
	.eabi_attribute 25, 1
	.eabi_attribute 26, 2
	.eabi_attribute 30, 2
	.eabi_attribute 18, 4
	.file	"vfmw_ctrl.c"
@ GNU C (Hisilicon_v200(gcc4.4-290+glibc-2.11+eabi+nptl)) version 4.4.1 (arm-hisiv200-linux-gnueabi)
@	compiled by GNU C version 4.1.1 20061011 (Red Hat 4.1.1-30), GMP version 4.3.1, MPFR version 2.4.2.
@ GGC heuristics: --param ggc-min-expand=100 --param ggc-min-heapsize=131072
@ options passed:  -nostdinc
@ -I/release/HiSTBLinuxV100R002C01SPC020/source/kernel/linux-3.10.y/arch/arm/include
@ -Iarch/arm/include/generated
@ -I/release/HiSTBLinuxV100R002C01SPC020/source/kernel/linux-3.10.y/include
@ -Iinclude
@ -I/release/HiSTBLinuxV100R002C01SPC020/source/kernel/linux-3.10.y/arch/arm/include/uapi
@ -Iarch/arm/include/generated/uapi
@ -I/release/HiSTBLinuxV100R002C01SPC020/source/kernel/linux-3.10.y/include/uapi
@ -Iinclude/generated/uapi
@ -I/release/HiSTBLinuxV100R002C01SPC020/source/kernel/linux-3.10.y/drivers/msp/vfmw/vfmw_v4.0
@ -Idrivers/msp/vfmw/vfmw_v4.0
@ -I/release/HiSTBLinuxV100R002C01SPC020/source/kernel/linux-3.10.y/arch/arm/mach-s40/include
@ -I/release/HiSTBLinuxV100R002C01SPC020/source/kernel/linux-3.10.y/../../../source/common/include
@ -I/release/HiSTBLinuxV100R002C01SPC020/source/kernel/linux-3.10.y/../../../source/common/drv/include
@ -I/release/HiSTBLinuxV100R002C01SPC020/source/kernel/linux-3.10.y/../../../source/msp/drv/vfmw/vfmw_v4.0/drv/memmap
@ -I/release/HiSTBLinuxV100R002C01SPC020/source/kernel/linux-3.10.y/../../../source/msp/drv/vfmw/vfmw_v4.0/model/scd
@ -I/release/HiSTBLinuxV100R002C01SPC020/source/kernel/linux-3.10.y/../../../source/msp/drv/vfmw/vfmw_v4.0/firmware/common/softlib
@ -I/release/HiSTBLinuxV100R002C01SPC020/source/kernel/linux-3.10.y/../../../source/msp/drv/vfmw/vfmw_v4.0/firmware/common
@ -I/release/HiSTBLinuxV100R002C01SPC020/source/kernel/linux-3.10.y/../../../source/msp/drv/vfmw/vfmw_v4.0/firmware/common/syntax
@ -I/release/HiSTBLinuxV100R002C01SPC020/source/kernel/linux-3.10.y/../../../source/msp/drv/vfmw/vfmw_v4.0/firmware/driver/HiSCDV200
@ -I/release/HiSTBLinuxV100R002C01SPC020/source/kernel/linux-3.10.y/../../../source/msp/drv/vfmw/vfmw_v4.0/firmware/driver/HiVDHV100
@ -I/release/HiSTBLinuxV100R002C01SPC020/source/kernel/linux-3.10.y/../../../source/msp/drv/vfmw/vfmw_v4.0/firmware/driver/HiVDHV200R001
@ -I/release/HiSTBLinuxV100R002C01SPC020/source/kernel/linux-3.10.y/../../../source/msp/drv/vfmw/vfmw_v4.0/firmware/driver/HiVDHV200R002
@ -I/release/HiSTBLinuxV100R002C01SPC020/source/kernel/linux-3.10.y/../../../source/msp/drv/vfmw/vfmw_v4.0/firmware/driver/HiVDHV200R003
@ -I/release/HiSTBLinuxV100R002C01SPC020/source/kernel/linux-3.10.y/../../../source/msp/drv/vfmw/vfmw_v4.0/firmware/driver/HiVDHV200R004
@ -I/release/HiSTBLinuxV100R002C01SPC020/source/kernel/linux-3.10.y/../../../source/msp/drv/vfmw/vfmw_v4.0/model/rawpacket
@ -I/release/HiSTBLinuxV100R002C01SPC020/source/kernel/linux-3.10.y/../../../source/msp/drv/vfmw/vfmw_v4.0/firmware/product/Hi3716CV200/osal/linux_kernel
@ -I/release/HiSTBLinuxV100R002C01SPC020/source/kernel/linux-3.10.y/../../../source/msp/drv/vfmw/vfmw_v4.0/firmware/product/Hi3716CV200
@ -I/release/HiSTBLinuxV100R002C01SPC020/source/kernel/linux-3.10.y/../../../source/msp/drv/vfmw/vfmw_v4.0/firmware/driver/HiDNR
@ -I/release/HiSTBLinuxV100R002C01SPC020/source/kernel/linux-3.10.y/../../../source/msp/drv/vfmw/vfmw_v4.0/firmware/driver/HiBTLV100
@ -I/release/HiSTBLinuxV100R002C01SPC020/source/kernel/linux-3.10.y/../../../source/msp/drv/vfmw/vfmw_v4.0/firmware/common_test/vdecko
@ -imultilib armv7a_soft -iprefix
@ /opt/hisi-linux/x86-arm/arm-hisiv200-linux/bin/../lib/gcc/arm-hisiv200-linux-gnueabi/4.4.1/
@ -isysroot /opt/hisi-linux/x86-arm/arm-hisiv200-linux/bin/../target
@ -D__KERNEL__ -D__LINUX_ARM_ARCH__=7 -Uarm -DCHIP_TYPE_hi3716cv200
@ -DSDK_VERSION=HiSTBLinuxV100R002C01SPC020 -DHI_GPIOI2C_SUPPORT
@ -DHI_LOG_SUPPORT=1 -DHI_LOG_LEVEL=4 -DHI_PROC_SUPPORT=1
@ -DHI_KEYLED_SUPPORT -DHI_HDCP_SUPPORT -DHI_SCI_SUPPORT -DHI_VI_SUPPORT
@ -DHI_VENC_SUPPORT -DHI_AENC_SUPPORT -DHI_PQ_SUPPORT -DENV_ARMLINUX_KERNEL
@ -DDNR_DISABLE -DSCD_MP4_SLICE_ENABLE -DSUPPORT_JPEG_444
@ -DVFMW_EXTRA_TYPE_DEFINE -DPRODUCT_STB -D__VFMW_REGISTER_ISR__
@ -DVFMW_VDH_V200R004_SUPPORT -DVFMW_H264_SUPPORT -DVFMW_MVC_SUPPORT
@ -DVFMW_MPEG2_SUPPORT -DVFMW_MPEG4_SUPPORT -DVFMW_AVS_SUPPORT
@ -DVFMW_VC1_SUPPORT -DVFMW_BPD_H_SUPPORT -DVFMW_REAL8_SUPPORT
@ -DVFMW_REAL9_SUPPORT -DVFMW_VP6_SUPPORT -DVFMW_VP8_SUPPORT
@ -DVFMW_DIVX3_SUPPORT -DVFMW_H263_SUPPORT -DVFMW_JPEG_SUPPORT
@ -DVFMW_RAW_SUPPORT -DVFMW_USER_SUPPORT -DCFG_MAX_CHAN_NUM=16
@ -DCFG_MAX_CHAN_NUM=16 -DVFMW_DPRINT_SUPPORT -DVFMW_SCD_LOWDLY_SUPPORT
@ -DVFMW_AVSPLUS_SUPPORT -DVFMW_MODULE_LOWDLY_SUPPORT
@ -DVFMW_SYSTEM_REG_DISABLE -DHI_VDEC_SVDEC_BUILTIN -DKBUILD_STR(s)=#s
@ -DKBUILD_BASENAME=KBUILD_STR(vfmw_ctrl)
@ -DKBUILD_MODNAME=KBUILD_STR(hi_vfmw) -isystem
@ /opt/hisi-linux/x86-arm/arm-hisiv200-linux/bin/../lib/gcc/arm-hisiv200-linux-gnueabi/4.4.1/include
@ -include
@ /release/HiSTBLinuxV100R002C01SPC020/source/kernel/linux-3.10.y/include/linux/kconfig.h
@ -MD drivers/msp/vfmw/vfmw_v4.0/firmware/common/.vfmw_ctrl.o.d
@ /release/HiSTBLinuxV100R002C01SPC020/source/kernel/linux-3.10.y/drivers/msp/vfmw/vfmw_v4.0/firmware/common/vfmw_ctrl.c
@ -mlittle-endian -mapcs -mno-sched-prolog -mabi=aapcs-linux
@ -mno-thumb-interwork -marm -march=armv7-a -msoft-float -auxbase-strip
@ drivers/msp/vfmw/vfmw_v4.0/firmware/common/vfmw_ctrl.o -O2 -Wall -Wundef
@ -Wstrict-prototypes -Wno-trigraphs -Werror-implicit-function-declaration
@ -Wno-format-security -Wframe-larger-than=1024
@ -Wdeclaration-after-statement -Wno-pointer-sign -p -fno-strict-aliasing
@ -fno-common -fno-delete-null-pointer-checks -fno-dwarf2-cfi-asm
@ -fstack-protector -funwind-tables -fno-omit-frame-pointer
@ -fno-optimize-sibling-calls -fno-strict-overflow -fconserve-stack
@ -fno-pic -fverbose-asm
@ options enabled:  -falign-loops -fargument-alias -fauto-inc-dec
@ -fbranch-count-reg -fcaller-saves -fcprop-registers -fcrossjumping
@ -fcse-follow-jumps -fdefer-pop -fearly-inlining
@ -feliminate-unused-debug-types -fexpensive-optimizations
@ -fforward-propagate -ffunction-cse -fgcse -fgcse-lm
@ -fguess-branch-probability -fident -fif-conversion -fif-conversion2
@ -findirect-inlining -finline -finline-functions-called-once
@ -finline-small-functions -fipa-cp -fipa-pure-const -fipa-reference
@ -fira-share-save-slots -fira-share-spill-slots -fivopts
@ -fkeep-static-consts -fleading-underscore -fmath-errno -fmerge-constants
@ -fmerge-debug-strings -fmove-loop-invariants -foptimize-register-move
@ -fpeephole -fpeephole2 -fprofile -fpromote-loop-indices
@ -freg-struct-return -fregmove -frename-registers -freorder-blocks
@ -freorder-functions -frerun-cse-after-loop -fsched-interblock
@ -fsched-spec -fsched-stalled-insns-dep -fschedule-insns -fschedule-insns2
@ -fsection-anchors -fsigned-zeros -fsplit-ivs-in-unroller
@ -fsplit-wide-types -fstack-protector -fthread-jumps -ftoplevel-reorder
@ -ftrapping-math -ftree-builtin-call-dce -ftree-ccp -ftree-ch
@ -ftree-copy-prop -ftree-copyrename -ftree-cselim -ftree-dce
@ -ftree-dominator-opts -ftree-dse -ftree-fre -ftree-loop-im
@ -ftree-loop-ivcanon -ftree-loop-optimize -ftree-parallelize-loops=
@ -ftree-pre -ftree-reassoc -ftree-scev-cprop -ftree-sink -ftree-sra
@ -ftree-switch-conversion -ftree-ter -ftree-vect-loop-version -ftree-vrp
@ -funit-at-a-time -funroll-loops -funwind-tables -fverbose-asm -fweb
@ -fzero-initialized-in-bss -mapcs-frame -mglibc -mlittle-endian

@ Compiler executable checksum: fa59e0bd179ef45b3a3c3e6f3383fdac

	.text
	.align	2
	.global	VCTRL_GetStreamInterface
	.type	VCTRL_GetStreamInterface, %function
VCTRL_GetStreamInterface:
	.fnstart
.LFB1533:
	@ args = 0, pretend = 0, frame = 0
	@ frame_needed = 1, uses_anonymous_args = 0
	.movsp ip
	mov	ip, sp	@,
	stmfd	sp!, {fp, ip, lr, pc}	@,
	.pad #4
	.save {fp, ip, lr}
	.setfp fp, ip, #-4
	sub	fp, ip, #4	@,,
	push	{lr}
	bl	__gnu_mcount_nc
	movw	r3, #:lower16:.LANCHOR0	@ tmp137,
	movt	r3, #:upper16:.LANCHOR0	@ tmp137,
	ldr	r0, [r3, r0, asl #2]	@ D.37102, s_pstVfmwChan
	cmp	r0, #0	@ D.37102,
	addne	r0, r0, #120	@ D.37105, D.37102,
	ldmfd	sp, {fp, sp, pc}	@
	.fnend
	.size	VCTRL_GetStreamInterface, .-VCTRL_GetStreamInterface
	.align	2
	.global	VCTRL_GetFrameInterface
	.type	VCTRL_GetFrameInterface, %function
VCTRL_GetFrameInterface:
	.fnstart
.LFB1535:
	@ args = 0, pretend = 0, frame = 0
	@ frame_needed = 1, uses_anonymous_args = 0
	.movsp ip
	mov	ip, sp	@,
	stmfd	sp!, {fp, ip, lr, pc}	@,
	.pad #4
	.save {fp, ip, lr}
	.setfp fp, ip, #-4
	sub	fp, ip, #4	@,,
	push	{lr}
	bl	__gnu_mcount_nc
	movw	r3, #:lower16:.LANCHOR0	@ tmp137,
	movt	r3, #:upper16:.LANCHOR0	@ tmp137,
	ldr	r0, [r3, r0, asl #2]	@ D.37123, s_pstVfmwChan
	cmp	r0, #0	@ D.37123,
	addne	r0, r0, #144	@ D.37126, D.37123,
	ldmfd	sp, {fp, sp, pc}	@
	.fnend
	.size	VCTRL_GetFrameInterface, .-VCTRL_GetFrameInterface
	.align	2
	.global	VCTRL_GetSyntaxCtx
	.type	VCTRL_GetSyntaxCtx, %function
VCTRL_GetSyntaxCtx:
	.fnstart
.LFB1538:
	@ args = 0, pretend = 0, frame = 0
	@ frame_needed = 1, uses_anonymous_args = 0
	.movsp ip
	mov	ip, sp	@,
	stmfd	sp!, {fp, ip, lr, pc}	@,
	.pad #4
	.save {fp, ip, lr}
	.setfp fp, ip, #-4
	sub	fp, ip, #4	@,,
	push	{lr}
	bl	__gnu_mcount_nc
	movw	r3, #:lower16:.LANCHOR0	@ tmp137,
	movt	r3, #:upper16:.LANCHOR0	@ tmp137,
	ldr	r0, [r3, r0, asl #2]	@ D.37172, s_pstVfmwChan
	cmp	r0, #0	@ D.37172,
	addne	r0, r0, #219136	@ D.37175, D.37172,
	addne	r0, r0, #864	@ D.37175, D.37175,
	ldmfd	sp, {fp, sp, pc}	@
	.fnend
	.size	VCTRL_GetSyntaxCtx, .-VCTRL_GetSyntaxCtx
	.align	2
	.global	VCTRL_GetImageInterface
	.type	VCTRL_GetImageInterface, %function
VCTRL_GetImageInterface:
	.fnstart
.LFB1540:
	@ args = 0, pretend = 0, frame = 0
	@ frame_needed = 1, uses_anonymous_args = 0
	.movsp ip
	mov	ip, sp	@,
	stmfd	sp!, {fp, ip, lr, pc}	@,
	.pad #4
	.save {fp, ip, lr}
	.setfp fp, ip, #-4
	sub	fp, ip, #4	@,,
	push	{lr}
	bl	__gnu_mcount_nc
	movw	r3, #:lower16:.LANCHOR0	@ tmp137,
	movt	r3, #:upper16:.LANCHOR0	@ tmp137,
	ldr	r0, [r3, r0, asl #2]	@ D.37231, s_pstVfmwChan
	cmp	r0, #0	@ D.37231,
	addne	r0, r0, #132	@ D.37234, D.37231,
	ldmfd	sp, {fp, sp, pc}	@
	.fnend
	.size	VCTRL_GetImageInterface, .-VCTRL_GetImageInterface
	.align	2
	.global	VCTRL_GetChanCtxSize
	.type	VCTRL_GetChanCtxSize, %function
VCTRL_GetChanCtxSize:
	.fnstart
.LFB1544:
	@ args = 0, pretend = 0, frame = 0
	@ frame_needed = 1, uses_anonymous_args = 0
	.movsp ip
	mov	ip, sp	@,
	stmfd	sp!, {fp, ip, lr, pc}	@,
	.pad #4
	.save {fp, ip, lr}
	.setfp fp, ip, #-4
	sub	fp, ip, #4	@,,
	push	{lr}
	bl	__gnu_mcount_nc
	cmp	r0, #26	@ eCapLevel,
	movweq	r3, #:lower16:11627448	@ tmp135,
	movwne	r3, #:lower16:541960	@ tmp136,
	movteq	r3, #:upper16:11627448	@ tmp135,
	movtne	r3, #:upper16:541960	@ tmp136,
	str	r3, [r1, #0]	@ tmp136,* s32ChanCtxSize
	ldmfd	sp, {fp, sp, pc}	@
	.fnend
	.size	VCTRL_GetChanCtxSize, .-VCTRL_GetChanCtxSize
	.align	2
	.global	VCTRL_CmpConfigParameter
	.type	VCTRL_CmpConfigParameter, %function
VCTRL_CmpConfigParameter:
	.fnstart
.LFB1554:
	@ args = 0, pretend = 0, frame = 0
	@ frame_needed = 1, uses_anonymous_args = 0
	.movsp ip
	mov	ip, sp	@,
	stmfd	sp!, {fp, ip, lr, pc}	@,
	.pad #4
	.save {fp, ip, lr}
	.setfp fp, ip, #-4
	sub	fp, ip, #4	@,,
	push	{lr}
	bl	__gnu_mcount_nc
	movw	r3, #:lower16:.LANCHOR0	@ tmp139,
	movt	r3, #:upper16:.LANCHOR0	@ tmp139,
	ldr	r3, [r3, r0, asl #2]	@ D.37954, s_pstVfmwChan
	ldr	r2, [r3, #944]	@ <variable>.eVidStd, <variable>.eVidStd
	cmp	r2, #19	@ <variable>.eVidStd,
	bne	.L28	@,
.L22:
	mvn	r0, #0	@ D.38007,
	ldmfd	sp, {fp, sp, pc}	@
.L28:
	ldr	r2, [r3, #40]	@ D.37959, <variable>.stChanCfg.eVidStd
	ldr	r0, [r1, #0]	@ <variable>.eVidStd, <variable>.eVidStd
	cmp	r2, r0	@ D.37959, <variable>.eVidStd
	bne	.L22	@,
	ldr	ip, [r3, #56]	@ <variable>.stChanCfg.s32ChanErrThr, <variable>.stChanCfg.s32ChanErrThr
	ldr	r0, [r1, #16]	@ <variable>.s32ChanErrThr, <variable>.s32ChanErrThr
	cmp	ip, r0	@ <variable>.stChanCfg.s32ChanErrThr, <variable>.s32ChanErrThr
	bne	.L22	@,
	ldr	ip, [r3, #52]	@ <variable>.stChanCfg.s32ChanPriority, <variable>.stChanCfg.s32ChanPriority
	ldr	r0, [r1, #12]	@ <variable>.s32ChanPriority, <variable>.s32ChanPriority
	cmp	ip, r0	@ <variable>.stChanCfg.s32ChanPriority, <variable>.s32ChanPriority
	bne	.L22	@,
	ldr	ip, [r3, #60]	@ <variable>.stChanCfg.s32ChanStrmOFThr, <variable>.stChanCfg.s32ChanStrmOFThr
	ldr	r0, [r1, #20]	@ <variable>.s32ChanStrmOFThr, <variable>.s32ChanStrmOFThr
	cmp	ip, r0	@ <variable>.stChanCfg.s32ChanStrmOFThr, <variable>.s32ChanStrmOFThr
	bne	.L22	@,
	ldr	ip, [r3, #64]	@ <variable>.stChanCfg.s32DecMode, <variable>.stChanCfg.s32DecMode
	ldr	r0, [r1, #24]	@ <variable>.s32DecMode, <variable>.s32DecMode
	cmp	ip, r0	@ <variable>.stChanCfg.s32DecMode, <variable>.s32DecMode
	bne	.L22	@,
	ldr	ip, [r3, #68]	@ <variable>.stChanCfg.s32DecOrderOutput, <variable>.stChanCfg.s32DecOrderOutput
	ldr	r0, [r1, #28]	@ <variable>.s32DecOrderOutput, <variable>.s32DecOrderOutput
	cmp	ip, r0	@ <variable>.stChanCfg.s32DecOrderOutput, <variable>.s32DecOrderOutput
	bne	.L22	@,
	ldr	ip, [r3, #76]	@ <variable>.stChanCfg.s32DnrDispOutEnable, <variable>.stChanCfg.s32DnrDispOutEnable
	ldr	r0, [r1, #36]	@ <variable>.s32DnrDispOutEnable, <variable>.s32DnrDispOutEnable
	cmp	ip, r0	@ <variable>.stChanCfg.s32DnrDispOutEnable, <variable>.s32DnrDispOutEnable
	bne	.L22	@,
	ldr	ip, [r3, #72]	@ <variable>.stChanCfg.s32DnrTfEnable, <variable>.stChanCfg.s32DnrTfEnable
	ldr	r0, [r1, #32]	@ <variable>.s32DnrTfEnable, <variable>.s32DnrTfEnable
	cmp	ip, r0	@ <variable>.stChanCfg.s32DnrTfEnable, <variable>.s32DnrTfEnable
	bne	.L22	@,
	ldr	ip, [r3, #92]	@ <variable>.stChanCfg.s32VcmpEn, <variable>.stChanCfg.s32VcmpEn
	ldr	r0, [r1, #52]	@ <variable>.s32VcmpEn, <variable>.s32VcmpEn
	cmp	ip, r0	@ <variable>.stChanCfg.s32VcmpEn, <variable>.s32VcmpEn
	bne	.L22	@,
	ldr	ip, [r3, #104]	@ <variable>.stChanCfg.s32VcmpWmEndLine, <variable>.stChanCfg.s32VcmpWmEndLine
	ldr	r0, [r1, #64]	@ <variable>.s32VcmpWmEndLine, <variable>.s32VcmpWmEndLine
	cmp	ip, r0	@ <variable>.stChanCfg.s32VcmpWmEndLine, <variable>.s32VcmpWmEndLine
	bne	.L22	@,
	ldr	ip, [r3, #100]	@ <variable>.stChanCfg.s32VcmpWmStartLine, <variable>.stChanCfg.s32VcmpWmStartLine
	ldr	r0, [r1, #60]	@ <variable>.s32VcmpWmStartLine, <variable>.s32VcmpWmStartLine
	cmp	ip, r0	@ <variable>.stChanCfg.s32VcmpWmStartLine, <variable>.s32VcmpWmStartLine
	bne	.L22	@,
	ldr	ip, [r3, #96]	@ <variable>.stChanCfg.s32WmEn, <variable>.stChanCfg.s32WmEn
	ldr	r0, [r1, #56]	@ <variable>.s32WmEn, <variable>.s32WmEn
	cmp	ip, r0	@ <variable>.stChanCfg.s32WmEn, <variable>.s32WmEn
	bne	.L22	@,
	ldr	ip, [r3, #108]	@ <variable>.stChanCfg.s32SupportAllP, <variable>.stChanCfg.s32SupportAllP
	ldr	r0, [r1, #68]	@ <variable>.s32SupportAllP, <variable>.s32SupportAllP
	cmp	ip, r0	@ <variable>.stChanCfg.s32SupportAllP, <variable>.s32SupportAllP
	bne	.L22	@,
	cmp	r2, #1	@ D.37959,
	beq	.L29	@,
	sub	r0, r2, #10	@ tmp170, D.37959,
	cmp	r0, #2	@ tmp170,
	bhi	.L24	@,
	ldr	r2, [r3, #44]	@ <variable>.stChanCfg.StdExt.Vp6Ext.bReversed, <variable>.stChanCfg.StdExt.Vp6Ext.bReversed
	ldr	ip, [r1, #4]	@ <variable>.StdExt.Vp6Ext.bReversed, <variable>.StdExt.Vp6Ext.bReversed
	cmp	r2, ip	@ <variable>.stChanCfg.StdExt.Vp6Ext.bReversed, <variable>.StdExt.Vp6Ext.bReversed
	bne	.L22	@,
.L24:
	mov	r0, #0	@ D.38007,
	ldmfd	sp, {fp, sp, pc}	@
.L29:
	ldr	r0, [r3, #44]	@ <variable>.stChanCfg.StdExt.Vc1Ext.IsAdvProfile, <variable>.stChanCfg.StdExt.Vc1Ext.IsAdvProfile
	ldr	r2, [r1, #4]	@ <variable>.StdExt.Vc1Ext.IsAdvProfile, <variable>.StdExt.Vc1Ext.IsAdvProfile
	cmp	r0, r2	@ <variable>.stChanCfg.StdExt.Vc1Ext.IsAdvProfile, <variable>.StdExt.Vc1Ext.IsAdvProfile
	bne	.L22	@,
	ldr	ip, [r3, #48]	@ <variable>.stChanCfg.StdExt.Vc1Ext.CodecVersion, <variable>.stChanCfg.StdExt.Vc1Ext.CodecVersion
	ldr	r3, [r1, #8]	@ <variable>.StdExt.Vc1Ext.CodecVersion, <variable>.StdExt.Vc1Ext.CodecVersion
	cmp	ip, r3	@ <variable>.stChanCfg.StdExt.Vc1Ext.CodecVersion, <variable>.StdExt.Vc1Ext.CodecVersion
	beq	.L24	@,
	b	.L22	@
	.fnend
	.size	VCTRL_CmpConfigParameter, .-VCTRL_CmpConfigParameter
	.align	2
	.global	VCTRL_IsChanSegEnough
	.type	VCTRL_IsChanSegEnough, %function
VCTRL_IsChanSegEnough:
	.fnstart
.LFB1575:
	@ args = 0, pretend = 0, frame = 0
	@ frame_needed = 1, uses_anonymous_args = 0
	.movsp ip
	mov	ip, sp	@,
	stmfd	sp!, {fp, ip, lr, pc}	@,
	.pad #4
	.save {fp, ip, lr}
	.setfp fp, ip, #-4
	sub	fp, ip, #4	@,,
	push	{lr}
	bl	__gnu_mcount_nc
	movw	r1, #:lower16:.LANCHOR0	@ tmp136,
	movt	r1, #:upper16:.LANCHOR0	@ tmp136,
	ldr	r3, [r1, r0, asl #2]	@ tmp137, s_pstVfmwChan
	ldr	r0, [r3, #736]	@ <variable>.s32NoStreamFlag, <variable>.s32NoStreamFlag
	subs	r0, r0, #1	@, <variable>.s32NoStreamFlag,
	movne	r0, #1	@
	ldmfd	sp, {fp, sp, pc}	@
	.fnend
	.size	VCTRL_IsChanSegEnough, .-VCTRL_IsChanSegEnough
	.align	2
	.global	VCTRL_IsChanActive
	.type	VCTRL_IsChanActive, %function
VCTRL_IsChanActive:
	.fnstart
.LFB1576:
	@ args = 0, pretend = 0, frame = 0
	@ frame_needed = 1, uses_anonymous_args = 0
	.movsp ip
	mov	ip, sp	@,
	stmfd	sp!, {fp, ip, lr, pc}	@,
	.pad #4
	.save {fp, ip, lr}
	.setfp fp, ip, #-4
	sub	fp, ip, #4	@,,
	push	{lr}
	bl	__gnu_mcount_nc
	cmp	r0, #15	@ ChanID,
	bls	.L36	@,
.L33:
	mvn	r0, #0	@ D.39085,
	ldmfd	sp, {fp, sp, pc}	@
.L36:
	movw	r3, #:lower16:.LANCHOR0	@ tmp137,
	movt	r3, #:upper16:.LANCHOR0	@ tmp137,
	ldr	r3, [r3, r0, asl #2]	@ D.39084, s_pstVfmwChan
	cmp	r3, #0	@ D.39084,
	beq	.L33	@,
	ldr	r2, [r3, #12]	@ <variable>.s32IsOpen, <variable>.s32IsOpen
	cmp	r2, #0	@ <variable>.s32IsOpen,
	beq	.L33	@,
	ldr	r1, [r3, #16]	@ <variable>.s32IsRun, <variable>.s32IsRun
	cmp	r1, #0	@ <variable>.s32IsRun,
	beq	.L33	@,
	ldr	ip, [r3, #20]	@ <variable>.s32Priority, <variable>.s32Priority
	cmp	ip, #0	@ <variable>.s32Priority,
	beq	.L33	@,
	ldr	r3, [r3, #944]	@ <variable>.eVidStd, <variable>.eVidStd
	cmp	r3, #19	@ <variable>.eVidStd,
	movne	r0, #0	@ D.39085,
	ldmnefd	sp, {fp, sp, pc}	@
	b	.L33	@
	.fnend
	.size	VCTRL_IsChanActive, .-VCTRL_IsChanActive
	.align	2
	.global	VCTRL_GetChanMemSizeByResolution
	.type	VCTRL_GetChanMemSizeByResolution, %function
VCTRL_GetChanMemSizeByResolution:
	.fnstart
.LFB1584:
	@ args = 0, pretend = 0, frame = 888
	@ frame_needed = 1, uses_anonymous_args = 0
	.movsp ip
	mov	ip, sp	@,
	stmfd	sp!, {r4, r5, fp, ip, lr, pc}	@,
	.pad #4
	.save {r4, r5, fp, ip, lr}
	.setfp fp, ip, #-4
	sub	fp, ip, #4	@,,
	.pad #912
	sub	sp, sp, #912	@,,
	push	{lr}
	bl	__gnu_mcount_nc
	movw	ip, #:lower16:g_vdm_hal_fun_ptr	@ tmp141,
	movt	ip, #:upper16:g_vdm_hal_fun_ptr	@ tmp141,
	mov	r5, r2	@ VdmMemSize, VdmMemSize
	mov	r4, r3	@ ScdMemSize, ScdMemSize
	ldr	ip, [ip, #36]	@ D.39453, g_vdm_hal_fun_ptr.pfun_VDMHAL_ArrangeMem
	cmp	ip, #0	@ D.39453,
	beq	.L38	@,
	mov	r2, r0	@, MaxWidth
	mov	r3, r1	@, MaxHeight
	mov	r0, #6	@ tmp142,
	mov	r1, #16	@ tmp143,
	str	r0, [sp, #0]	@ tmp142,
	mov	lr, #0	@ tmp144,
	str	r1, [sp, #4]	@ tmp143,
	mvn	r0, #0	@ tmp145,
	sub	r1, fp, #904	@ tmp147,,
	str	r0, [sp, #12]	@ tmp145,
	str	r1, [sp, #16]	@ tmp147,
	mov	r0, #1	@,
	str	lr, [sp, #8]	@ tmp144,
	mvn	r1, #-2147483648	@,
	blx	ip	@ D.39453
	cmp	r0, #0	@ ret
	bne	.L38	@,
	ldr	r2, [fp, #-900]	@ MemArrange.TotalMemUsed, MemArrange.TotalMemUsed
	mov	r3, #2129920	@ tmp149,
	str	r2, [r5, #0]	@ MemArrange.TotalMemUsed,* VdmMemSize
	str	r3, [r4, #0]	@ tmp149,* ScdMemSize
	str	r2, [r5, #4]	@ MemArrange.TotalMemUsed,
	str	r3, [r4, #4]	@ tmp149,
	str	r2, [r5, #8]	@ MemArrange.TotalMemUsed,
	str	r3, [r4, #8]	@ tmp149,
.L39:
	sub	sp, fp, #20
	ldmfd	sp, {r4, r5, fp, sp, pc}
.L38:
	mvn	r0, #0	@ D.39466,
	b	.L39	@
	.fnend
	.size	VCTRL_GetChanMemSizeByResolution, .-VCTRL_GetChanMemSizeByResolution
	.align	2
	.global	VCTRL_GetChanIDByCtx
	.type	VCTRL_GetChanIDByCtx, %function
VCTRL_GetChanIDByCtx:
	.fnstart
.LFB1590:
	@ args = 0, pretend = 0, frame = 0
	@ frame_needed = 1, uses_anonymous_args = 0
	.movsp ip
	mov	ip, sp	@,
	stmfd	sp!, {fp, ip, lr, pc}	@,
	.pad #4
	.save {fp, ip, lr}
	.setfp fp, ip, #-4
	sub	fp, ip, #4	@,,
	push	{lr}
	bl	__gnu_mcount_nc
	movw	r3, #:lower16:.LANCHOR0	@ tmp201,
	movt	r3, #:upper16:.LANCHOR0	@ tmp201,
	ldr	r2, [r3, #0]	@ temp.1106, s_pstVfmwChan
	cmp	r2, #0	@ temp.1106,
	beq	.L42	@,
	add	r1, r2, #219136	@ tmp153, temp.1106,
	add	r2, r1, #872	@ tmp153, tmp153,
	cmp	r2, r0	@ tmp153, pCtx
	moveq	r0, #0	@ i,
	ldmeqfd	sp, {fp, sp, pc}	@
.L42:
	ldr	r2, [r3, #4]	@ temp.1108, s_pstVfmwChan
	cmp	r2, #0	@ temp.1108,
	beq	.L44	@,
	add	r2, r2, #219136	@ tmp156, temp.1108,
	add	ip, r2, #872	@ tmp156, tmp156,
	cmp	ip, r0	@ tmp156, pCtx
	moveq	r0, #1	@ i,
	ldmeqfd	sp, {fp, sp, pc}	@
.L44:
	ldr	r2, [r3, #8]	@ temp.1110, s_pstVfmwChan
	cmp	r2, #0	@ temp.1110,
	beq	.L45	@,
	add	ip, r2, #219136	@ tmp159, temp.1110,
	add	r1, ip, #872	@ tmp159, tmp159,
	cmp	r1, r0	@ tmp159, pCtx
	moveq	r0, #2	@ i,
	ldmeqfd	sp, {fp, sp, pc}	@
.L45:
	ldr	r2, [r3, #12]	@ temp.1112, s_pstVfmwChan
	cmp	r2, #0	@ temp.1112,
	beq	.L46	@,
	add	r1, r2, #219136	@ tmp162, temp.1112,
	add	r2, r1, #872	@ tmp162, tmp162,
	cmp	r2, r0	@ tmp162, pCtx
	moveq	r0, #3	@ i,
	ldmeqfd	sp, {fp, sp, pc}	@
.L46:
	ldr	r2, [r3, #16]	@ temp.1114, s_pstVfmwChan
	cmp	r2, #0	@ temp.1114,
	beq	.L47	@,
	add	r2, r2, #219136	@ tmp165, temp.1114,
	add	ip, r2, #872	@ tmp165, tmp165,
	cmp	ip, r0	@ tmp165, pCtx
	moveq	r0, #4	@ i,
	ldmeqfd	sp, {fp, sp, pc}	@
.L47:
	ldr	r2, [r3, #20]	@ temp.1116, s_pstVfmwChan
	cmp	r2, #0	@ temp.1116,
	beq	.L48	@,
	add	ip, r2, #219136	@ tmp168, temp.1116,
	add	r1, ip, #872	@ tmp168, tmp168,
	cmp	r1, r0	@ tmp168, pCtx
	moveq	r0, #5	@ i,
	ldmeqfd	sp, {fp, sp, pc}	@
.L48:
	ldr	r2, [r3, #24]	@ temp.1118, s_pstVfmwChan
	cmp	r2, #0	@ temp.1118,
	beq	.L49	@,
	add	r1, r2, #219136	@ tmp171, temp.1118,
	add	r2, r1, #872	@ tmp171, tmp171,
	cmp	r2, r0	@ tmp171, pCtx
	moveq	r0, #6	@ i,
	ldmeqfd	sp, {fp, sp, pc}	@
.L49:
	ldr	r2, [r3, #28]	@ temp.1120, s_pstVfmwChan
	cmp	r2, #0	@ temp.1120,
	beq	.L50	@,
	add	r2, r2, #219136	@ tmp174, temp.1120,
	add	ip, r2, #872	@ tmp174, tmp174,
	cmp	ip, r0	@ tmp174, pCtx
	moveq	r0, #7	@ i,
	ldmeqfd	sp, {fp, sp, pc}	@
.L50:
	ldr	r2, [r3, #32]	@ temp.1122, s_pstVfmwChan
	cmp	r2, #0	@ temp.1122,
	beq	.L51	@,
	add	ip, r2, #219136	@ tmp177, temp.1122,
	add	r1, ip, #872	@ tmp177, tmp177,
	cmp	r1, r0	@ tmp177, pCtx
	moveq	r0, #8	@ i,
	ldmeqfd	sp, {fp, sp, pc}	@
.L51:
	ldr	r2, [r3, #36]	@ temp.1124, s_pstVfmwChan
	cmp	r2, #0	@ temp.1124,
	beq	.L52	@,
	add	r1, r2, #219136	@ tmp180, temp.1124,
	add	r2, r1, #872	@ tmp180, tmp180,
	cmp	r2, r0	@ tmp180, pCtx
	moveq	r0, #9	@ i,
	ldmeqfd	sp, {fp, sp, pc}	@
.L52:
	ldr	r2, [r3, #40]	@ temp.1126, s_pstVfmwChan
	cmp	r2, #0	@ temp.1126,
	beq	.L53	@,
	add	r2, r2, #219136	@ tmp183, temp.1126,
	add	ip, r2, #872	@ tmp183, tmp183,
	cmp	ip, r0	@ tmp183, pCtx
	moveq	r0, #10	@ i,
	ldmeqfd	sp, {fp, sp, pc}	@
.L53:
	ldr	r2, [r3, #44]	@ temp.1128, s_pstVfmwChan
	cmp	r2, #0	@ temp.1128,
	beq	.L54	@,
	add	ip, r2, #219136	@ tmp186, temp.1128,
	add	r1, ip, #872	@ tmp186, tmp186,
	cmp	r1, r0	@ tmp186, pCtx
	moveq	r0, #11	@ i,
	ldmeqfd	sp, {fp, sp, pc}	@
.L54:
	ldr	r2, [r3, #48]	@ temp.1130, s_pstVfmwChan
	cmp	r2, #0	@ temp.1130,
	beq	.L55	@,
	add	r1, r2, #219136	@ tmp189, temp.1130,
	add	r2, r1, #872	@ tmp189, tmp189,
	cmp	r2, r0	@ tmp189, pCtx
	moveq	r0, #12	@ i,
	ldmeqfd	sp, {fp, sp, pc}	@
.L55:
	ldr	r2, [r3, #52]	@ temp.1132, s_pstVfmwChan
	cmp	r2, #0	@ temp.1132,
	beq	.L56	@,
	add	r2, r2, #219136	@ tmp192, temp.1132,
	add	ip, r2, #872	@ tmp192, tmp192,
	cmp	ip, r0	@ tmp192, pCtx
	moveq	r0, #13	@ i,
	ldmeqfd	sp, {fp, sp, pc}	@
.L56:
	ldr	r2, [r3, #56]	@ temp.1134, s_pstVfmwChan
	cmp	r2, #0	@ temp.1134,
	beq	.L57	@,
	add	ip, r2, #219136	@ tmp195, temp.1134,
	add	r1, ip, #872	@ tmp195, tmp195,
	cmp	r1, r0	@ tmp195, pCtx
	moveq	r0, #14	@ i,
	ldmeqfd	sp, {fp, sp, pc}	@
.L57:
	ldr	r3, [r3, #60]	@ D.39955, s_pstVfmwChan
	cmp	r3, #0	@ D.39955,
	beq	.L58	@,
	add	r2, r3, #219136	@ tmp198, D.39955,
	add	r3, r2, #872	@ tmp198, tmp198,
	cmp	r3, r0	@ tmp198, pCtx
	moveq	r0, #15	@ i,
	ldmeqfd	sp, {fp, sp, pc}	@
.L58:
	mvn	r0, #0	@ i,
	ldmfd	sp, {fp, sp, pc}	@
	.fnend
	.size	VCTRL_GetChanIDByCtx, .-VCTRL_GetChanIDByCtx
	.align	2
	.global	VCTRL_GetChanIDByMemAddr
	.type	VCTRL_GetChanIDByMemAddr, %function
VCTRL_GetChanIDByMemAddr:
	.fnstart
.LFB1591:
	@ args = 0, pretend = 0, frame = 0
	@ frame_needed = 1, uses_anonymous_args = 0
	.movsp ip
	mov	ip, sp	@,
	stmfd	sp!, {fp, ip, lr, pc}	@,
	.pad #4
	.save {fp, ip, lr}
	.setfp fp, ip, #-4
	sub	fp, ip, #4	@,,
	push	{lr}
	bl	__gnu_mcount_nc
	movw	r3, #:lower16:.LANCHOR0	@ tmp265,
	movt	r3, #:upper16:.LANCHOR0	@ tmp265,
	ldr	r2, [r3, #0]	@ temp.1160, s_pstVfmwChan
	cmp	r2, #0	@ temp.1160,
	beq	.L61	@,
	ldr	r1, [r2, #184]	@ temp.1162, <variable>.stChanMem_vdh.PhyAddr
	cmp	r0, r1	@ PhyAddr, temp.1162
	bge	.L62	@,
.L64:
	ldr	r1, [r2, #196]	@ temp.1161, <variable>.stChanMem_scd.PhyAddr
	cmp	r0, r1	@ PhyAddr, temp.1161
	blt	.L61	@,
	ldr	r2, [r2, #204]	@ <variable>.stChanMem_scd.Length, <variable>.stChanMem_scd.Length
	add	r1, r1, r2	@ tmp185, temp.1161, <variable>.stChanMem_scd.Length
	cmp	r0, r1	@ PhyAddr, tmp185
	blt	.L110	@,
.L61:
	ldr	r2, [r3, #4]	@ temp.1167, s_pstVfmwChan
	cmp	r2, #0	@ temp.1167,
	beq	.L65	@,
	ldr	r1, [r2, #184]	@ temp.1168, <variable>.stChanMem_vdh.PhyAddr
	cmp	r0, r1	@ PhyAddr, temp.1168
	bge	.L66	@,
.L67:
	ldr	r1, [r2, #196]	@ temp.1169, <variable>.stChanMem_scd.PhyAddr
	cmp	r0, r1	@ PhyAddr, temp.1169
	blt	.L65	@,
	ldr	r2, [r2, #204]	@ <variable>.stChanMem_scd.Length, <variable>.stChanMem_scd.Length
	add	r1, r1, r2	@ tmp190, temp.1169, <variable>.stChanMem_scd.Length
	cmp	r0, r1	@ PhyAddr, tmp190
	blt	.L112	@,
.L65:
	ldr	r2, [r3, #8]	@ temp.1174, s_pstVfmwChan
	cmp	r2, #0	@ temp.1174,
	beq	.L68	@,
	ldr	r1, [r2, #184]	@ temp.1175, <variable>.stChanMem_vdh.PhyAddr
	cmp	r0, r1	@ PhyAddr, temp.1175
	bge	.L69	@,
.L70:
	ldr	r1, [r2, #196]	@ temp.1176, <variable>.stChanMem_scd.PhyAddr
	cmp	r0, r1	@ PhyAddr, temp.1176
	blt	.L68	@,
	ldr	r2, [r2, #204]	@ <variable>.stChanMem_scd.Length, <variable>.stChanMem_scd.Length
	add	r1, r1, r2	@ tmp195, temp.1176, <variable>.stChanMem_scd.Length
	cmp	r0, r1	@ PhyAddr, tmp195
	blt	.L125	@,
.L68:
	ldr	r2, [r3, #12]	@ temp.1181, s_pstVfmwChan
	cmp	r2, #0	@ temp.1181,
	beq	.L71	@,
	ldr	r1, [r2, #184]	@ temp.1182, <variable>.stChanMem_vdh.PhyAddr
	cmp	r0, r1	@ PhyAddr, temp.1182
	bge	.L72	@,
.L73:
	ldr	r1, [r2, #196]	@ temp.1183, <variable>.stChanMem_scd.PhyAddr
	cmp	r0, r1	@ PhyAddr, temp.1183
	blt	.L71	@,
	ldr	r2, [r2, #204]	@ <variable>.stChanMem_scd.Length, <variable>.stChanMem_scd.Length
	add	r1, r1, r2	@ tmp200, temp.1183, <variable>.stChanMem_scd.Length
	cmp	r0, r1	@ PhyAddr, tmp200
	blt	.L124	@,
.L71:
	ldr	r2, [r3, #16]	@ temp.1188, s_pstVfmwChan
	cmp	r2, #0	@ temp.1188,
	beq	.L74	@,
	ldr	r1, [r2, #184]	@ temp.1189, <variable>.stChanMem_vdh.PhyAddr
	cmp	r0, r1	@ PhyAddr, temp.1189
	bge	.L75	@,
.L76:
	ldr	r1, [r2, #196]	@ temp.1190, <variable>.stChanMem_scd.PhyAddr
	cmp	r0, r1	@ PhyAddr, temp.1190
	blt	.L74	@,
	ldr	r2, [r2, #204]	@ <variable>.stChanMem_scd.Length, <variable>.stChanMem_scd.Length
	add	r1, r1, r2	@ tmp205, temp.1190, <variable>.stChanMem_scd.Length
	cmp	r0, r1	@ PhyAddr, tmp205
	blt	.L123	@,
.L74:
	ldr	r2, [r3, #20]	@ temp.1195, s_pstVfmwChan
	cmp	r2, #0	@ temp.1195,
	beq	.L77	@,
	ldr	r1, [r2, #184]	@ temp.1196, <variable>.stChanMem_vdh.PhyAddr
	cmp	r0, r1	@ PhyAddr, temp.1196
	bge	.L78	@,
.L79:
	ldr	r1, [r2, #196]	@ temp.1197, <variable>.stChanMem_scd.PhyAddr
	cmp	r0, r1	@ PhyAddr, temp.1197
	blt	.L77	@,
	ldr	r2, [r2, #204]	@ <variable>.stChanMem_scd.Length, <variable>.stChanMem_scd.Length
	add	r1, r1, r2	@ tmp210, temp.1197, <variable>.stChanMem_scd.Length
	cmp	r0, r1	@ PhyAddr, tmp210
	blt	.L122	@,
.L77:
	ldr	r2, [r3, #24]	@ temp.1202, s_pstVfmwChan
	cmp	r2, #0	@ temp.1202,
	beq	.L80	@,
	ldr	r1, [r2, #184]	@ temp.1203, <variable>.stChanMem_vdh.PhyAddr
	cmp	r0, r1	@ PhyAddr, temp.1203
	bge	.L81	@,
.L82:
	ldr	r1, [r2, #196]	@ temp.1204, <variable>.stChanMem_scd.PhyAddr
	cmp	r0, r1	@ PhyAddr, temp.1204
	blt	.L80	@,
	ldr	r2, [r2, #204]	@ <variable>.stChanMem_scd.Length, <variable>.stChanMem_scd.Length
	add	r1, r1, r2	@ tmp215, temp.1204, <variable>.stChanMem_scd.Length
	cmp	r0, r1	@ PhyAddr, tmp215
	blt	.L121	@,
.L80:
	ldr	r2, [r3, #28]	@ temp.1209, s_pstVfmwChan
	cmp	r2, #0	@ temp.1209,
	beq	.L83	@,
	ldr	r1, [r2, #184]	@ temp.1210, <variable>.stChanMem_vdh.PhyAddr
	cmp	r0, r1	@ PhyAddr, temp.1210
	bge	.L84	@,
.L85:
	ldr	r1, [r2, #196]	@ temp.1211, <variable>.stChanMem_scd.PhyAddr
	cmp	r0, r1	@ PhyAddr, temp.1211
	blt	.L83	@,
	ldr	r2, [r2, #204]	@ <variable>.stChanMem_scd.Length, <variable>.stChanMem_scd.Length
	add	r1, r1, r2	@ tmp220, temp.1211, <variable>.stChanMem_scd.Length
	cmp	r0, r1	@ PhyAddr, tmp220
	blt	.L120	@,
.L83:
	ldr	r2, [r3, #32]	@ temp.1216, s_pstVfmwChan
	cmp	r2, #0	@ temp.1216,
	beq	.L86	@,
	ldr	r1, [r2, #184]	@ temp.1217, <variable>.stChanMem_vdh.PhyAddr
	cmp	r0, r1	@ PhyAddr, temp.1217
	bge	.L87	@,
.L88:
	ldr	r1, [r2, #196]	@ temp.1218, <variable>.stChanMem_scd.PhyAddr
	cmp	r0, r1	@ PhyAddr, temp.1218
	blt	.L86	@,
	ldr	r2, [r2, #204]	@ <variable>.stChanMem_scd.Length, <variable>.stChanMem_scd.Length
	add	r1, r1, r2	@ tmp225, temp.1218, <variable>.stChanMem_scd.Length
	cmp	r0, r1	@ PhyAddr, tmp225
	blt	.L119	@,
.L86:
	ldr	r2, [r3, #36]	@ temp.1223, s_pstVfmwChan
	cmp	r2, #0	@ temp.1223,
	beq	.L89	@,
	ldr	r1, [r2, #184]	@ temp.1224, <variable>.stChanMem_vdh.PhyAddr
	cmp	r0, r1	@ PhyAddr, temp.1224
	bge	.L90	@,
.L91:
	ldr	r1, [r2, #196]	@ temp.1225, <variable>.stChanMem_scd.PhyAddr
	cmp	r0, r1	@ PhyAddr, temp.1225
	blt	.L89	@,
	ldr	r2, [r2, #204]	@ <variable>.stChanMem_scd.Length, <variable>.stChanMem_scd.Length
	add	r1, r1, r2	@ tmp230, temp.1225, <variable>.stChanMem_scd.Length
	cmp	r0, r1	@ PhyAddr, tmp230
	blt	.L118	@,
.L89:
	ldr	r2, [r3, #40]	@ temp.1230, s_pstVfmwChan
	cmp	r2, #0	@ temp.1230,
	beq	.L92	@,
	ldr	r1, [r2, #184]	@ temp.1231, <variable>.stChanMem_vdh.PhyAddr
	cmp	r0, r1	@ PhyAddr, temp.1231
	bge	.L93	@,
.L94:
	ldr	r1, [r2, #196]	@ temp.1232, <variable>.stChanMem_scd.PhyAddr
	cmp	r0, r1	@ PhyAddr, temp.1232
	blt	.L92	@,
	ldr	r2, [r2, #204]	@ <variable>.stChanMem_scd.Length, <variable>.stChanMem_scd.Length
	add	r1, r1, r2	@ tmp235, temp.1232, <variable>.stChanMem_scd.Length
	cmp	r0, r1	@ PhyAddr, tmp235
	blt	.L117	@,
.L92:
	ldr	r2, [r3, #44]	@ temp.1237, s_pstVfmwChan
	cmp	r2, #0	@ temp.1237,
	beq	.L95	@,
	ldr	r1, [r2, #184]	@ temp.1238, <variable>.stChanMem_vdh.PhyAddr
	cmp	r0, r1	@ PhyAddr, temp.1238
	bge	.L96	@,
.L97:
	ldr	r1, [r2, #196]	@ temp.1239, <variable>.stChanMem_scd.PhyAddr
	cmp	r0, r1	@ PhyAddr, temp.1239
	blt	.L95	@,
	ldr	r2, [r2, #204]	@ <variable>.stChanMem_scd.Length, <variable>.stChanMem_scd.Length
	add	r1, r1, r2	@ tmp240, temp.1239, <variable>.stChanMem_scd.Length
	cmp	r0, r1	@ PhyAddr, tmp240
	blt	.L116	@,
.L95:
	ldr	r2, [r3, #48]	@ temp.1244, s_pstVfmwChan
	cmp	r2, #0	@ temp.1244,
	beq	.L98	@,
	ldr	r1, [r2, #184]	@ temp.1245, <variable>.stChanMem_vdh.PhyAddr
	cmp	r0, r1	@ PhyAddr, temp.1245
	bge	.L99	@,
.L100:
	ldr	r1, [r2, #196]	@ temp.1246, <variable>.stChanMem_scd.PhyAddr
	cmp	r0, r1	@ PhyAddr, temp.1246
	blt	.L98	@,
	ldr	r2, [r2, #204]	@ <variable>.stChanMem_scd.Length, <variable>.stChanMem_scd.Length
	add	r1, r1, r2	@ tmp245, temp.1246, <variable>.stChanMem_scd.Length
	cmp	r0, r1	@ PhyAddr, tmp245
	blt	.L115	@,
.L98:
	ldr	r2, [r3, #52]	@ temp.1251, s_pstVfmwChan
	cmp	r2, #0	@ temp.1251,
	beq	.L101	@,
	ldr	r1, [r2, #184]	@ temp.1252, <variable>.stChanMem_vdh.PhyAddr
	cmp	r0, r1	@ PhyAddr, temp.1252
	bge	.L102	@,
.L103:
	ldr	r1, [r2, #196]	@ temp.1253, <variable>.stChanMem_scd.PhyAddr
	cmp	r0, r1	@ PhyAddr, temp.1253
	blt	.L101	@,
	ldr	r2, [r2, #204]	@ <variable>.stChanMem_scd.Length, <variable>.stChanMem_scd.Length
	add	r1, r1, r2	@ tmp250, temp.1253, <variable>.stChanMem_scd.Length
	cmp	r0, r1	@ PhyAddr, tmp250
	blt	.L114	@,
.L101:
	ldr	r2, [r3, #56]	@ temp.1258, s_pstVfmwChan
	cmp	r2, #0	@ temp.1258,
	beq	.L104	@,
	ldr	r1, [r2, #184]	@ temp.1259, <variable>.stChanMem_vdh.PhyAddr
	cmp	r0, r1	@ PhyAddr, temp.1259
	bge	.L105	@,
.L106:
	ldr	r1, [r2, #196]	@ temp.1260, <variable>.stChanMem_scd.PhyAddr
	cmp	r0, r1	@ PhyAddr, temp.1260
	blt	.L104	@,
	ldr	r2, [r2, #204]	@ <variable>.stChanMem_scd.Length, <variable>.stChanMem_scd.Length
	add	r1, r1, r2	@ tmp255, temp.1260, <variable>.stChanMem_scd.Length
	cmp	r0, r1	@ PhyAddr, tmp255
	blt	.L113	@,
.L104:
	ldr	r3, [r3, #60]	@ D.39971, s_pstVfmwChan
	cmp	r3, #0	@ D.39971,
	beq	.L107	@,
	ldr	r2, [r3, #184]	@ D.39974, <variable>.stChanMem_vdh.PhyAddr
	cmp	r2, r0	@ D.39974, PhyAddr
	bgt	.L108	@,
	ldr	r1, [r3, #192]	@ <variable>.stChanMem_vdh.Length, <variable>.stChanMem_vdh.Length
	add	r2, r2, r1	@ tmp260, D.39974, <variable>.stChanMem_vdh.Length
	cmp	r0, r2	@ PhyAddr, tmp260
	blt	.L111	@,
.L108:
	ldr	r2, [r3, #196]	@ D.39982, <variable>.stChanMem_scd.PhyAddr
	cmp	r0, r2	@ PhyAddr, D.39982
	blt	.L107	@,
	ldr	r3, [r3, #204]	@ <variable>.stChanMem_scd.Length, <variable>.stChanMem_scd.Length
	add	ip, r2, r3	@ tmp262, D.39982, <variable>.stChanMem_scd.Length
	cmp	r0, ip	@ PhyAddr, tmp262
	blt	.L111	@,
.L107:
	mvn	r0, #0	@ i,
	ldmfd	sp, {fp, sp, pc}	@
.L62:
	ldr	ip, [r2, #192]	@ <variable>.stChanMem_vdh.Length, <variable>.stChanMem_vdh.Length
	add	r1, r1, ip	@ tmp187, temp.1162, <variable>.stChanMem_vdh.Length
	cmp	r0, r1	@ PhyAddr, tmp187
	bge	.L64	@,
.L110:
	mov	r0, #0	@ i,
	ldmfd	sp, {fp, sp, pc}	@
.L66:
	ldr	ip, [r2, #192]	@ <variable>.stChanMem_vdh.Length, <variable>.stChanMem_vdh.Length
	add	r1, r1, ip	@ tmp192, temp.1168, <variable>.stChanMem_vdh.Length
	cmp	r0, r1	@ PhyAddr, tmp192
	bge	.L67	@,
.L112:
	mov	r0, #1	@ i,
	ldmfd	sp, {fp, sp, pc}	@
.L69:
	ldr	ip, [r2, #192]	@ <variable>.stChanMem_vdh.Length, <variable>.stChanMem_vdh.Length
	add	r1, r1, ip	@ tmp197, temp.1175, <variable>.stChanMem_vdh.Length
	cmp	r0, r1	@ PhyAddr, tmp197
	bge	.L70	@,
.L125:
	mov	r0, #2	@ i,
	ldmfd	sp, {fp, sp, pc}	@
.L72:
	ldr	ip, [r2, #192]	@ <variable>.stChanMem_vdh.Length, <variable>.stChanMem_vdh.Length
	add	r1, r1, ip	@ tmp202, temp.1182, <variable>.stChanMem_vdh.Length
	cmp	r0, r1	@ PhyAddr, tmp202
	bge	.L73	@,
.L124:
	mov	r0, #3	@ i,
	ldmfd	sp, {fp, sp, pc}	@
.L75:
	ldr	ip, [r2, #192]	@ <variable>.stChanMem_vdh.Length, <variable>.stChanMem_vdh.Length
	add	r1, r1, ip	@ tmp207, temp.1189, <variable>.stChanMem_vdh.Length
	cmp	r0, r1	@ PhyAddr, tmp207
	bge	.L76	@,
.L123:
	mov	r0, #4	@ i,
	ldmfd	sp, {fp, sp, pc}	@
.L78:
	ldr	ip, [r2, #192]	@ <variable>.stChanMem_vdh.Length, <variable>.stChanMem_vdh.Length
	add	r1, r1, ip	@ tmp212, temp.1196, <variable>.stChanMem_vdh.Length
	cmp	r0, r1	@ PhyAddr, tmp212
	bge	.L79	@,
.L122:
	mov	r0, #5	@ i,
	ldmfd	sp, {fp, sp, pc}	@
.L81:
	ldr	ip, [r2, #192]	@ <variable>.stChanMem_vdh.Length, <variable>.stChanMem_vdh.Length
	add	r1, r1, ip	@ tmp217, temp.1203, <variable>.stChanMem_vdh.Length
	cmp	r0, r1	@ PhyAddr, tmp217
	bge	.L82	@,
.L121:
	mov	r0, #6	@ i,
	ldmfd	sp, {fp, sp, pc}	@
.L84:
	ldr	ip, [r2, #192]	@ <variable>.stChanMem_vdh.Length, <variable>.stChanMem_vdh.Length
	add	r1, r1, ip	@ tmp222, temp.1210, <variable>.stChanMem_vdh.Length
	cmp	r0, r1	@ PhyAddr, tmp222
	bge	.L85	@,
.L120:
	mov	r0, #7	@ i,
	ldmfd	sp, {fp, sp, pc}	@
.L87:
	ldr	ip, [r2, #192]	@ <variable>.stChanMem_vdh.Length, <variable>.stChanMem_vdh.Length
	add	r1, r1, ip	@ tmp227, temp.1217, <variable>.stChanMem_vdh.Length
	cmp	r0, r1	@ PhyAddr, tmp227
	bge	.L88	@,
.L119:
	mov	r0, #8	@ i,
	ldmfd	sp, {fp, sp, pc}	@
.L90:
	ldr	ip, [r2, #192]	@ <variable>.stChanMem_vdh.Length, <variable>.stChanMem_vdh.Length
	add	r1, r1, ip	@ tmp232, temp.1224, <variable>.stChanMem_vdh.Length
	cmp	r0, r1	@ PhyAddr, tmp232
	bge	.L91	@,
.L118:
	mov	r0, #9	@ i,
	ldmfd	sp, {fp, sp, pc}	@
.L93:
	ldr	ip, [r2, #192]	@ <variable>.stChanMem_vdh.Length, <variable>.stChanMem_vdh.Length
	add	r1, r1, ip	@ tmp237, temp.1231, <variable>.stChanMem_vdh.Length
	cmp	r0, r1	@ PhyAddr, tmp237
	bge	.L94	@,
.L117:
	mov	r0, #10	@ i,
	ldmfd	sp, {fp, sp, pc}	@
.L96:
	ldr	ip, [r2, #192]	@ <variable>.stChanMem_vdh.Length, <variable>.stChanMem_vdh.Length
	add	r1, r1, ip	@ tmp242, temp.1238, <variable>.stChanMem_vdh.Length
	cmp	r0, r1	@ PhyAddr, tmp242
	bge	.L97	@,
.L116:
	mov	r0, #11	@ i,
	ldmfd	sp, {fp, sp, pc}	@
.L99:
	ldr	ip, [r2, #192]	@ <variable>.stChanMem_vdh.Length, <variable>.stChanMem_vdh.Length
	add	r1, r1, ip	@ tmp247, temp.1245, <variable>.stChanMem_vdh.Length
	cmp	r0, r1	@ PhyAddr, tmp247
	bge	.L100	@,
.L115:
	mov	r0, #12	@ i,
	ldmfd	sp, {fp, sp, pc}	@
.L102:
	ldr	ip, [r2, #192]	@ <variable>.stChanMem_vdh.Length, <variable>.stChanMem_vdh.Length
	add	r1, r1, ip	@ tmp252, temp.1252, <variable>.stChanMem_vdh.Length
	cmp	r0, r1	@ PhyAddr, tmp252
	bge	.L103	@,
.L114:
	mov	r0, #13	@ i,
	ldmfd	sp, {fp, sp, pc}	@
.L105:
	ldr	ip, [r2, #192]	@ <variable>.stChanMem_vdh.Length, <variable>.stChanMem_vdh.Length
	add	r1, r1, ip	@ tmp257, temp.1259, <variable>.stChanMem_vdh.Length
	cmp	r0, r1	@ PhyAddr, tmp257
	bge	.L106	@,
.L113:
	mov	r0, #14	@ i,
	ldmfd	sp, {fp, sp, pc}	@
.L111:
	mov	r0, #15	@ i,
	ldmfd	sp, {fp, sp, pc}	@
	.fnend
	.size	VCTRL_GetChanIDByMemAddr, .-VCTRL_GetChanIDByMemAddr
	.align	2
	.global	VCTRL_GetChanVoQue
	.type	VCTRL_GetChanVoQue, %function
VCTRL_GetChanVoQue:
	.fnstart
.LFB1593:
	@ args = 0, pretend = 0, frame = 0
	@ frame_needed = 1, uses_anonymous_args = 0
	.movsp ip
	mov	ip, sp	@,
	stmfd	sp!, {fp, ip, lr, pc}	@,
	.pad #4
	.save {fp, ip, lr}
	.setfp fp, ip, #-4
	sub	fp, ip, #4	@,,
	push	{lr}
	bl	__gnu_mcount_nc
	movw	r3, #:lower16:.LANCHOR0	@ tmp157,
	movt	r3, #:upper16:.LANCHOR0	@ tmp157,
	ldr	r2, [r3, r0, asl #2]	@ D.40179, s_pstVfmwChan
	cmp	r2, #0	@ D.40179,
	beq	.L127	@,
	ldr	r1, [r2, #944]	@ <variable>.eVidStd, <variable>.eVidStd
	cmp	r1, #18	@ <variable>.eVidStd,
	ldrls	pc, [pc, r1, asl #2]	@ <variable>.eVidStd
	b	.L127	@
.L141:
	.word	.L140
	.word	.L129
	.word	.L130
	.word	.L131
	.word	.L132
	.word	.L133
	.word	.L134
	.word	.L127
	.word	.L135
	.word	.L136
	.word	.L137
	.word	.L137
	.word	.L137
	.word	.L138
	.word	.L132
	.word	.L140
	.word	.L127
	.word	.L127
	.word	.L140
.L140:
	add	ip, r2, #219136	@ pstVoQue, D.40179,
	add	r0, ip, #880	@ pstVoQue, pstVoQue,
	ldmfd	sp, {fp, sp, pc}	@
.L127:
	mov	r0, #0	@ pstVoQue,
	ldmfd	sp, {fp, sp, pc}	@
.L137:
	ldr	r1, [r3, #64]	@ g_VdmCharacter, g_VdmCharacter
	tst	r1, #1	@ g_VdmCharacter,
	addne	r0, r2, #232448	@ pstVoQue, D.40179,
	addne	r0, r0, #208	@ pstVoQue, pstVoQue,
	ldmnefd	sp, {fp, sp, pc}	@
.L132:
	add	r0, r2, #242688	@ pstVoQue, D.40179,
	add	r0, r0, #872	@ pstVoQue, pstVoQue,
	ldmfd	sp, {fp, sp, pc}	@
.L133:
	add	r3, r2, #249856	@ pstVoQue, D.40179,
	add	r0, r3, #888	@ pstVoQue, pstVoQue,
	ldmfd	sp, {fp, sp, pc}	@
.L134:
	add	ip, r2, #235520	@ pstVoQue, D.40179,
	add	r0, ip, #560	@ pstVoQue, pstVoQue,
	ldmfd	sp, {fp, sp, pc}	@
.L135:
	add	r1, r2, #262144	@ pstVoQue, D.40179,
	add	r0, r1, #928	@ pstVoQue, pstVoQue,
	ldmfd	sp, {fp, sp, pc}	@
.L138:
	add	r3, r2, #227328	@ pstVoQue, D.40179,
	add	r0, r3, #848	@ pstVoQue, pstVoQue,
	ldmfd	sp, {fp, sp, pc}	@
.L131:
	movw	r0, #:lower16:297448	@ pstVoQue,
	movt	r0, #:upper16:297448	@ pstVoQue,
	add	r0, r2, r0	@ pstVoQue, D.40179, pstVoQue
	ldmfd	sp, {fp, sp, pc}	@
.L136:
	add	r0, r2, #262144	@ pstVoQue, D.40179,
	add	r0, r0, #904	@ pstVoQue, pstVoQue,
	ldmfd	sp, {fp, sp, pc}	@
.L129:
	movw	ip, #:lower16:333720	@ pstVoQue,
	movt	ip, #:upper16:333720	@ pstVoQue,
	add	r0, r2, ip	@ pstVoQue, D.40179, pstVoQue
	ldmfd	sp, {fp, sp, pc}	@
.L130:
	add	r3, r2, #241664	@ pstVoQue, D.40179,
	add	r0, r3, #952	@ pstVoQue, pstVoQue,
	ldmfd	sp, {fp, sp, pc}	@
	.fnend
	.size	VCTRL_GetChanVoQue, .-VCTRL_GetChanVoQue
	.align	2
	.global	VCTRL_SvdecLastFrame
	.type	VCTRL_SvdecLastFrame, %function
VCTRL_SvdecLastFrame:
	.fnstart
.LFB1611:
	@ args = 0, pretend = 0, frame = 8
	@ frame_needed = 1, uses_anonymous_args = 0
	.movsp ip
	mov	ip, sp	@,
	stmfd	sp!, {fp, ip, lr, pc}	@,
	.pad #4
	.save {fp, ip, lr}
	.setfp fp, ip, #-4
	sub	fp, ip, #4	@,,
	.pad #8
	sub	sp, sp, #8	@,,
	push	{lr}
	bl	__gnu_mcount_nc
	movw	r3, #:lower16:.LANCHOR0	@ tmp136,
	movt	r3, #:upper16:.LANCHOR0	@ tmp136,
	ldr	r3, [r3, #68]	@ g_event_report.792, g_event_report
	cmp	r3, #0	@ g_event_report.792,
	beq	.L147	@,
	sub	r2, fp, #12	@ tmp138,,
	add	r1, r1, #2	@ tmp137, LastFrameID,
	str	r1, [r2, #-4]!	@ tmp137, para
	mov	r1, #115	@,
	blx	r3	@ g_event_report.792
.L147:
	sub	sp, fp, #12
	ldmfd	sp, {fp, sp, pc}
	.fnend
	.size	VCTRL_SvdecLastFrame, .-VCTRL_SvdecLastFrame
	.align	2
	.global	str2val
	.type	str2val, %function
str2val:
	.fnstart
.LFB1623:
	@ args = 0, pretend = 0, frame = 0
	@ frame_needed = 1, uses_anonymous_args = 0
	.movsp ip
	mov	ip, sp	@,
	stmfd	sp!, {r4, r5, fp, ip, lr, pc}	@,
	.pad #4
	.save {r4, r5, fp, ip, lr}
	.setfp fp, ip, #-4
	sub	fp, ip, #4	@,,
	push	{lr}
	bl	__gnu_mcount_nc
	ldrb	r3, [r0, #0]	@ zero_extendqisi2	@ tmp173,* str
	cmp	r3, #48	@ tmp173,
	beq	.L191	@,
.L149:
	mov	r4, #10	@ weight,
	mov	r5, #0	@ i,
.L150:
	add	r0, r0, r5	@ ivtmp.1338, str, i
	mov	ip, #0	@ dat,
	ldrb	r3, [r0, #0]	@ zero_extendqisi2	@ D.41318,* ivtmp.1338
	cmp	r3, #31	@ D.41318,
	bls	.L151	@,
	cmp	r4, #16	@ weight,
	beq	.L180	@,
.L161:
	sub	ip, r3, #48	@ tmp194, D.41318,
	uxtb	r3, ip	@ tmp195, tmp194
	cmp	r3, #9	@ tmp195,
	bhi	.L181	@,
.L182:
	mov	r2, #1	@ tmp185,
	cmp	r2, #0	@ tmp185,
	add	r0, r0, r2	@ ivtmp.1338, ivtmp.1338,
	add	r5, r5, r2	@ i, i,
	beq	.L158	@,
	ldrb	r3, [r0, #0]	@ zero_extendqisi2	@ D.41318,* ivtmp.1338
	cmp	r3, #31	@ D.41318,
	bls	.L151	@,
	cmp	r4, #16	@ weight,
	beq	.L184	@,
.L166:
	sub	r3, r3, #48	@ tmp199, D.41318,
	uxtb	r2, r3	@ tmp200, tmp199
	cmp	r2, #9	@ tmp200,
	bhi	.L181	@,
.L185:
	add	r5, r5, #1	@ i, i,
	add	r0, r0, #1	@ ivtmp.1338, ivtmp.1338,
	cmp	r5, #9	@ i,
	mla	ip, r4, ip, r3	@ dat, weight, dat, d
	bls	.L158	@,
.L151:
	mov	r0, #0	@ D.41338,
	str	ip, [r1, #0]	@ dat,* data
	ldmfd	sp, {r4, r5, fp, sp, pc}	@
.L153:
	cmp	r3, #64	@ D.41318,
	bhi	.L154	@,
.L152:
	sub	r3, r3, #48	@ tmp181, D.41318,
	uxtb	r2, r3	@ tmp182, tmp181
	cmp	r2, #9	@ tmp182,
	bhi	.L181	@,
.L155:
	ldrb	r2, [r0, #1]	@ zero_extendqisi2	@ D.41318,
	add	r5, r5, #1	@ tmp186, i,
	mla	ip, r4, ip, r3	@ dat, weight, dat, d
	cmp	r2, #31	@ D.41318,
	add	r0, r0, #1	@ tmp187, ivtmp.1338,
	bls	.L151	@,
	cmp	r4, #16	@ weight,
	beq	.L187	@,
.L172:
	sub	r2, r2, #48	@ tmp203, D.41318,
	uxtb	r3, r2	@ tmp204, tmp203
	cmp	r3, #9	@ tmp204,
	bhi	.L181	@,
.L188:
	add	r5, r5, #1	@ i, tmp186,
	add	r0, r0, #1	@ ivtmp.1338, tmp187,
	cmp	r5, #9	@ i,
	mla	ip, r4, ip, r2	@ dat, weight, dat, d
	bhi	.L151	@,
.L158:
	ldrb	r3, [r0, #0]	@ zero_extendqisi2	@ D.41318,* ivtmp.1338
	cmp	r3, #31	@ D.41318,
	bls	.L151	@,
	cmp	r4, #16	@ weight,
	bne	.L152	@,
	cmp	r3, #96	@ D.41318,
	bls	.L153	@,
	cmp	r3, #102	@ D.41318,
	subls	r3, r3, #87	@ d, D.41318,
	bls	.L155	@,
.L154:
	cmp	r3, #70	@ D.41318,
	subls	r3, r3, #55	@ d, D.41318,
	bls	.L155	@,
	b	.L152	@
.L187:
	cmp	r2, #96	@ D.41318,
	bls	.L174	@,
	cmp	r2, #102	@ D.41318,
	bhi	.L175	@,
	sub	r2, r2, #87	@ d, D.41318,
	b	.L188	@
.L174:
	cmp	r2, #64	@ D.41318,
	bls	.L172	@,
.L175:
	cmp	r2, #70	@ D.41318,
	subls	r2, r2, #55	@ d, D.41318,
	bls	.L188	@,
	b	.L172	@
.L191:
	ldrb	r2, [r0, #1]	@ zero_extendqisi2	@ D.41312,
	cmp	r2, #120	@ D.41312,
	cmpne	r2, #88	@, D.41312,
	moveq	r4, #16	@ weight,
	moveq	r5, #2	@ i,
	beq	.L150	@,
	b	.L149	@
.L180:
	cmp	r3, #96	@ D.41318,
	bls	.L163	@,
	cmp	r3, #102	@ D.41318,
	bhi	.L164	@,
	sub	ip, r3, #87	@ d, D.41318,
	b	.L182	@
.L163:
	cmp	r3, #64	@ D.41318,
	bls	.L161	@,
.L164:
	cmp	r3, #70	@ D.41318,
	subls	ip, r3, #55	@ d, D.41318,
	bls	.L182	@,
	b	.L161	@
.L184:
	cmp	r3, #96	@ D.41318,
	bls	.L168	@,
	cmp	r3, #102	@ D.41318,
	bhi	.L169	@,
	sub	r3, r3, #87	@ d, D.41318,
	b	.L185	@
.L168:
	cmp	r3, #64	@ D.41318,
	bls	.L166	@,
.L169:
	cmp	r3, #70	@ D.41318,
	subls	r3, r3, #55	@ d, D.41318,
	bhi	.L166	@,
	add	r5, r5, #1	@ i, i,
	add	r0, r0, #1	@ ivtmp.1338, ivtmp.1338,
	cmp	r5, #9	@ i,
	mla	ip, r4, ip, r3	@ dat, weight, dat, d
	bls	.L158	@,
	b	.L151	@
.L181:
	mvn	r0, #0	@ D.41338,
	ldmfd	sp, {r4, r5, fp, sp, pc}	@
	.fnend
	.size	str2val, .-str2val
	.align	2
	.type	vfmw_proc_write, %function
vfmw_proc_write:
	.fnstart
.LFB1626:
	@ args = 0, pretend = 0, frame = 0
	@ frame_needed = 1, uses_anonymous_args = 0
	.movsp ip
	mov	ip, sp	@,
	stmfd	sp!, {fp, ip, lr, pc}	@,
	.pad #4
	.save {fp, ip, lr}
	.setfp fp, ip, #-4
	sub	fp, ip, #4	@,,
	push	{lr}
	bl	__gnu_mcount_nc
	ldr	ip, [r0, #128]	@ <variable>.private_data, <variable>.private_data
	ldr	ip, [ip, #72]	@ <variable>.private, <variable>.private
	ldr	ip, [ip, #20]	@ D.41515, <variable>.write
	cmp	ip, #0	@ D.41515,
	mvneq	r0, #37	@ D.41518,
	ldmeqfd	sp, {fp, sp, pc}	@
	blx	ip	@ D.41515
	ldmfd	sp, {fp, sp, pc}	@
	.fnend
	.size	vfmw_proc_write, .-vfmw_proc_write
	.align	2
	.global	Get_YuvFormat
	.type	Get_YuvFormat, %function
Get_YuvFormat:
	.fnstart
.LFB1631:
	@ args = 0, pretend = 0, frame = 0
	@ frame_needed = 1, uses_anonymous_args = 0
	.movsp ip
	mov	ip, sp	@,
	stmfd	sp!, {fp, ip, lr, pc}	@,
	.pad #4
	.save {fp, ip, lr}
	.setfp fp, ip, #-4
	sub	fp, ip, #4	@,,
	push	{lr}
	bl	__gnu_mcount_nc
	cmp	r1, #6	@ enFmt,
	ldrls	pc, [pc, r1, asl #2]	@ enFmt
	b	.L197	@
.L205:
	.word	.L198
	.word	.L199
	.word	.L200
	.word	.L201
	.word	.L202
	.word	.L203
	.word	.L204
.L204:
	cmp	r0, #1	@ SemiPlanarFlag,
	movne	r0, #7	@, eYuvFormat,
	ldmfd	sp, {fp, sp, pc}	@
.L197:
	mov	r3, r1	@, enFmt
	movw	r2, #9259	@,
	mov	r0, #1	@,
	movw	r1, #:lower16:.LC0	@,
	movt	r1, #:upper16:.LC0	@,
	bl	dprint_vfmw	@
	mov	r0, #13	@ eYuvFormat,
	ldmfd	sp, {fp, sp, pc}	@
.L198:
	cmp	r0, #1	@ SemiPlanarFlag,
	movne	r0, #6	@ eYuvFormat,
	moveq	r0, #0	@ eYuvFormat,
	ldmfd	sp, {fp, sp, pc}	@
.L199:
	cmp	r0, #1	@ SemiPlanarFlag,
	moveq	r0, #2	@ eYuvFormat,
	movne	r0, #8	@ eYuvFormat,
	ldmfd	sp, {fp, sp, pc}	@
.L200:
	cmp	r0, #1	@ SemiPlanarFlag,
	moveq	r0, #4	@ eYuvFormat,
	movne	r0, #10	@ eYuvFormat,
	ldmfd	sp, {fp, sp, pc}	@
.L201:
	cmp	r0, #1	@ SemiPlanarFlag,
	moveq	r0, #3	@ eYuvFormat,
	movne	r0, #9	@ eYuvFormat,
	ldmfd	sp, {fp, sp, pc}	@
.L202:
	cmp	r0, #1	@ SemiPlanarFlag,
	moveq	r0, #5	@ eYuvFormat,
	movne	r0, #11	@ eYuvFormat,
	ldmfd	sp, {fp, sp, pc}	@
.L203:
	cmp	r0, #1	@ SemiPlanarFlag,
	moveq	r0, #13	@ eYuvFormat,
	movne	r0, #12	@ eYuvFormat,
	ldmfd	sp, {fp, sp, pc}	@
	.fnend
	.size	Get_YuvFormat, .-Get_YuvFormat
	.align	2
	.global	VCTRL_SetLastFrameIdPlus2
	.type	VCTRL_SetLastFrameIdPlus2, %function
VCTRL_SetLastFrameIdPlus2:
	.fnstart
.LFB1609:
	@ args = 0, pretend = 0, frame = 0
	@ frame_needed = 1, uses_anonymous_args = 0
	.movsp ip
	mov	ip, sp	@,
	stmfd	sp!, {fp, ip, lr, pc}	@,
	.pad #4
	.save {fp, ip, lr}
	.setfp fp, ip, #-4
	sub	fp, ip, #4	@,,
	push	{lr}
	bl	__gnu_mcount_nc
	cmp	r0, #15	@ ChanID,
	bhi	.L219	@,
	movw	r2, #:lower16:.LANCHOR0	@ tmp138,
	movt	r2, #:upper16:.LANCHOR0	@ tmp138,
	ldr	r3, [r2, r0, asl #2]	@ D.40801, s_pstVfmwChan
	cmp	r3, #0	@ D.40801,
	strne	r1, [r3, #740]	@ Value, <variable>.s32LastFrameIdPlus2
	ldmfd	sp, {fp, sp, pc}	@
.L219:
	movw	r1, #:lower16:.LC1	@,
	movw	r2, #7768	@,
	movt	r1, #:upper16:.LC1	@,
	movw	r3, #:lower16:.LC2	@,
	mov	r0, #0	@,
	movt	r3, #:upper16:.LC2	@,
	bl	dprint_vfmw	@
	ldmfd	sp, {fp, sp, pc}	@
	.fnend
	.size	VCTRL_SetLastFrameIdPlus2, .-VCTRL_SetLastFrameIdPlus2
	.align	2
	.global	VCTRL_GetLastFrameIdPlus2
	.type	VCTRL_GetLastFrameIdPlus2, %function
VCTRL_GetLastFrameIdPlus2:
	.fnstart
.LFB1608:
	@ args = 0, pretend = 0, frame = 0
	@ frame_needed = 1, uses_anonymous_args = 0
	.movsp ip
	mov	ip, sp	@,
	stmfd	sp!, {fp, ip, lr, pc}	@,
	.pad #4
	.save {fp, ip, lr}
	.setfp fp, ip, #-4
	sub	fp, ip, #4	@,,
	push	{lr}
	bl	__gnu_mcount_nc
	cmp	r0, #15	@ ChanID,
	bhi	.L225	@,
	movw	r1, #:lower16:.LANCHOR0	@ tmp139,
	movt	r1, #:upper16:.LANCHOR0	@ tmp139,
	ldr	r3, [r1, r0, asl #2]	@ D.40789, s_pstVfmwChan
	cmp	r3, #0	@ D.40789,
	mvneq	r0, #0	@ D.40787,
	ldrne	r0, [r3, #740]	@ D.40787, <variable>.s32LastFrameIdPlus2
	ldmfd	sp, {fp, sp, pc}	@
.L225:
	mov	r0, #0	@,
	movw	r1, #:lower16:.LC3	@,
	movw	r2, #7756	@,
	movt	r1, #:upper16:.LC3	@,
	movw	r3, #:lower16:.LC2	@,
	movt	r3, #:upper16:.LC2	@,
	bl	dprint_vfmw	@
	mvn	r0, #0	@ D.40787,
	ldmfd	sp, {fp, sp, pc}	@
	.fnend
	.size	VCTRL_GetLastFrameIdPlus2, .-VCTRL_GetLastFrameIdPlus2
	.align	2
	.global	VCTRL_SetVdecExtra
	.type	VCTRL_SetVdecExtra, %function
VCTRL_SetVdecExtra:
	.fnstart
.LFB1598:
	@ args = 0, pretend = 0, frame = 0
	@ frame_needed = 1, uses_anonymous_args = 0
	.movsp ip
	mov	ip, sp	@,
	stmfd	sp!, {r3, r4, r5, r6, fp, ip, lr, pc}	@,
	.pad #4
	.save {r3, r4, r5, r6, fp, ip, lr}
	.setfp fp, ip, #-4
	sub	fp, ip, #4	@,,
	push	{lr}
	bl	__gnu_mcount_nc
	add	r4, r0, #4992	@ tmp138, new_extra_ref,
	add	r3, r4, #8	@ tmp138, tmp138,
	movw	r2, #10000	@ tmp140,
	movw	r4, #:lower16:.LANCHOR0	@ tmp158,
	cmp	r3, r2	@ tmp138, tmp140
	movt	r4, #:upper16:.LANCHOR0	@ tmp158,
	mov	r5, r1	@ new_extra_disp, new_extra_disp
	str	r0, [r4, #72]	@ new_extra_ref, extra_ref
	bhi	.L230	@,
.L227:
	add	r2, r5, #4992	@ tmp148, new_extra_disp,
	movw	ip, #5000	@ tmp143,
	add	r1, r2, #8	@ tmp148, tmp148,
	cmp	r0, ip	@ new_extra_ref, tmp143
	movge	r0, ip	@ iftmp.677, tmp143
	movw	r6, #:lower16:-5000	@ tmp145,
	movt	r6, #:upper16:-5000	@ tmp145,
	cmp	r0, r6	@ iftmp.677, tmp145
	strge	r0, [r4, #72]	@, iftmp.677, extra_ref
	strlt	r6, [r4, #72]	@, tmp145, extra_ref
	movw	r0, #10000	@ tmp150,
	cmp	r1, r0	@ tmp148, tmp150
	movw	r6, #:lower16:.LANCHOR0	@ tmp144,
	str	r5, [r4, #76]	@ new_extra_disp, extra_disp
	movt	r6, #:upper16:.LANCHOR0	@ tmp144,
	bhi	.L231	@,
.L228:
	movw	r0, #5000	@ tmp153,
	movw	r3, #:lower16:-5000	@ tmp155,
	cmp	r5, r0	@ new_extra_disp, tmp153
	movge	r5, r0	@ iftmp.1460, tmp153
	movt	r3, #:upper16:-5000	@ tmp155,
	cmp	r5, r3	@ iftmp.1460, tmp155
	strge	r5, [r4, #76]	@, iftmp.1460, extra_disp
	strlt	r3, [r4, #76]	@, tmp155, extra_disp
	ldmfd	sp, {r3, r4, r5, r6, fp, sp, pc}	@
.L230:
	mov	r2, r0	@, new_extra_ref
	movw	r1, #:lower16:.LC4	@,
	mov	r0, #32	@,
	movt	r1, #:upper16:.LC4	@,
	bl	dprint_vfmw	@
	ldr	r0, [r4, #72]	@ new_extra_ref, extra_ref
	b	.L227	@
.L231:
	mov	r2, r5	@, new_extra_disp
	mov	r0, #32	@,
	movw	r1, #:lower16:.LC5	@,
	movt	r1, #:upper16:.LC5	@,
	bl	dprint_vfmw	@
	ldr	r5, [r6, #76]	@ new_extra_disp, extra_disp
	b	.L228	@
	.fnend
	.size	VCTRL_SetVdecExtra, .-VCTRL_SetVdecExtra
	.align	2
	.global	VCTRL_GetChanCapLevel
	.type	VCTRL_GetChanCapLevel, %function
VCTRL_GetChanCapLevel:
	.fnstart
.LFB1597:
	@ args = 0, pretend = 0, frame = 0
	@ frame_needed = 1, uses_anonymous_args = 0
	.movsp ip
	mov	ip, sp	@,
	stmfd	sp!, {fp, ip, lr, pc}	@,
	.pad #4
	.save {fp, ip, lr}
	.setfp fp, ip, #-4
	sub	fp, ip, #4	@,,
	push	{lr}
	bl	__gnu_mcount_nc
	cmp	r0, #15	@ ChanID,
	bhi	.L237	@,
	movw	r1, #:lower16:.LANCHOR0	@ tmp139,
	movt	r1, #:upper16:.LANCHOR0	@ tmp139,
	ldr	r3, [r1, r0, asl #2]	@ D.40252, s_pstVfmwChan
	cmp	r3, #0	@ D.40252,
	moveq	r0, #27	@ D.40250,
	ldrne	r0, [r3, #32]	@ D.40250, <variable>.eChanCapLevel
	ldmfd	sp, {fp, sp, pc}	@
.L237:
	mov	r0, #0	@,
	movw	r1, #:lower16:.LC3	@,
	movw	r2, #6859	@,
	movt	r1, #:upper16:.LC3	@,
	movw	r3, #:lower16:.LC2	@,
	movt	r3, #:upper16:.LC2	@,
	bl	dprint_vfmw	@
	mvn	r0, #0	@ D.40250,
	ldmfd	sp, {fp, sp, pc}	@
	.fnend
	.size	VCTRL_GetChanCapLevel, .-VCTRL_GetChanCapLevel
	.align	2
	.global	VCTRL_GetChanHeight
	.type	VCTRL_GetChanHeight, %function
VCTRL_GetChanHeight:
	.fnstart
.LFB1596:
	@ args = 0, pretend = 0, frame = 0
	@ frame_needed = 1, uses_anonymous_args = 0
	.movsp ip
	mov	ip, sp	@,
	stmfd	sp!, {fp, ip, lr, pc}	@,
	.pad #4
	.save {fp, ip, lr}
	.setfp fp, ip, #-4
	sub	fp, ip, #4	@,,
	push	{lr}
	bl	__gnu_mcount_nc
	cmp	r0, #15	@ ChanID,
	bhi	.L243	@,
	movw	r3, #:lower16:.LANCHOR0	@ tmp139,
	movt	r3, #:upper16:.LANCHOR0	@ tmp139,
	ldr	r0, [r3, r0, asl #2]	@ D.40240, s_pstVfmwChan
	cmp	r0, #0	@ D.40240,
	beq	.L244	@,
	ldr	r0, [r0, #1524]	@ D.40238, <variable>.stSynExtraData.stChanOption.s32MaxHeight
	ldmfd	sp, {fp, sp, pc}	@
.L243:
	mov	r0, #0	@,
	movw	r1, #:lower16:.LC3	@,
	movw	r2, #6851	@,
	movt	r1, #:upper16:.LC3	@,
	movw	r3, #:lower16:.LC2	@,
	movt	r3, #:upper16:.LC2	@,
	bl	dprint_vfmw	@
	mvn	r0, #0	@ D.40238,
	ldmfd	sp, {fp, sp, pc}	@
.L244:
	movw	r1, #:lower16:.LC3	@,
	movw	r2, #6852	@,
	movt	r1, #:upper16:.LC3	@,
	movw	r3, #:lower16:.LC6	@,
	movt	r3, #:upper16:.LC6	@,
	bl	dprint_vfmw	@
	mvn	r0, #0	@ D.40238,
	ldmfd	sp, {fp, sp, pc}	@
	.fnend
	.size	VCTRL_GetChanHeight, .-VCTRL_GetChanHeight
	.align	2
	.global	VCTRL_GetChanWidth
	.type	VCTRL_GetChanWidth, %function
VCTRL_GetChanWidth:
	.fnstart
.LFB1595:
	@ args = 0, pretend = 0, frame = 0
	@ frame_needed = 1, uses_anonymous_args = 0
	.movsp ip
	mov	ip, sp	@,
	stmfd	sp!, {fp, ip, lr, pc}	@,
	.pad #4
	.save {fp, ip, lr}
	.setfp fp, ip, #-4
	sub	fp, ip, #4	@,,
	push	{lr}
	bl	__gnu_mcount_nc
	cmp	r0, #15	@ ChanID,
	bhi	.L250	@,
	movw	r3, #:lower16:.LANCHOR0	@ tmp139,
	movt	r3, #:upper16:.LANCHOR0	@ tmp139,
	ldr	r0, [r3, r0, asl #2]	@ D.40228, s_pstVfmwChan
	cmp	r0, #0	@ D.40228,
	beq	.L251	@,
	ldr	r0, [r0, #1520]	@ D.40226, <variable>.stSynExtraData.stChanOption.s32MaxWidth
	ldmfd	sp, {fp, sp, pc}	@
.L250:
	mov	r0, #0	@,
	movw	r1, #:lower16:.LC3	@,
	movw	r2, #6843	@,
	movt	r1, #:upper16:.LC3	@,
	movw	r3, #:lower16:.LC2	@,
	movt	r3, #:upper16:.LC2	@,
	bl	dprint_vfmw	@
	mvn	r0, #0	@ D.40226,
	ldmfd	sp, {fp, sp, pc}	@
.L251:
	movw	r1, #:lower16:.LC3	@,
	movw	r2, #6844	@,
	movt	r1, #:upper16:.LC3	@,
	movw	r3, #:lower16:.LC6	@,
	movt	r3, #:upper16:.LC6	@,
	bl	dprint_vfmw	@
	mvn	r0, #0	@ D.40226,
	ldmfd	sp, {fp, sp, pc}	@
	.fnend
	.size	VCTRL_GetChanWidth, .-VCTRL_GetChanWidth
	.align	2
	.global	GetNextDecodeMode
	.type	GetNextDecodeMode, %function
GetNextDecodeMode:
	.fnstart
.LFB1588:
	@ args = 0, pretend = 0, frame = 0
	@ frame_needed = 1, uses_anonymous_args = 0
	.movsp ip
	mov	ip, sp	@,
	stmfd	sp!, {r4, r5, r6, r7, fp, ip, lr, pc}	@,
	.pad #4
	.save {r4, r5, r6, r7, fp, ip, lr}
	.setfp fp, ip, #-4
	sub	fp, ip, #4	@,,
	.pad #8
	sub	sp, sp, #8	@,,
	push	{lr}
	bl	__gnu_mcount_nc
	movw	r7, #:lower16:1431655766	@ tmp146,
	mov	ip, r2, asl #1	@ tmp143, Threshould,
	movt	r7, #:upper16:1431655766	@ tmp146,
	mov	r4, r2	@ Threshould, Threshould
	add	r6, r2, #7	@ tmp140, Threshould,
	smull	r2, r3, r7, ip	@, tmp145, tmp146, tmp143
	cmp	r4, #0	@ Threshould,
	mov	r5, r0	@ CurMode, CurMode
	mov	r7, r1	@ StreamAmount, StreamAmount
	movge	r6, r4	@ Threshould, Threshould
	mov	r0, #30	@,
	mov	r6, r6, asr #3	@ tmp141, Threshould,
	movw	r1, #:lower16:.LC7	@,
	movt	r1, #:upper16:.LC7	@,
	str	r4, [sp, #0]	@ Threshould,
	mov	r2, r6	@, tmp141
	sub	r3, r3, ip, asr #31	@, tmp145, tmp143,
	str	r7, [sp, #4]	@ StreamAmount,
	bl	dprint_vfmw	@
	cmp	r5, #3	@ CurMode,
	beq	.L259	@,
	cmp	r4, r7	@ Threshould, StreamAmount
	blt	.L256	@,
.L258:
	mov	r4, r5	@ NextMode, CurMode
.L255:
	mov	r2, r5	@, CurMode
	mov	r3, r4	@, NextMode
	mov	r0, #30	@,
	movw	r1, #:lower16:.LC10	@,
	movt	r1, #:upper16:.LC10	@,
	bl	dprint_vfmw	@
	mov	r0, r4	@, NextMode
	sub	sp, fp, #28
	ldmfd	sp, {r4, r5, r6, r7, fp, sp, pc}
.L256:
	movw	r1, #:lower16:.LC9	@,
	mov	r0, #30	@,
	movt	r1, #:upper16:.LC9	@,
	mov	r4, #3	@ NextMode,
	bl	dprint_vfmw	@
	b	.L255	@
.L259:
	cmp	r6, r7	@ tmp141, StreamAmount
	ble	.L258	@,
	movw	r1, #:lower16:.LC8	@,
	mov	r0, #30	@,
	movt	r1, #:upper16:.LC8	@,
	mov	r4, #0	@ NextMode,
	bl	dprint_vfmw	@
	b	.L255	@
	.fnend
	.size	GetNextDecodeMode, .-GetNextDecodeMode
	.align	2
	.global	VCTRL_GetChanMemSize
	.type	VCTRL_GetChanMemSize, %function
VCTRL_GetChanMemSize:
	.fnstart
.LFB1585:
	@ args = 0, pretend = 0, frame = 912
	@ frame_needed = 1, uses_anonymous_args = 0
	.movsp ip
	mov	ip, sp	@,
	stmfd	sp!, {r4, r5, r6, r7, r8, r9, sl, fp, ip, lr, pc}	@,
	.pad #4
	.save {r4, r5, r6, r7, r8, r9, sl, fp, ip, lr}
	.setfp fp, ip, #-4
	sub	fp, ip, #4	@,,
	.pad #948
	sub	sp, sp, #948	@,,
	push	{lr}
	bl	__gnu_mcount_nc
	mov	sl, r0, asl #3	@ tmp313, eCapLevel,
	rsb	r8, r0, sl	@ tmp169, eCapLevel, tmp313
	movw	r6, #:lower16:CapItem	@ tmp312,
	movt	r6, #:upper16:CapItem	@ tmp312,
	sub	r3, r0, #18	@ D.41788, eCapLevel,
	add	r4, r6, r8, asl #2	@, tmp171, tmp312, tmp169,
	cmp	r3, #7	@ D.41788,
	mov	r5, r0	@ eCapLevel, eCapLevel
	str	r2, [fp, #-940]	@ ScdMemSize, %sfp
	ldr	r8, [r4, #12]	@ TempMinFrame, CapItem
	movwls	r2, #:lower16:.LANCHOR1	@ tmp197,
	ldr	r0, [r4, #20]	@, CapItem
	movtls	r2, #:upper16:.LANCHOR1	@ tmp197,
	ldr	ip, [r4, #8]	@ TempPmv, CapItem
	movhi	r3, #6	@ MinDnrFspNum,
	ldr	r9, [r4, #16]	@ TempMiddleFrame, CapItem
	movw	r4, #:lower16:.LANCHOR0	@ tmp314,
	movt	r4, #:upper16:.LANCHOR0	@ tmp314,
	str	r1, [fp, #-936]	@ VdmMemSize, %sfp
	ldrls	r3, [r2, r3, asl #2]	@ MinDnrFspNum, CSWTCH.868
	sub	r2, r8, #2	@ tmp198, TempMinFrame,
	ldr	r1, [r4, #72]	@ extra_ref, extra_ref
	rsb	r3, r3, r2	@ s32MaxRefFrameNum, MinDnrFspNum, tmp198
	str	r0, [fp, #-952]	@, %sfp
	cmp	r1, #0	@ extra_ref,
	movlt	r2, #0	@ tmp202,
	strlt	r2, [r4, #72]	@ tmp202, extra_ref
	cmp	r3, #15	@ s32MaxRefFrameNum,
	movgt	r7, #0	@ extra_ref_tmp,
	bgt	.L265	@,
	ldr	r7, [r4, #72]	@ extra_ref_tmp, extra_ref
	add	r2, r3, r7	@ D.39505, s32MaxRefFrameNum, extra_ref_tmp
	cmp	r2, #16	@ D.39505,
	addgt	r7, r7, #16	@ D.39508, extra_ref_tmp,
	rsbgt	r7, r2, r7	@ extra_ref_tmp, D.39505, D.39508
.L265:
	add	r3, r7, ip	@ TempPmv.1582, extra_ref_tmp, TempPmv
	ldr	r1, [r4, #76]	@, extra_disp
	cmp	r3, #0	@ TempPmv.1582,
	str	r1, [fp, #-944]	@, %sfp
	ble	.L281	@,
	cmp	r3, #17	@ TempPmv.1582,
	movge	r3, #17	@ TempPmv.1582,
	str	r3, [fp, #-948]	@ TempPmv.1582, %sfp
.L267:
	cmp	r5, #23	@ eCapLevel,
	bhi	.L268	@,
	ldr	ip, [fp, #-944]	@, %sfp
	add	r3, r7, ip	@ D.39511, extra_ref_tmp,
	add	r2, r3, r8	@ TempMinFrame.1579, D.39511, TempMinFrame
	add	r1, r3, r9	@ TempMiddleFrame.1580, D.39511, TempMiddleFrame
	cmp	r2, #0	@ TempMinFrame.1579,
	cmpgt	r1, #0	@, TempMiddleFrame.1580,
	ble	.L269	@,
	ldr	r0, [fp, #-952]	@, %sfp
	add	lr, r3, r0	@ TempFluentFrame.1581, D.39511,
	cmp	lr, #0	@ TempFluentFrame.1581,
	strgt	lr, [fp, #-956]	@ TempFluentFrame.1581, %sfp
	strgt	r1, [fp, #-944]	@ TempMiddleFrame.1580, %sfp
	movgt	r8, r2	@ nMinFrame, TempMinFrame.1579
	ble	.L269	@,
.L271:
	movw	r7, #:lower16:g_vdm_hal_fun_ptr	@ tmp215,
	movt	r7, #:upper16:g_vdm_hal_fun_ptr	@ tmp215,
	ldr	ip, [r7, #36]	@ D.39529, g_vdm_hal_fun_ptr.pfun_VDMHAL_ArrangeMem
	cmp	ip, #0	@ D.39529,
	beq	.L274	@,
.L282:
	rsb	r5, r5, sl	@ tmp219, eCapLevel, tmp313
	ldr	sl, [fp, #-948]	@, %sfp
	str	r8, [sp, #4]	@ nMinFrame,
	add	r8, r5, #1	@ tmp227, tmp219,
	mov	r9, #0	@ tmp229,
	mov	r0, #1	@,
	str	sl, [sp, #0]	@,
	mvn	r1, #-2147483648	@,
	ldr	r3, [r6, r8, asl #2]	@ tmp228, CapItem
	mvn	sl, #0	@ tmp230,
	ldr	r2, [r6, r5, asl #2]	@ tmp222, CapItem
	movw	r4, #:lower16:CapItem	@ tmp216,
	str	r9, [sp, #8]	@ tmp229,
	sub	r9, fp, #928	@ tmp232,,
	str	sl, [sp, #12]	@ tmp230,
	movt	r4, #:upper16:CapItem	@ tmp216,
	str	r9, [sp, #16]	@ tmp232,
	add	r6, r6, r5, asl #2	@, tmp221, tmp312, tmp219,
	blx	ip	@ D.39529
	subs	r3, r0, #0	@ ret,
	bne	.L274	@,
	ldr	r2, [fp, #-924]	@ MemArrange.TotalMemUsed, MemArrange.TotalMemUsed
	ldr	lr, [fp, #-936]	@, %sfp
	add	r1, r2, #47104	@ tmp234, MemArrange.TotalMemUsed,
	add	ip, r1, #16	@ tmp234, tmp234,
	str	ip, [lr, #0]	@ tmp234,
	ldr	r1, [fp, #-940]	@, %sfp
	ldr	r0, [r6, #24]	@ tmp244, CapItem
	add	r2, r0, #32768	@ tmp245, tmp244,
	str	r2, [r1, #0]	@ tmp245,
	ldr	ip, [r7, #36]	@ temp.1584, g_vdm_hal_fun_ptr.pfun_VDMHAL_ArrangeMem
	cmp	ip, #0	@ temp.1584,
	beq	.L276	@,
	ldr	lr, [r4, r8, asl #2]	@ tmp260, CapItem
	mov	r0, #1	@,
	ldr	r2, [fp, #-944]	@, %sfp
	mvn	r1, #-2147483648	@,
	str	r3, [sp, #8]	@ ret,
	ldr	r3, [fp, #-948]	@, %sfp
	str	r2, [sp, #4]	@,
	ldr	r2, [r4, r5, asl #2]	@, CapItem
	str	r3, [sp, #0]	@,
	mov	r3, lr	@, tmp260
	str	sl, [sp, #12]	@ tmp230,
	str	r9, [sp, #16]	@ tmp232,
	blx	ip	@ temp.1584
	subs	lr, r0, #0	@ ret.1587,
	bne	.L276	@,
	ldr	ip, [fp, #-924]	@ MemArrange.TotalMemUsed, MemArrange.TotalMemUsed
	ldr	r2, [fp, #-936]	@, %sfp
	add	r0, ip, #47104	@ tmp266, MemArrange.TotalMemUsed,
	add	r3, r0, #16	@ tmp266, tmp266,
	str	r3, [r2, #4]	@ tmp266,
	ldr	r0, [fp, #-940]	@, %sfp
	ldr	r1, [r6, #24]	@ tmp276, CapItem
	add	ip, r1, #32768	@ tmp277, tmp276,
	str	ip, [r0, #4]	@ tmp277,
	ldr	ip, [r7, #36]	@ temp.1591, g_vdm_hal_fun_ptr.pfun_VDMHAL_ArrangeMem
	cmp	ip, #0	@ temp.1591,
	beq	.L278	@,
	ldr	r3, [r4, r8, asl #2]	@ tmp292, CapItem
	mov	r0, #1	@,
	ldr	r2, [r4, r5, asl #2]	@ tmp286, CapItem
	mvn	r1, #-2147483648	@,
	ldr	r4, [fp, #-948]	@, %sfp
	str	lr, [sp, #8]	@ ret.1587,
	str	sl, [sp, #12]	@ tmp230,
	str	r4, [sp, #0]	@,
	ldr	r4, [fp, #-956]	@, %sfp
	str	r9, [sp, #16]	@ tmp232,
	str	r4, [sp, #4]	@,
	blx	ip	@ temp.1591
	cmp	r0, #0	@ ret.1594
	bne	.L278	@,
	ldr	r1, [fp, #-924]	@ MemArrange.TotalMemUsed, MemArrange.TotalMemUsed
	ldr	ip, [fp, #-936]	@, %sfp
	add	lr, r1, #47104	@ tmp298, MemArrange.TotalMemUsed,
	add	r2, lr, #16	@ tmp298, tmp298,
	str	r2, [ip, #8]	@ tmp298,
	ldr	lr, [fp, #-940]	@, %sfp
	ldr	r3, [r6, #24]	@ tmp308, CapItem
	add	r1, r3, #32768	@ tmp309, tmp308,
	str	r1, [lr, #8]	@ tmp309,
	b	.L273	@
.L268:
	cmp	r5, #26	@ eCapLevel,
	bls	.L272	@,
.L280:
	mvn	r0, #0	@ D.39547,
.L273:
	sub	sp, fp, #40
	ldmfd	sp, {r4, r5, r6, r7, r8, r9, sl, fp, sp, pc}
.L269:
	ldr	ip, [r4, #76]	@ extra_disp.1583, extra_disp
	mov	r3, r7	@, extra_ref_tmp
	ldr	lr, [fp, #-952]	@, %sfp
	mov	r0, #32	@,
	str	r7, [sp, #8]	@ extra_ref_tmp,
	movw	r1, #:lower16:.LC12	@,
	str	r7, [sp, #20]	@ extra_ref_tmp,
	movw	r7, #:lower16:g_vdm_hal_fun_ptr	@ tmp215,
	movt	r7, #:upper16:g_vdm_hal_fun_ptr	@ tmp215,
	movt	r1, #:upper16:.LC12	@,
	mov	r2, r8	@, TempMinFrame
	str	ip, [sp, #24]	@ extra_disp.1583,
	str	ip, [sp, #0]	@ extra_disp.1583,
	mov	r4, lr	@,
	str	ip, [sp, #12]	@ extra_disp.1583,
	str	lr, [fp, #-956]	@, %sfp
	str	r9, [fp, #-944]	@ TempMiddleFrame, %sfp
	str	r9, [sp, #4]	@ TempMiddleFrame,
	str	lr, [sp, #16]	@ tmp4,
	bl	dprint_vfmw	@
	ldr	ip, [r7, #36]	@ D.39529, g_vdm_hal_fun_ptr.pfun_VDMHAL_ArrangeMem
	cmp	ip, #0	@ D.39529,
	bne	.L282	@,
.L274:
	mov	r0, #0	@,
	movw	r1, #:lower16:.LC13	@,
	movw	r2, #5808	@,
	movt	r1, #:upper16:.LC13	@,
	bl	dprint_vfmw	@
	mvn	r0, #0	@ D.39547,
	b	.L273	@
.L272:
	ldr	r7, [fp, #-952]	@, %sfp
	str	r9, [fp, #-944]	@ TempMiddleFrame, %sfp
	str	r7, [fp, #-956]	@, %sfp
	b	.L271	@
.L281:
	mov	r2, ip	@, TempPmv
	movw	r1, #:lower16:.LC11	@,
	mov	r3, r7	@, extra_ref_tmp
	movt	r1, #:upper16:.LC11	@,
	mov	r0, #32	@,
	cmp	ip, #17	@ TempPmv,
	movge	ip, #17	@ TempPmv,
	str	ip, [fp, #-948]	@ TempPmv, %sfp
	bl	dprint_vfmw	@
	b	.L267	@
.L276:
	mov	r0, #0	@,
	movw	r1, #:lower16:.LC13	@,
	movw	r2, #5827	@,
	movt	r1, #:upper16:.LC13	@,
	bl	dprint_vfmw	@
	mvn	r0, #0	@ D.39547,
	b	.L273	@
.L278:
	movw	r1, #:lower16:.LC13	@,
	movw	r2, #5846	@,
	movt	r1, #:upper16:.LC13	@,
	mov	r0, #0	@,
	bl	dprint_vfmw	@
	b	.L280	@
	.fnend
	.size	VCTRL_GetChanMemSize, .-VCTRL_GetChanMemSize
	.align	2
	.global	VCTRL_GetChanMemSizeWithOption
	.type	VCTRL_GetChanMemSizeWithOption, %function
VCTRL_GetChanMemSizeWithOption:
	.fnstart
.LFB1583:
	@ args = 0, pretend = 0, frame = 888
	@ frame_needed = 1, uses_anonymous_args = 0
	.movsp ip
	mov	ip, sp	@,
	stmfd	sp!, {r4, r5, r6, r7, r8, r9, sl, fp, ip, lr, pc}	@,
	.pad #4
	.save {r4, r5, r6, r7, r8, r9, sl, fp, ip, lr}
	.setfp fp, ip, #-4
	sub	fp, ip, #4	@,,
	.pad #916
	sub	sp, sp, #916	@,,
	push	{lr}
	bl	__gnu_mcount_nc
	movw	ip, #:lower16:541960	@ tmp238,
	cmp	r0, #26	@ eCapLevel,
	movt	ip, #:upper16:541960	@ tmp238,
	movw	sl, #:lower16:11627448	@ tmp237,
	movt	sl, #:upper16:11627448	@ tmp237,
	movne	sl, ip	@ s32ChanCtxSize, tmp238
	cmp	r3, #2	@ flag,
	mov	r7, r0	@ eCapLevel, eCapLevel
	mov	r8, r3	@ flag, flag
	mov	r4, r1	@ pChanOption, pChanOption
	mov	r5, r2	@ pDetailMemSize, pDetailMemSize
	beq	.L286	@,
	movw	r3, #:lower16:.LANCHOR0	@ tmp157,
	movt	r3, #:upper16:.LANCHOR0	@ tmp157,
	ldr	ip, [r1, #60]	@ D.39348, <variable>.s32DisplayFrameNum
	ldr	r9, [r3, #76]	@ extra_disp.627, extra_disp
	ldr	r2, [r1, #32]	@ D.39346, <variable>.s32MaxRefFrameNum
	ldr	r3, [r3, #72]	@ extra_ref.626, extra_ref
	add	r6, r9, ip	@ TempDispNum, extra_disp.627, D.39348
	add	r1, r3, r2	@ TempRefNum, extra_ref.626, D.39346
	orrs	r0, r6, r1	@, TempDispNum, TempRefNum
	bmi	.L305	@,
	cmp	r1, #16	@ TempRefNum,
	strle	r1, [r4, #32]	@ TempRefNum, <variable>.s32MaxRefFrameNum
	strle	r6, [r4, #60]	@ TempDispNum, <variable>.s32DisplayFrameNum
	bgt	.L306	@,
.L290:
	rsbs	r8, r8, #1	@ tmp177, flag
	movcc	r8, #0	@ tmp177
	cmp	r7, #25	@ eCapLevel,
	moveq	r8, #0	@, tmp177,
	cmp	r8, #0	@ tmp177,
	bne	.L307	@,
.L286:
	ldr	r3, [r4, #4]	@ D.39367, <variable>.Purpose
	cmp	r3, #2	@ D.39367,
	bhi	.L308	@,
	bne	.L292	@,
	ldr	r3, [r4, #64]	@ D.39375, <variable>.s32SlotWidth
	cmp	r3, #0	@ D.39375,
	beq	.L293	@,
	ldr	r2, [r4, #68]	@ D.39377, <variable>.s32SlotHeight
	cmp	r2, #0	@ D.39377,
	beq	.L293	@,
	mul	r3, r2, r3	@ tmp181, D.39377, D.39375
	ldr	r1, [r4, #60]	@ <variable>.s32DisplayFrameNum, <variable>.s32DisplayFrameNum
	mov	r0, #0	@ tmp186,
	stmib	r5, {r0, sl}	@ phole stm
	mov	ip, r3, asl #1	@ tmp182, tmp181,
	mla	r2, r1, ip, ip	@ tmp185, <variable>.s32DisplayFrameNum, tmp182, tmp182
	str	r2, [r5, #0]	@ tmp185, <variable>.VdhDetailMem
.L288:
	sub	sp, fp, #40
	ldmfd	sp, {r4, r5, r6, r7, r8, r9, sl, fp, sp, pc}
.L306:
	mov	r0, #32	@,
	movw	r1, #:lower16:.LC15	@,
	movt	r1, #:upper16:.LC15	@,
	bl	dprint_vfmw	@
	mov	r0, #16	@ tmp170,
	str	r6, [r4, #60]	@ TempDispNum, <variable>.s32DisplayFrameNum
	str	r0, [r4, #32]	@ tmp170, <variable>.s32MaxRefFrameNum
	b	.L290	@
.L292:
	cmp	r3, #1	@ D.39367,
	mvnne	r0, #0	@ D.39356,
	bne	.L288	@
.L295:
	ldr	r0, [r4, #32]	@ temp.1624, <variable>.s32MaxRefFrameNum
	cmp	r0, #0	@ temp.1624,
	blt	.L296	@,
	ldr	r2, [r4, #12]	@ D.39389, <variable>.s32MaxWidth
	cmp	r2, #31	@ D.39389,
	ble	.L296	@,
	ldr	r3, [r4, #16]	@ D.39391, <variable>.s32MaxHeight
	cmp	r3, #31	@ D.39391,
	ble	.L296	@,
	ldr	ip, [r4, #56]	@ <variable>.s32SCDBufSize, <variable>.s32SCDBufSize
	cmp	ip, #262144	@ <variable>.s32SCDBufSize,
	blt	.L296	@,
	ldr	r1, [r4, #44]	@ <variable>.s32SupportH264, <variable>.s32SupportH264
	cmp	r1, #1	@ <variable>.s32SupportH264,
	beq	.L309	@,
.L297:
	ldr	r6, [r4, #40]	@ <variable>.s32SupportBFrame, <variable>.s32SupportBFrame
	cmp	r6, #0	@ <variable>.s32SupportBFrame,
	moveq	lr, #1	@ PmvNum,
	beq	.L299	@,
	add	lr, r0, #1	@ PmvNum.1625, temp.1624,
	cmp	lr, #17	@ PmvNum.1625,
	movge	lr, #17	@ PmvNum,
.L299:
	movw	r1, #:lower16:g_vdm_hal_fun_ptr	@ tmp195,
	movt	r1, #:upper16:g_vdm_hal_fun_ptr	@ tmp195,
	ldr	r6, [r4, #60]	@ temp.1626, <variable>.s32DisplayFrameNum
	ldr	ip, [r1, #36]	@ D.39409, g_vdm_hal_fun_ptr.pfun_VDMHAL_ArrangeMem
	cmp	ip, #0	@ D.39409,
	beq	.L300	@,
	add	r0, r0, r6	@ tmp196, temp.1624, temp.1626
	str	lr, [sp, #0]	@ PmvNum,
	mov	r1, #0	@ tmp198,
	add	lr, r0, #2	@ tmp197, tmp196,
	str	r1, [sp, #8]	@ tmp198,
	mvn	r0, #0	@ tmp199,
	str	lr, [sp, #4]	@ tmp197,
	mvn	r1, #-2147483648	@,
	str	r0, [sp, #12]	@ tmp199,
	sub	lr, fp, #928	@ tmp201,,
	mov	r0, #1	@,
	str	lr, [sp, #16]	@ tmp201,
	blx	ip	@ D.39409
	cmp	r0, #0	@ ret
	bne	.L300	@,
	ldr	r2, [fp, #-924]	@ MemArrange.TotalMemUsed, MemArrange.TotalMemUsed
	add	lr, r2, #47104	@ tmp203, MemArrange.TotalMemUsed,
	add	r1, lr, #16	@ tmp203, tmp203,
	str	r1, [r5, #0]	@ tmp203, <variable>.VdhDetailMem
	ldr	ip, [r4, #56]	@ <variable>.s32SCDBufSize, <variable>.s32SCDBufSize
	add	r3, ip, #32768	@ tmp206, <variable>.s32SCDBufSize,
	str	r3, [r5, #4]	@ tmp206, <variable>.ScdDetailMem
	ldr	r2, [r4, #44]	@ <variable>.s32SupportH264, <variable>.s32SupportH264
	cmp	r2, #0	@ <variable>.s32SupportH264,
	streq	sl, [r5, #8]	@ s32ChanCtxSize, <variable>.ChanCtxDetailMem
	moveq	r0, r2	@ D.39356, <variable>.s32SupportH264
	beq	.L288	@,
	ldr	r1, [r4, #20]	@ <variable>.s32MaxSliceNum, <variable>.s32MaxSliceNum
	movw	r2, #4060	@ tmp213,
	ldr	r3, [r4, #24]	@ <variable>.s32MaxSpsNum, <variable>.s32MaxSpsNum
	movw	ip, #3992	@ tmp210,
	cmp	r7, #26	@ eCapLevel,
	ldr	lr, [r4, #28]	@ <variable>.s32MaxPpsNum, <variable>.s32MaxPpsNum
	mul	r1, r2, r1	@ tmp211, tmp213, <variable>.s32MaxSliceNum
	mla	r2, ip, r3, r1	@ tmp214, tmp210, <variable>.s32MaxSpsNum, tmp211
	moveq	r1, #2240	@ tmp217,
	movne	r1, #2208	@ tmp229,
	mla	r3, r1, lr, r2	@ tmp230, tmp229, <variable>.s32MaxPpsNum, tmp226
	add	sl, r3, sl	@ tmp231, tmp230, s32ChanCtxSize
	str	sl, [r5, #8]	@ tmp231, <variable>.ChanCtxDetailMem
	b	.L288	@
.L293:
	mov	r0, #32	@,
	movw	r1, #:lower16:.LC18	@,
	movt	r1, #:upper16:.LC18	@,
	bl	dprint_vfmw	@
	mvn	r0, #0	@ D.39356,
	b	.L288	@
.L307:
	mov	r0, #32	@,
	movw	r1, #:lower16:.LC16	@,
	movt	r1, #:upper16:.LC16	@,
	bl	dprint_vfmw	@
	mvn	r0, #0	@ D.39356,
	b	.L288	@
.L308:
	mov	r0, #32	@,
	movw	r1, #:lower16:.LC17	@,
	movt	r1, #:upper16:.LC17	@,
	bl	dprint_vfmw	@
	mvn	r0, #0	@ D.39356,
	b	.L288	@
.L305:
	mov	r0, #32	@,
	movw	r1, #:lower16:.LC14	@,
	movt	r1, #:upper16:.LC14	@,
	str	ip, [sp, #0]	@ D.39348,
	str	r9, [sp, #4]	@ extra_disp.627,
	bl	dprint_vfmw	@
	mvn	r0, #0	@ D.39356,
	b	.L288	@
.L309:
	ldr	ip, [r4, #20]	@ <variable>.s32MaxSliceNum, <variable>.s32MaxSliceNum
	cmp	ip, #0	@ <variable>.s32MaxSliceNum,
	ble	.L296	@,
	ldr	r1, [r4, #24]	@ <variable>.s32MaxSpsNum, <variable>.s32MaxSpsNum
	cmp	r1, #0	@ <variable>.s32MaxSpsNum,
	ble	.L296	@,
	ldr	ip, [r4, #28]	@ <variable>.s32MaxPpsNum, <variable>.s32MaxPpsNum
	cmp	ip, #0	@ <variable>.s32MaxPpsNum,
	bgt	.L297	@,
.L296:
	mov	r0, #32	@,
	movw	r1, #:lower16:.LC19	@,
	movt	r1, #:upper16:.LC19	@,
	bl	dprint_vfmw	@
	mvn	r0, #0	@ D.39356,
	b	.L288	@
.L300:
	mov	r0, #0	@,
	movw	r1, #:lower16:.LC20	@,
	movw	r2, #5574	@,
	movt	r1, #:upper16:.LC20	@,
	bl	dprint_vfmw	@
	mvn	r0, #0	@ D.39356,
	b	.L288	@
	.fnend
	.size	VCTRL_GetChanMemSizeWithOption, .-VCTRL_GetChanMemSizeWithOption
	.align	2
	.global	VCTRL_ConfigFFFBSpeed
	.type	VCTRL_ConfigFFFBSpeed, %function
VCTRL_ConfigFFFBSpeed:
	.fnstart
.LFB1572:
	@ args = 0, pretend = 0, frame = 0
	@ frame_needed = 1, uses_anonymous_args = 0
	.movsp ip
	mov	ip, sp	@,
	stmfd	sp!, {fp, ip, lr, pc}	@,
	.pad #4
	.save {fp, ip, lr}
	.setfp fp, ip, #-4
	sub	fp, ip, #4	@,,
	push	{lr}
	bl	__gnu_mcount_nc
	cmp	r0, #15	@ ChanID,
	bhi	.L316	@,
	movw	r3, #:lower16:.LANCHOR0	@ tmp140,
	movt	r3, #:upper16:.LANCHOR0	@ tmp140,
	ldr	r3, [r3, r0, asl #2]	@ D.39012, s_pstVfmwChan
	ldr	r2, [r3, #12]	@ <variable>.s32IsOpen, <variable>.s32IsOpen
	cmp	r2, #1	@ <variable>.s32IsOpen,
	bne	.L317	@,
	cmp	r1, #0	@ pArgs,
	beq	.L318	@,
	ldr	ip, [r1, #0]	@ tmp146,* pArgs
	mov	r0, #0	@ D.39010,
	str	ip, [r3, #1472]	@ tmp146, <variable>.stSynExtraData.s32FastForwardBackwardSpeed
	ldmfd	sp, {fp, sp, pc}	@
.L317:
	mov	r0, #0	@,
	movw	r1, #:lower16:.LC3	@,
	movw	r2, #4702	@,
	movt	r1, #:upper16:.LC3	@,
	movw	r3, #:lower16:.LC21	@,
	movt	r3, #:upper16:.LC21	@,
	bl	dprint_vfmw	@
	mvn	r0, #0	@ D.39010,
	ldmfd	sp, {fp, sp, pc}	@
.L316:
	mov	r0, #0	@,
	movw	r1, #:lower16:.LC3	@,
	movw	r2, #4701	@,
	movt	r1, #:upper16:.LC3	@,
	movw	r3, #:lower16:.LC2	@,
	movt	r3, #:upper16:.LC2	@,
	bl	dprint_vfmw	@
	mvn	r0, #0	@ D.39010,
	ldmfd	sp, {fp, sp, pc}	@
.L318:
	mov	r0, r1	@, pArgs
	movw	r2, #4703	@,
	movw	r1, #:lower16:.LC3	@,
	movw	r3, #:lower16:.LC22	@,
	movt	r1, #:upper16:.LC3	@,
	movt	r3, #:upper16:.LC22	@,
	bl	dprint_vfmw	@
	mvn	r0, #0	@ D.39010,
	ldmfd	sp, {fp, sp, pc}	@
	.fnend
	.size	VCTRL_ConfigFFFBSpeed, .-VCTRL_ConfigFFFBSpeed
	.align	2
	.global	VCTRL_GetChanMemInfo
	.type	VCTRL_GetChanMemInfo, %function
VCTRL_GetChanMemInfo:
	.fnstart
.LFB1567:
	@ args = 0, pretend = 0, frame = 0
	@ frame_needed = 1, uses_anonymous_args = 0
	.movsp ip
	mov	ip, sp	@,
	stmfd	sp!, {fp, ip, lr, pc}	@,
	.pad #4
	.save {fp, ip, lr}
	.setfp fp, ip, #-4
	sub	fp, ip, #4	@,,
	push	{lr}
	bl	__gnu_mcount_nc
	cmp	r0, #15	@ ChanId,
	bhi	.L325	@,
	movw	r3, #:lower16:.LANCHOR0	@ tmp141,
	movt	r3, #:upper16:.LANCHOR0	@ tmp141,
	ldr	r0, [r3, r0, asl #2]	@ D.38795, s_pstVfmwChan
	cmp	r0, #0	@ D.38795,
	beq	.L326	@,
	cmp	r1, #0	@ pstMemRec,
	bne	.L327	@,
.L323:
	mvn	r0, #0	@ D.38793,
	ldmfd	sp, {fp, sp, pc}	@
.L326:
	movw	r1, #:lower16:.LC3	@,
	movw	r2, #4349	@,
	movt	r1, #:upper16:.LC3	@,
	movw	r3, #:lower16:.LC6	@,
	movt	r3, #:upper16:.LC6	@,
	bl	dprint_vfmw	@
	mvn	r0, #0	@ D.38793,
	ldmfd	sp, {fp, sp, pc}	@
.L327:
	ldr	r2, [r0, #168]	@ <variable>.s32OneChanMem, <variable>.s32OneChanMem
	cmp	r2, #1	@ <variable>.s32OneChanMem,
	bne	.L323	@,
	add	r2, r0, #172
	ldmia	r2, {r2, r3, ip}	@ phole ldm
	cmp	r3, #0	@ D.38807,
	stmib	r1, {r3, ip}	@ phole stm
	movne	r0, #0	@ D.38793,
	str	r2, [r1, #0]	@ <variable>.stChanMem.PhyAddr, <variable>.PhyAddr
	ldmnefd	sp, {fp, sp, pc}	@
	b	.L323	@
.L325:
	mov	r0, #0	@,
	movw	r1, #:lower16:.LC3	@,
	movw	r2, #4348	@,
	movt	r1, #:upper16:.LC3	@,
	movw	r3, #:lower16:.LC23	@,
	movt	r3, #:upper16:.LC23	@,
	bl	dprint_vfmw	@
	mvn	r0, #0	@ D.38793,
	ldmfd	sp, {fp, sp, pc}	@
	.fnend
	.size	VCTRL_GetChanMemInfo, .-VCTRL_GetChanMemInfo
	.align	2
	.global	VCTRL_GetVidStd
	.type	VCTRL_GetVidStd, %function
VCTRL_GetVidStd:
	.fnstart
.LFB1564:
	@ args = 0, pretend = 0, frame = 0
	@ frame_needed = 1, uses_anonymous_args = 0
	.movsp ip
	mov	ip, sp	@,
	stmfd	sp!, {fp, ip, lr, pc}	@,
	.pad #4
	.save {fp, ip, lr}
	.setfp fp, ip, #-4
	sub	fp, ip, #4	@,,
	push	{lr}
	bl	__gnu_mcount_nc
	cmp	r0, #15	@ ChanId,
	bhi	.L329	@,
	movw	r3, #:lower16:.LANCHOR0	@ tmp137,
	movt	r3, #:upper16:.LANCHOR0	@ tmp137,
	ldr	r3, [r3, r0, asl #2]	@ D.38694, s_pstVfmwChan
	cmp	r3, #0	@ D.38694,
	beq	.L329	@,
	ldr	r2, [r3, #12]	@ <variable>.s32IsOpen, <variable>.s32IsOpen
	cmp	r2, #1	@ <variable>.s32IsOpen,
	beq	.L332	@,
	mov	r3, r0	@, ChanId
	movw	r1, #:lower16:.LC25	@,
	mov	r0, #0	@,
	movt	r1, #:upper16:.LC25	@,
	movw	r2, #4175	@,
	bl	dprint_vfmw	@
	mov	r0, #19	@ D.38696,
	ldmfd	sp, {fp, sp, pc}	@
.L329:
	mov	r0, #0	@,
	movw	r1, #:lower16:.LC24	@,
	movw	r2, #4168	@,
	movt	r1, #:upper16:.LC24	@,
	bl	dprint_vfmw	@
	mov	r0, #19	@ D.38696,
	ldmfd	sp, {fp, sp, pc}	@
.L332:
	ldr	r0, [r3, #944]	@ D.38696, <variable>.eVidStd
	ldmfd	sp, {fp, sp, pc}	@
	.fnend
	.size	VCTRL_GetVidStd, .-VCTRL_GetVidStd
	.align	2
	.global	VCTRL_CheckChanWH
	.type	VCTRL_CheckChanWH, %function
VCTRL_CheckChanWH:
	.fnstart
.LFB1555:
	@ args = 0, pretend = 0, frame = 0
	@ frame_needed = 1, uses_anonymous_args = 0
	.movsp ip
	mov	ip, sp	@,
	stmfd	sp!, {fp, ip, lr, pc}	@,
	.pad #4
	.save {fp, ip, lr}
	.setfp fp, ip, #-4
	sub	fp, ip, #4	@,,
	.pad #8
	sub	sp, sp, #8	@,,
	push	{lr}
	bl	__gnu_mcount_nc
	movw	ip, #:lower16:.LANCHOR0	@ tmp143,
	movt	ip, #:upper16:.LANCHOR0	@ tmp143,
	movw	r3, #:lower16:g_chipID	@ tmp144,
	movt	r3, #:upper16:g_chipID	@ tmp144,
	ldr	r2, [ip, r0, asl #2]	@ D.38040, s_pstVfmwChan
	ldr	ip, [r3, #0]	@ g_chipID.513, g_chipID
	ldr	r0, [r2, #1524]	@ ChanMaxHeight, <variable>.stSynExtraData.stChanOption.s32MaxHeight
	ldr	r3, [r2, #1520]	@ ChanMaxWidth, <variable>.stSynExtraData.stChanOption.s32MaxWidth
	cmp	ip, #11	@ g_chipID.513,
	ldrls	pc, [pc, ip, asl #2]	@ g_chipID.513
	b	.L335	@
.L338:
	.word	.L336
	.word	.L336
	.word	.L336
	.word	.L336
	.word	.L336
	.word	.L337
	.word	.L337
	.word	.L337
	.word	.L337
	.word	.L337
	.word	.L337
	.word	.L337
.L337:
	movw	r2, #:lower16:g_ChipMaxWidth	@ tmp151,
	movt	r2, #:upper16:g_ChipMaxWidth	@ tmp151,
	ldr	r2, [r2, #0]	@ g_ChipMaxWidth.1738, g_ChipMaxWidth
	cmp	r3, r2	@ ChanMaxWidth, g_ChipMaxWidth.1738
	ble	.L344	@,
	ldr	r3, [r1, #0]	@ D.38054, <variable>.eVidStd
	cmp	r3, #13	@ D.38054,
	cmpne	r3, #0	@, D.38054,
	beq	.L340	@,
.L348:
	cmp	r3, #15	@ D.38054,
	beq	.L340	@,
	cmp	r3, #18	@ D.38054,
	bne	.L345	@,
.L340:
	mov	r0, #0	@ ret,
	b	.L341	@
.L336:
	movw	r2, #:lower16:g_ChipMaxWidth	@ tmp145,
	movt	r2, #:upper16:g_ChipMaxWidth	@ tmp145,
	ldr	r2, [r2, #0]	@ g_ChipMaxWidth, g_ChipMaxWidth
	cmp	r3, r2	@ ChanMaxWidth, g_ChipMaxWidth
	ble	.L346	@,
	ldr	r0, [r1, #0]	@ <variable>.eVidStd, <variable>.eVidStd
	cmp	r0, #18	@ <variable>.eVidStd,
	beq	.L340	@,
.L347:
	mov	r2, ip	@, g_chipID.513
	mov	r0, #0	@,
	movw	r1, #:lower16:.LC26	@,
	movt	r1, #:upper16:.LC26	@,
	bl	dprint_vfmw	@
	mvn	r0, #0	@ ret,
	b	.L341	@
.L335:
	mov	r2, ip	@, g_chipID.513
	mov	r0, #0	@,
	movw	r1, #:lower16:.LC28	@,
	movt	r1, #:upper16:.LC28	@,
	bl	dprint_vfmw	@
	mvn	r0, #0	@ ret,
.L341:
	sub	sp, fp, #12
	ldmfd	sp, {fp, sp, pc}
.L346:
	movw	r2, #:lower16:g_ChipMaxHeight	@ tmp147,
	movt	r2, #:upper16:g_ChipMaxHeight	@ tmp147,
	ldr	r3, [r2, #0]	@ g_ChipMaxHeight, g_ChipMaxHeight
	cmp	r0, r3	@ ChanMaxHeight, g_ChipMaxHeight
	ble	.L340	@,
	ldr	r0, [r1, #0]	@ <variable>.eVidStd, <variable>.eVidStd
	cmp	r0, #18	@ <variable>.eVidStd,
	beq	.L340	@,
	b	.L347	@
.L344:
	movw	r3, #:lower16:g_ChipMaxHeight	@ tmp152,
	movt	r3, #:upper16:g_ChipMaxHeight	@ tmp152,
	ldr	r3, [r3, #0]	@ g_ChipMaxHeight, g_ChipMaxHeight
	cmp	r0, r3	@ ChanMaxHeight, g_ChipMaxHeight
	ble	.L340	@,
	ldr	r3, [r1, #0]	@ D.38054, <variable>.eVidStd
	cmp	r3, #13	@ D.38054,
	cmpne	r3, #0	@, D.38054,
	bne	.L348	@,
	b	.L340	@
.L345:
	movw	r1, #:lower16:g_ChipMaxHeight	@ tmp162,
	movt	r1, #:upper16:g_ChipMaxHeight	@ tmp162,
	mov	r0, #0	@,
	ldr	r3, [r1, #0]	@ g_ChipMaxHeight, g_ChipMaxHeight
	movw	r1, #:lower16:.LC27	@,
	movt	r1, #:upper16:.LC27	@,
	str	ip, [sp, #0]	@ g_chipID.513,
	bl	dprint_vfmw	@
	mvn	r0, #0	@ ret,
	b	.L341	@
	.fnend
	.size	VCTRL_CheckChanWH, .-VCTRL_CheckChanWH
	.align	2
	.global	RefreshDecCore
	.type	RefreshDecCore, %function
RefreshDecCore:
	.fnstart
.LFB1553:
	@ args = 0, pretend = 0, frame = 8
	@ frame_needed = 1, uses_anonymous_args = 0
	.movsp ip
	mov	ip, sp	@,
	stmfd	sp!, {r4, r5, r6, fp, ip, lr, pc}	@,
	.pad #4
	.save {r4, r5, r6, fp, ip, lr}
	.setfp fp, ip, #-4
	sub	fp, ip, #4	@,,
	.pad #12
	sub	sp, sp, #12	@,,
	push	{lr}
	bl	__gnu_mcount_nc
	movw	r4, #:lower16:.LANCHOR0	@ tmp179,
	movt	r4, #:upper16:.LANCHOR0	@ tmp179,
	mov	r5, r0	@ ChanID, ChanID
	ldr	r3, [r4, r0, asl #2]	@ D.37913, s_pstVfmwChan
	ldr	r0, [r3, #944]	@ <variable>.eVidStd, <variable>.eVidStd
	ldr	ip, [r3, #1648]	@ eOldDecCore, <variable>.eDecCore
	sub	r2, r0, #4	@ tmp147, <variable>.eVidStd,
	cmp	r2, #10	@ tmp147,
	ldrls	pc, [pc, r2, asl #2]	@ tmp147
	b	.L350	@
.L356:
	.word	.L351
	.word	.L350
	.word	.L350
	.word	.L350
	.word	.L350
	.word	.L350
	.word	.L352
	.word	.L353
	.word	.L354
	.word	.L350
	.word	.L355
.L352:
	ldr	r0, [r4, #64]	@ g_VdmCharacter, g_VdmCharacter
	tst	r0, #1	@ g_VdmCharacter,
	moveq	r0, #3	@ tmp153,
	streq	r0, [r3, #1648]	@ tmp153, <variable>.eDecCore
	beq	.L357	@,
.L350:
	mov	r0, #0	@ tmp165,
	str	r0, [r3, #1648]	@ tmp165, <variable>.eDecCore
.L357:
	ldr	r2, [r4, r5, asl #2]	@ prephitmp.1757, s_pstVfmwChan
	movw	r6, #:lower16:.LANCHOR0	@ tmp166,
	movt	r6, #:upper16:.LANCHOR0	@ tmp166,
	ldr	r0, [r2, #1648]	@ prephitmp.1759, <variable>.eDecCore
	cmp	r0, ip	@ prephitmp.1759, eOldDecCore
	beq	.L361	@,
	sub	ip, ip, #1	@ tmp167, eOldDecCore,
	cmp	ip, #4	@ tmp167,
	bhi	.L362	@,
	ldr	r3, [r6, #84]	@ D.37933, g_SdecFunc.pfun_iMediaSoftDEC_Destroy
	cmp	r3, #0	@ D.37933,
	beq	.L362	@,
	add	lr, r2, #219136	@, prephitmp.1757,
	str	r1, [fp, #-32]	@,
	add	r0, lr, #872	@,,
	blx	r3	@ D.37933
	ldr	r2, [r6, r5, asl #2]	@ prephitmp.1757, s_pstVfmwChan
	ldr	r1, [fp, #-32]	@,
	ldr	r0, [r2, #1648]	@ prephitmp.1759, <variable>.eDecCore
.L362:
	sub	r3, r0, #1	@ tmp172, prephitmp.1759,
	cmp	r3, #4	@ tmp172,
	bhi	.L361	@,
	ldr	r3, [r4, #80]	@ D.37944, g_SdecFunc.pfun_iMediaSoftDEC_Create
	cmp	r3, #0	@ D.37944,
	beq	.L363	@,
	add	r0, r2, #219136	@, prephitmp.1757,
	ldr	r2, [r2, #944]	@, <variable>.eVidStd
	add	r0, r0, #872	@,,
	blx	r3	@ D.37944
	cmp	r0, #0	@,
	bne	.L363	@,
.L361:
	mov	r0, #0	@ D.37948,
.L364:
	sub	sp, fp, #24
	ldmfd	sp, {r4, r5, r6, fp, sp, pc}
.L355:
	mov	r2, #2	@ tmp149,
	str	r2, [r3, #1648]	@ tmp149, <variable>.eDecCore
	b	.L357	@
.L351:
	mov	r6, #1	@ tmp148,
	str	r6, [r3, #1648]	@ tmp148, <variable>.eDecCore
	b	.L357	@
.L353:
	ldr	r6, [r4, #64]	@ g_VdmCharacter, g_VdmCharacter
	tst	r6, #1	@ g_VdmCharacter,
	moveq	r6, #4	@ tmp158,
	streq	r6, [r3, #1648]	@ tmp158, <variable>.eDecCore
	beq	.L357	@,
	b	.L350	@
.L354:
	ldr	r2, [r4, #64]	@ g_VdmCharacter, g_VdmCharacter
	tst	r2, #1	@ g_VdmCharacter,
	moveq	r2, #5	@ tmp163,
	streq	r2, [r3, #1648]	@ tmp163, <variable>.eDecCore
	beq	.L357	@,
	b	.L350	@
.L363:
	mov	r0, #0	@,
	movw	r1, #:lower16:.LC29	@,
	movt	r1, #:upper16:.LC29	@,
	bl	dprint_vfmw	@
	mvn	r0, #0	@ D.37948,
	b	.L364	@
	.fnend
	.size	RefreshDecCore, .-RefreshDecCore
	.align	2
	.global	VCTRL_SetCallBack
	.type	VCTRL_SetCallBack, %function
VCTRL_SetCallBack:
	.fnstart
.LFB1527:
	@ args = 0, pretend = 0, frame = 0
	@ frame_needed = 1, uses_anonymous_args = 0
	.movsp ip
	mov	ip, sp	@,
	stmfd	sp!, {fp, ip, lr, pc}	@,
	.pad #4
	.save {fp, ip, lr}
	.setfp fp, ip, #-4
	sub	fp, ip, #4	@,,
	push	{lr}
	bl	__gnu_mcount_nc
	cmp	r1, #0	@ event_report
	beq	.L374	@,
	cmp	r0, #0	@ eType,
	movweq	r3, #:lower16:.LANCHOR0	@ tmp139,
	movteq	r3, #:upper16:.LANCHOR0	@ tmp139,
	streq	r1, [r3, #260]	@ event_report, s_VfmwCTrl.event_report_vdec
	ldmeqfd	sp, {fp, sp, pc}	@
	cmp	r0, #1	@ eType,
	beq	.L375	@,
	mov	r3, r0	@, eType
	ldr	r2, .L376	@,
	mov	r0, #0	@,
	movw	r1, #:lower16:.LC31	@,
	movt	r1, #:upper16:.LC31	@,
	bl	dprint_vfmw	@
	mvn	r0, #0	@ D.36978,
	ldmfd	sp, {fp, sp, pc}	@
.L375:
	movw	r3, #:lower16:.LANCHOR0	@ tmp140,
	movt	r3, #:upper16:.LANCHOR0	@ tmp140,
	mov	r0, #0	@ D.36978,
	str	r1, [r3, #264]	@ event_report, s_VfmwCTrl.event_report_omxvdec
	ldmfd	sp, {fp, sp, pc}	@
.L374:
	mov	r0, r1	@, event_report
	movw	r2, #875	@,
	movw	r1, #:lower16:.LC3	@,
	movw	r3, #:lower16:.LC30	@,
	movt	r1, #:upper16:.LC3	@,
	movt	r3, #:upper16:.LC30	@,
	bl	dprint_vfmw	@
	mvn	r0, #0	@ D.36978,
	ldmfd	sp, {fp, sp, pc}	@
.L377:
	.align	2
.L376:
	.word	.LANCHOR1+32
	.fnend
	.size	VCTRL_SetCallBack, .-VCTRL_SetCallBack
	.align	2
	.global	VCTRL_EventReport
	.type	VCTRL_EventReport, %function
VCTRL_EventReport:
	.fnstart
.LFB1526:
	@ args = 0, pretend = 0, frame = 0
	@ frame_needed = 1, uses_anonymous_args = 0
	.movsp ip
	mov	ip, sp	@,
	stmfd	sp!, {fp, ip, lr, pc}	@,
	.pad #4
	.save {fp, ip, lr}
	.setfp fp, ip, #-4
	sub	fp, ip, #4	@,,
	push	{lr}
	bl	__gnu_mcount_nc
	movw	ip, #:lower16:.LANCHOR0	@ tmp139,
	movt	ip, #:upper16:.LANCHOR0	@ tmp139,
	ldr	r3, [ip, r0, asl #2]	@ tmp140, s_pstVfmwChan
	ldr	r3, [r3, #28]	@ eType, <variable>.eAdapterType
	cmp	r3, #0	@ eType,
	bne	.L385	@,
	ldr	r3, [ip, #260]	@ s_VfmwCTrl.event_report_vdec, s_VfmwCTrl.event_report_vdec
	blx	r3	@ s_VfmwCTrl.event_report_vdec
	ldmfd	sp, {fp, sp, pc}	@
.L385:
	cmp	r3, #1	@ eType,
	beq	.L386	@,
	ldr	r2, .L387	@,
	mov	r0, #0	@,
	movw	r1, #:lower16:.LC31	@,
	movt	r1, #:upper16:.LC31	@,
	bl	dprint_vfmw	@
	mvn	r0, #0	@ D.36957,
	ldmfd	sp, {fp, sp, pc}	@
.L386:
	ldr	r3, [ip, #264]	@ s_VfmwCTrl.event_report_omxvdec, s_VfmwCTrl.event_report_omxvdec
	blx	r3	@ s_VfmwCTrl.event_report_omxvdec
	ldmfd	sp, {fp, sp, pc}	@
.L388:
	.align	2
.L387:
	.word	.LANCHOR1+52
	.fnend
	.size	VCTRL_EventReport, .-VCTRL_EventReport
	.align	2
	.global	VCTRL_SetMoreGapEnable
	.type	VCTRL_SetMoreGapEnable, %function
VCTRL_SetMoreGapEnable:
	.fnstart
.LFB1525:
	@ args = 0, pretend = 0, frame = 0
	@ frame_needed = 1, uses_anonymous_args = 0
	.movsp ip
	mov	ip, sp	@,
	stmfd	sp!, {fp, ip, lr, pc}	@,
	.pad #4
	.save {fp, ip, lr}
	.setfp fp, ip, #-4
	sub	fp, ip, #4	@,,
	push	{lr}
	bl	__gnu_mcount_nc
	cmp	r0, #15	@ ChanID,
	bhi	.L396	@,
	movw	r3, #:lower16:.LANCHOR0	@ tmp140,
	movt	r3, #:upper16:.LANCHOR0	@ tmp140,
	ldr	r3, [r3, r0, asl #2]	@ D.36935, s_pstVfmwChan
	cmp	r3, #0	@ D.36935,
	beq	.L397	@,
	ldr	r2, [r3, #12]	@ <variable>.s32IsOpen, <variable>.s32IsOpen
	cmp	r2, #1	@ <variable>.s32IsOpen,
	bne	.L398	@,
	cmp	r1, #1	@ MoreGapEnable,
	strls	r1, [r3, #1468]	@ MoreGapEnable, <variable>.stSynExtraData.s32MoreGapEnable
	movhi	r2, #0	@ tmp146,
	movls	r0, #0	@ D.36933,
	mvnhi	r0, #0	@ D.36933,
	strhi	r2, [r3, #1468]	@ tmp146, <variable>.stSynExtraData.s32MoreGapEnable
	ldmfd	sp, {fp, sp, pc}	@
.L398:
	mov	r0, #0	@,
	movw	r1, #:lower16:.LC3	@,
	movw	r2, #841	@,
	movt	r1, #:upper16:.LC3	@,
	movw	r3, #:lower16:.LC32	@,
	movt	r3, #:upper16:.LC32	@,
	bl	dprint_vfmw	@
	mvn	r0, #0	@ D.36933,
	ldmfd	sp, {fp, sp, pc}	@
.L396:
	mov	r0, #0	@,
	movw	r1, #:lower16:.LC3	@,
	movw	r2, #839	@,
	movt	r1, #:upper16:.LC3	@,
	movw	r3, #:lower16:.LC2	@,
	movt	r3, #:upper16:.LC2	@,
	bl	dprint_vfmw	@
	mvn	r0, #0	@ D.36933,
	ldmfd	sp, {fp, sp, pc}	@
.L397:
	mov	r0, r3	@, D.36935
	movw	r1, #:lower16:.LC3	@,
	mov	r2, #840	@,
	movt	r1, #:upper16:.LC3	@,
	movw	r3, #:lower16:.LC6	@,
	movt	r3, #:upper16:.LC6	@,
	bl	dprint_vfmw	@
	mvn	r0, #0	@ D.36933,
	ldmfd	sp, {fp, sp, pc}	@
	.fnend
	.size	VCTRL_SetMoreGapEnable, .-VCTRL_SetMoreGapEnable
	.align	2
	.global	VCTRL_RegisterSoftDecoder
	.type	VCTRL_RegisterSoftDecoder, %function
VCTRL_RegisterSoftDecoder:
	.fnstart
.LFB1513:
	@ args = 0, pretend = 0, frame = 0
	@ frame_needed = 1, uses_anonymous_args = 0
	.movsp ip
	mov	ip, sp	@,
	stmfd	sp!, {r4, r5, fp, ip, lr, pc}	@,
	.pad #4
	.save {r4, r5, fp, ip, lr}
	.setfp fp, ip, #-4
	sub	fp, ip, #4	@,,
	push	{lr}
	bl	__gnu_mcount_nc
	ldr	r3, [r0, #0]	@ <variable>.pfun_iMediaSoftDEC_Create, <variable>.pfun_iMediaSoftDEC_Create
	cmp	r3, #0	@ <variable>.pfun_iMediaSoftDEC_Create,
	beq	.L409	@,
	ldr	r3, [r0, #4]	@ <variable>.pfun_iMediaSoftDEC_Destroy, <variable>.pfun_iMediaSoftDEC_Destroy
	cmp	r3, #0	@ <variable>.pfun_iMediaSoftDEC_Destroy,
	beq	.L410	@,
	ldr	r3, [r0, #8]	@ <variable>.pfun_iMediaSoftDEC_Init, <variable>.pfun_iMediaSoftDEC_Init
	cmp	r3, #0	@ <variable>.pfun_iMediaSoftDEC_Init,
	beq	.L411	@,
	ldr	r3, [r0, #12]	@ <variable>.pfun_iMediaSoftDEC_Decode, <variable>.pfun_iMediaSoftDEC_Decode
	cmp	r3, #0	@ <variable>.pfun_iMediaSoftDEC_Decode,
	beq	.L412	@,
	ldr	r3, [r0, #16]	@ <variable>.pfun_iMediaSoftDEC_RecycleImage, <variable>.pfun_iMediaSoftDEC_RecycleImage
	cmp	r3, #0	@ <variable>.pfun_iMediaSoftDEC_RecycleImage,
	beq	.L413	@,
	ldr	r3, [r0, #20]	@ <variable>.pfun_iMediaSoftDEC_GetRemainImg, <variable>.pfun_iMediaSoftDEC_GetRemainImg
	cmp	r3, #0	@ <variable>.pfun_iMediaSoftDEC_GetRemainImg,
	beq	.L414	@,
	ldr	r3, [r0, #24]	@ <variable>.pfun_iMediaSoftDEC_GetImageBuffer, <variable>.pfun_iMediaSoftDEC_GetImageBuffer
	cmp	r3, #0	@ <variable>.pfun_iMediaSoftDEC_GetImageBuffer,
	beq	.L415	@,
	mov	r4, r0	@ pstSdecFunc, pstSdecFunc
	ldr	ip, .L416	@ tmp158,
	ldmia	r4!, {r0, r1, r2, r3}	@ pstSdecFunc,,,,
	mov	r5, #0	@ D.36706,
	stmia	ip!, {r0, r1, r2, r3}	@ tmp158,,,,
	ldmia	r4, {r0, r1, r2}	@ pstSdecFunc,,,
	stmia	ip, {r0, r1, r2}	@ tmp161,,,
.L401:
	mov	r0, r5	@, D.36706
	ldmfd	sp, {r4, r5, fp, sp, pc}	@
.L409:
	mov	r0, r3	@, <variable>.pfun_iMediaSoftDEC_Create
	movw	r1, #:lower16:.LC33	@,
	movw	r2, #:lower16:.LC34	@,
	movt	r1, #:upper16:.LC33	@,
	movt	r2, #:upper16:.LC34	@,
	mvn	r5, #0	@ D.36706,
	bl	dprint_vfmw	@
	b	.L401	@
.L414:
	mov	r0, r3	@, <variable>.pfun_iMediaSoftDEC_GetRemainImg
	movw	r1, #:lower16:.LC33	@,
	movw	r2, #:lower16:.LC39	@,
	movt	r1, #:upper16:.LC33	@,
	movt	r2, #:upper16:.LC39	@,
	mvn	r5, #0	@ D.36706,
	bl	dprint_vfmw	@
	b	.L401	@
.L413:
	mov	r0, r3	@, <variable>.pfun_iMediaSoftDEC_RecycleImage
	movw	r1, #:lower16:.LC33	@,
	movw	r2, #:lower16:.LC38	@,
	movt	r1, #:upper16:.LC33	@,
	movt	r2, #:upper16:.LC38	@,
	mvn	r5, #0	@ D.36706,
	bl	dprint_vfmw	@
	b	.L401	@
.L412:
	mov	r0, r3	@, <variable>.pfun_iMediaSoftDEC_Decode
	movw	r1, #:lower16:.LC33	@,
	movw	r2, #:lower16:.LC37	@,
	movt	r1, #:upper16:.LC33	@,
	movt	r2, #:upper16:.LC37	@,
	mvn	r5, #0	@ D.36706,
	bl	dprint_vfmw	@
	b	.L401	@
.L411:
	mov	r0, r3	@, <variable>.pfun_iMediaSoftDEC_Init
	movw	r1, #:lower16:.LC33	@,
	movw	r2, #:lower16:.LC36	@,
	movt	r1, #:upper16:.LC33	@,
	movt	r2, #:upper16:.LC36	@,
	mvn	r5, #0	@ D.36706,
	bl	dprint_vfmw	@
	b	.L401	@
.L410:
	mov	r0, r3	@, <variable>.pfun_iMediaSoftDEC_Destroy
	movw	r1, #:lower16:.LC33	@,
	movw	r2, #:lower16:.LC35	@,
	movt	r1, #:upper16:.LC33	@,
	movt	r2, #:upper16:.LC35	@,
	mvn	r5, #0	@ D.36706,
	bl	dprint_vfmw	@
	b	.L401	@
.L415:
	mov	r0, r3	@, <variable>.pfun_iMediaSoftDEC_GetImageBuffer
	movw	r1, #:lower16:.LC33	@,
	movw	r2, #:lower16:.LC40	@,
	movt	r1, #:upper16:.LC33	@,
	movt	r2, #:upper16:.LC40	@,
	mvn	r5, #0	@ D.36706,
	bl	dprint_vfmw	@
	b	.L401	@
.L417:
	.align	2
.L416:
	.word	.LANCHOR0+80
	.fnend
	.size	VCTRL_RegisterSoftDecoder, .-VCTRL_RegisterSoftDecoder
	.align	2
	.global	vfmw_proc_destroy
	.type	vfmw_proc_destroy, %function
vfmw_proc_destroy:
	.fnstart
.LFB1628:
	@ args = 0, pretend = 0, frame = 0
	@ frame_needed = 1, uses_anonymous_args = 0
	.movsp ip
	mov	ip, sp	@,
	stmfd	sp!, {r4, r5, r6, r7, fp, ip, lr, pc}	@,
	.pad #4
	.save {r4, r5, r6, r7, fp, ip, lr}
	.setfp fp, ip, #-4
	sub	fp, ip, #4	@,,
	push	{lr}
	bl	__gnu_mcount_nc
	ldr	r4, .L428	@ ivtmp.1911,
	mov	r5, r0	@ proc_name, proc_name
	add	r7, r4, #768	@ D.42929, ivtmp.1911,
	b	.L421	@
.L419:
	add	r4, r4, #24	@ ivtmp.1911, ivtmp.1911,
	mov	r1, r4	@, ivtmp.1911
	bl	strncmp	@
	subs	r6, r0, #0	@ tmp143,
	beq	.L426	@,
	add	r4, r4, #24	@ ivtmp.1911, ivtmp.1911,
	cmp	r4, r7	@ ivtmp.1911, D.42929
	beq	.L427	@,
.L421:
	mov	r2, #16	@,
	mov	r1, r4	@, ivtmp.1911
	mov	r0, r5	@, proc_name
	bl	strncmp	@
	mov	r2, #16	@,
	subs	r6, r0, #0	@ tmp143,
	mov	r0, r5	@, proc_name
	bne	.L419	@,
.L426:
	mov	r0, r5	@, proc_name
	mov	r1, r6	@, tmp143
	bl	remove_proc_entry	@
	mov	r0, r4	@, ivtmp.1911
	mov	r1, #16	@,
	bl	__memzero	@
	str	r6, [r4, #20]	@ tmp143, <variable>.write
	str	r6, [r4, #16]	@ tmp143, <variable>.read
	ldmfd	sp, {r4, r5, r6, r7, fp, sp, pc}	@
.L427:
	ldmfd	sp, {r4, r5, r6, r7, fp, sp, pc}	@
.L429:
	.align	2
.L428:
	.word	.LANCHOR0+268
	.fnend
	.size	vfmw_proc_destroy, .-vfmw_proc_destroy
	.align	2
	.global	vfmw_proc_exit
	.type	vfmw_proc_exit, %function
vfmw_proc_exit:
	.fnstart
.LFB1630:
	@ args = 0, pretend = 0, frame = 24
	@ frame_needed = 1, uses_anonymous_args = 0
	.movsp ip
	mov	ip, sp	@,
	stmfd	sp!, {r4, r5, r6, fp, ip, lr, pc}	@,
	.pad #4
	.save {r4, r5, r6, fp, ip, lr}
	.setfp fp, ip, #-4
	sub	fp, ip, #4	@,,
	.pad #28
	sub	sp, sp, #28	@,,
	push	{lr}
	bl	__gnu_mcount_nc
	movw	r6, #:lower16:__stack_chk_guard	@ tmp133,
	movt	r6, #:upper16:__stack_chk_guard	@ tmp133,
	sub	r4, fp, #48	@ tmp135,,
	mov	r3, #0	@,
	mov	r1, #16	@,
	ldr	ip, [r6, #0]	@ __stack_chk_guard, __stack_chk_guard
	mov	r0, r4	@, tmp135
	movw	r2, #:lower16:.LC41	@,
	movt	r2, #:upper16:.LC41	@,
	mov	r5, r3	@ tmp137,
	str	ip, [fp, #-32]	@ __stack_chk_guard, D.42954
	bl	snprintf	@
	mov	r0, r4	@, tmp135
	strb	r5, [fp, #-33]	@ tmp137, name
	bl	vfmw_proc_destroy	@
	mov	r1, #16	@,
	mov	r3, #1	@,
	mov	r0, r4	@, tmp135
	movw	r2, #:lower16:.LC41	@,
	movt	r2, #:upper16:.LC41	@,
	bl	snprintf	@
	mov	r0, r4	@, tmp135
	strb	r5, [fp, #-33]	@ tmp137, name
	bl	vfmw_proc_destroy	@
	mov	r1, #16	@,
	mov	r3, #2	@,
	mov	r0, r4	@, tmp135
	movw	r2, #:lower16:.LC41	@,
	movt	r2, #:upper16:.LC41	@,
	bl	snprintf	@
	mov	r0, r4	@, tmp135
	strb	r5, [fp, #-33]	@ tmp137, name
	bl	vfmw_proc_destroy	@
	mov	r1, #16	@,
	mov	r3, #3	@,
	mov	r0, r4	@, tmp135
	movw	r2, #:lower16:.LC41	@,
	movt	r2, #:upper16:.LC41	@,
	bl	snprintf	@
	mov	r0, r4	@, tmp135
	strb	r5, [fp, #-33]	@ tmp137, name
	bl	vfmw_proc_destroy	@
	mov	r1, #16	@,
	mov	r3, #4	@,
	mov	r0, r4	@, tmp135
	movw	r2, #:lower16:.LC41	@,
	movt	r2, #:upper16:.LC41	@,
	bl	snprintf	@
	mov	r0, r4	@, tmp135
	strb	r5, [fp, #-33]	@ tmp137, name
	bl	vfmw_proc_destroy	@
	mov	r1, #16	@,
	mov	r3, #5	@,
	mov	r0, r4	@, tmp135
	movw	r2, #:lower16:.LC41	@,
	movt	r2, #:upper16:.LC41	@,
	bl	snprintf	@
	mov	r0, r4	@, tmp135
	strb	r5, [fp, #-33]	@ tmp137, name
	bl	vfmw_proc_destroy	@
	mov	r1, #16	@,
	mov	r3, #6	@,
	mov	r0, r4	@, tmp135
	movw	r2, #:lower16:.LC41	@,
	movt	r2, #:upper16:.LC41	@,
	bl	snprintf	@
	mov	r0, r4	@, tmp135
	strb	r5, [fp, #-33]	@ tmp137, name
	bl	vfmw_proc_destroy	@
	mov	r1, #16	@,
	mov	r3, #7	@,
	mov	r0, r4	@, tmp135
	movw	r2, #:lower16:.LC41	@,
	movt	r2, #:upper16:.LC41	@,
	bl	snprintf	@
	mov	r0, r4	@, tmp135
	strb	r5, [fp, #-33]	@ tmp137, name
	bl	vfmw_proc_destroy	@
	mov	r1, #16	@,
	mov	r3, #8	@,
	mov	r0, r4	@, tmp135
	movw	r2, #:lower16:.LC41	@,
	movt	r2, #:upper16:.LC41	@,
	bl	snprintf	@
	mov	r0, r4	@, tmp135
	strb	r5, [fp, #-33]	@ tmp137, name
	bl	vfmw_proc_destroy	@
	mov	r1, #16	@,
	mov	r3, #9	@,
	mov	r0, r4	@, tmp135
	movw	r2, #:lower16:.LC41	@,
	movt	r2, #:upper16:.LC41	@,
	bl	snprintf	@
	mov	r0, r4	@, tmp135
	strb	r5, [fp, #-33]	@ tmp137, name
	bl	vfmw_proc_destroy	@
	mov	r1, #16	@,
	mov	r3, #10	@,
	mov	r0, r4	@, tmp135
	movw	r2, #:lower16:.LC41	@,
	movt	r2, #:upper16:.LC41	@,
	bl	snprintf	@
	mov	r0, r4	@, tmp135
	strb	r5, [fp, #-33]	@ tmp137, name
	bl	vfmw_proc_destroy	@
	mov	r1, #16	@,
	mov	r3, #11	@,
	mov	r0, r4	@, tmp135
	movw	r2, #:lower16:.LC41	@,
	movt	r2, #:upper16:.LC41	@,
	bl	snprintf	@
	mov	r0, r4	@, tmp135
	strb	r5, [fp, #-33]	@ tmp137, name
	bl	vfmw_proc_destroy	@
	mov	r1, #16	@,
	mov	r3, #12	@,
	mov	r0, r4	@, tmp135
	movw	r2, #:lower16:.LC41	@,
	movt	r2, #:upper16:.LC41	@,
	bl	snprintf	@
	mov	r0, r4	@, tmp135
	strb	r5, [fp, #-33]	@ tmp137, name
	bl	vfmw_proc_destroy	@
	mov	r1, #16	@,
	mov	r3, #13	@,
	mov	r0, r4	@, tmp135
	movw	r2, #:lower16:.LC41	@,
	movt	r2, #:upper16:.LC41	@,
	bl	snprintf	@
	mov	r0, r4	@, tmp135
	strb	r5, [fp, #-33]	@ tmp137, name
	bl	vfmw_proc_destroy	@
	mov	r1, #16	@,
	mov	r3, #14	@,
	mov	r0, r4	@, tmp135
	movw	r2, #:lower16:.LC41	@,
	movt	r2, #:upper16:.LC41	@,
	bl	snprintf	@
	mov	r0, r4	@, tmp135
	strb	r5, [fp, #-33]	@ tmp137, name
	bl	vfmw_proc_destroy	@
	mov	r3, #15	@,
	mov	r1, #16	@,
	mov	r0, r4	@, tmp135
	movw	r2, #:lower16:.LC41	@,
	movt	r2, #:upper16:.LC41	@,
	bl	snprintf	@
	mov	r0, r4	@, tmp135
	strb	r5, [fp, #-33]	@ tmp137, name
	bl	vfmw_proc_destroy	@
	movw	r0, #:lower16:.LC42	@,
	movt	r0, #:upper16:.LC42	@,
	bl	vfmw_proc_destroy	@
	movw	r0, #:lower16:.LC43	@,
	movt	r0, #:upper16:.LC43	@,
	bl	vfmw_proc_destroy	@
	movw	r0, #:lower16:.LC44	@,
	movt	r0, #:upper16:.LC44	@,
	bl	vfmw_proc_destroy	@
	movw	r0, #:lower16:.LC45	@,
	movt	r0, #:upper16:.LC45	@,
	bl	vfmw_proc_destroy	@
	movw	r0, #:lower16:.LC46	@,
	movt	r0, #:upper16:.LC46	@,
	bl	vfmw_proc_destroy	@
	movw	r0, #:lower16:.LC47	@,
	movt	r0, #:upper16:.LC47	@,
	bl	vfmw_proc_destroy	@
	movw	r0, #:lower16:.LC48	@,
	movt	r0, #:upper16:.LC48	@,
	bl	vfmw_proc_destroy	@
	ldr	r2, [fp, #-32]	@ D.42954, D.42954
	ldr	r3, [r6, #0]	@ __stack_chk_guard, __stack_chk_guard
	cmp	r2, r3	@ D.42954, __stack_chk_guard
	bne	.L433	@,
	sub	sp, fp, #24
	ldmfd	sp, {r4, r5, r6, fp, sp, pc}
.L433:
	bl	__stack_chk_fail	@
	.fnend
	.size	vfmw_proc_exit, .-vfmw_proc_exit
	.align	2
	.global	ChanCtx_Init
	.type	ChanCtx_Init, %function
ChanCtx_Init:
	.fnstart
.LFB1517:
	@ args = 0, pretend = 0, frame = 0
	@ frame_needed = 1, uses_anonymous_args = 0
	.movsp ip
	mov	ip, sp	@,
	stmfd	sp!, {r3, r4, fp, ip, lr, pc}	@,
	.pad #4
	.save {r3, r4, fp, ip, lr}
	.setfp fp, ip, #-4
	sub	fp, ip, #4	@,,
	push	{lr}
	bl	__gnu_mcount_nc
	movw	r4, #:lower16:g_ChanCtx	@ tmp133,
	movt	r4, #:upper16:g_ChanCtx	@ tmp133,
	mov	r1, #192	@,
	mov	r0, r4	@, tmp133
	bl	__memzero	@
	mvn	r3, #0	@ tmp135,
	str	r3, [r4, #124]	@ tmp135, g_ChanCtx.ChanIdTabByPrior
	str	r3, [r4, #64]	@ tmp135, g_ChanCtx.ChanIdTabByPrior
	str	r3, [r4, #68]	@ tmp135, g_ChanCtx.ChanIdTabByPrior
	str	r3, [r4, #72]	@ tmp135, g_ChanCtx.ChanIdTabByPrior
	str	r3, [r4, #76]	@ tmp135, g_ChanCtx.ChanIdTabByPrior
	str	r3, [r4, #80]	@ tmp135, g_ChanCtx.ChanIdTabByPrior
	str	r3, [r4, #84]	@ tmp135, g_ChanCtx.ChanIdTabByPrior
	str	r3, [r4, #88]	@ tmp135, g_ChanCtx.ChanIdTabByPrior
	str	r3, [r4, #92]	@ tmp135, g_ChanCtx.ChanIdTabByPrior
	str	r3, [r4, #96]	@ tmp135, g_ChanCtx.ChanIdTabByPrior
	str	r3, [r4, #100]	@ tmp135, g_ChanCtx.ChanIdTabByPrior
	str	r3, [r4, #104]	@ tmp135, g_ChanCtx.ChanIdTabByPrior
	str	r3, [r4, #108]	@ tmp135, g_ChanCtx.ChanIdTabByPrior
	str	r3, [r4, #112]	@ tmp135, g_ChanCtx.ChanIdTabByPrior
	str	r3, [r4, #116]	@ tmp135, g_ChanCtx.ChanIdTabByPrior
	str	r3, [r4, #120]	@ tmp135, g_ChanCtx.ChanIdTabByPrior
	ldmfd	sp, {r3, r4, fp, sp, pc}	@
	.fnend
	.size	ChanCtx_Init, .-ChanCtx_Init
	.align	2
	.global	vfmw_proc_create
	.type	vfmw_proc_create, %function
vfmw_proc_create:
	.fnstart
.LFB1627:
	@ args = 0, pretend = 0, frame = 0
	@ frame_needed = 1, uses_anonymous_args = 0
	.movsp ip
	mov	ip, sp	@,
	stmfd	sp!, {r4, r5, r6, r7, r8, sl, fp, ip, lr, pc}	@,
	.pad #4
	.save {r4, r5, r6, r7, r8, sl, fp, ip, lr}
	.setfp fp, ip, #-4
	sub	fp, ip, #4	@,,
	.pad #8
	sub	sp, sp, #8	@,,
	push	{lr}
	bl	__gnu_mcount_nc
	ldr	r3, .L451	@ tmp189,
	mov	sl, r2	@ write, write
	mov	r7, r0	@ proc_name, proc_name
	mov	r8, r1	@ read, read
	mov	r5, #0	@ i,
	mov	r2, r3	@ ivtmp.1996, tmp189
	b	.L440	@
.L437:
	ldr	r2, [r1, #16]	@ <variable>.read, <variable>.read
	add	r5, r5, #1	@ i, i,
	cmp	r2, #0	@ <variable>.read,
	mov	r2, r5	@ tmp190, i
	beq	.L449	@,
.L444:
	add	r5, r2, #1	@ i, tmp190,
	add	r2, r1, #24	@ ivtmp.1996, tmp191,
	cmp	r5, #32	@ i,
	beq	.L438	@,
.L440:
	ldr	r0, [r2, #16]	@ <variable>.read, <variable>.read
	add	r1, r2, #24	@ tmp191, ivtmp.1996,
	cmp	r0, #0	@ <variable>.read,
	bne	.L437	@,
	ldr	r6, [r2, #20]	@ <variable>.write, <variable>.write
	cmp	r6, #0	@ <variable>.write,
	bne	.L437	@,
.L448:
	add	r4, r5, r5, asl #1	@, tmp181, i, i,
	mov	r1, r7	@, proc_name
	mov	r2, #16	@,
	add	r4, r3, r4, asl #3	@, proc, tmp189, tmp181,
	mov	r0, r4	@, proc
	bl	strncpy	@
	cmp	r5, #31	@ i,
	strb	r6, [r4, #15]	@ <variable>.write, <variable>.proc_name
	str	r8, [r4, #16]	@ read, <variable>.read
	str	sl, [r4, #20]	@ write, <variable>.write
	bls	.L450	@,
.L438:
	mvn	r0, #0	@ D.41545,
.L441:
	sub	sp, fp, #36
	ldmfd	sp, {r4, r5, r6, r7, r8, sl, fp, sp, pc}
.L449:
	ldr	r6, [r1, #20]	@ <variable>.write, <variable>.write
	cmp	r6, #0	@ <variable>.write,
	bne	.L444	@,
	b	.L448	@
.L450:
	mov	r0, r7	@, proc_name
	mov	r1, #420	@,
	mov	r2, #0	@,
	ldr	r3, .L451+4	@,
	str	r4, [sp, #0]	@ proc,
	bl	proc_create_data	@
	cmp	r0, #0	@,
	movne	r0, #0	@ D.41545,
	bne	.L441	@,
	b	.L438	@
.L452:
	.align	2
.L451:
	.word	.LANCHOR0+268
	.word	.LANCHOR1+72
	.fnend
	.size	vfmw_proc_create, .-vfmw_proc_create
	.align	2
	.global	vfmw_proc_init
	.type	vfmw_proc_init, %function
vfmw_proc_init:
	.fnstart
.LFB1629:
	@ args = 0, pretend = 0, frame = 24
	@ frame_needed = 1, uses_anonymous_args = 0
	.movsp ip
	mov	ip, sp	@,
	stmfd	sp!, {r4, r5, r6, fp, ip, lr, pc}	@,
	.pad #4
	.save {r4, r5, r6, fp, ip, lr}
	.setfp fp, ip, #-4
	sub	fp, ip, #4	@,,
	.pad #28
	sub	sp, sp, #28	@,,
	push	{lr}
	bl	__gnu_mcount_nc
	movw	r5, #:lower16:__stack_chk_guard	@ tmp298,
	movt	r5, #:upper16:__stack_chk_guard	@ tmp298,
	sub	r4, fp, #48	@ tmp301,,
	mov	r1, #16	@,
	mov	r3, #0	@,
	ldr	ip, [r5, #0]	@ __stack_chk_guard, __stack_chk_guard
	mov	r0, r4	@, tmp301
	movw	r2, #:lower16:.LC41	@,
	movt	r2, #:upper16:.LC41	@,
	str	ip, [fp, #-32]	@ __stack_chk_guard, D.43062
	bl	snprintf	@
	mov	r0, r4	@, tmp301
	movw	r1, #:lower16:vfmw_read_proc_info	@,
	movw	r2, #:lower16:vfmw_write_proc	@,
	movt	r1, #:upper16:vfmw_read_proc_info	@,
	movt	r2, #:upper16:vfmw_write_proc	@,
	mov	r3, #0	@ tmp162,
	strb	r3, [fp, #-33]	@ tmp162, name
	bl	vfmw_proc_create	@
	subs	r6, r0, #0	@ ret.2028,
	bne	.L454	@,
	mov	r1, #16	@,
	mov	r3, #1	@,
	mov	r0, r4	@, tmp301
	movw	r2, #:lower16:.LC41	@,
	movt	r2, #:upper16:.LC41	@,
	bl	snprintf	@
	mov	r0, r4	@, tmp301
	movw	r1, #:lower16:vfmw_read_proc_info	@,
	movw	r2, #:lower16:vfmw_write_proc	@,
	movt	r1, #:upper16:vfmw_read_proc_info	@,
	movt	r2, #:upper16:vfmw_write_proc	@,
	strb	r6, [fp, #-33]	@ ret.2028, name
	bl	vfmw_proc_create	@
	subs	r6, r0, #0	@ ret.2029,
	bne	.L454	@,
	mov	r1, #16	@,
	mov	r3, #2	@,
	mov	r0, r4	@, tmp301
	movw	r2, #:lower16:.LC41	@,
	movt	r2, #:upper16:.LC41	@,
	bl	snprintf	@
	mov	r0, r4	@, tmp301
	movw	r1, #:lower16:vfmw_read_proc_info	@,
	movw	r2, #:lower16:vfmw_write_proc	@,
	movt	r1, #:upper16:vfmw_read_proc_info	@,
	movt	r2, #:upper16:vfmw_write_proc	@,
	strb	r6, [fp, #-33]	@ ret.2029, name
	bl	vfmw_proc_create	@
	subs	r6, r0, #0	@ ret.2030,
	bne	.L454	@,
	mov	r1, #16	@,
	mov	r3, #3	@,
	mov	r0, r4	@, tmp301
	movw	r2, #:lower16:.LC41	@,
	movt	r2, #:upper16:.LC41	@,
	bl	snprintf	@
	mov	r0, r4	@, tmp301
	movw	r1, #:lower16:vfmw_read_proc_info	@,
	movw	r2, #:lower16:vfmw_write_proc	@,
	movt	r1, #:upper16:vfmw_read_proc_info	@,
	movt	r2, #:upper16:vfmw_write_proc	@,
	strb	r6, [fp, #-33]	@ ret.2030, name
	bl	vfmw_proc_create	@
	subs	r6, r0, #0	@ ret.2031,
	bne	.L454	@,
	mov	r1, #16	@,
	mov	r3, #4	@,
	mov	r0, r4	@, tmp301
	movw	r2, #:lower16:.LC41	@,
	movt	r2, #:upper16:.LC41	@,
	bl	snprintf	@
	mov	r0, r4	@, tmp301
	movw	r1, #:lower16:vfmw_read_proc_info	@,
	movw	r2, #:lower16:vfmw_write_proc	@,
	movt	r1, #:upper16:vfmw_read_proc_info	@,
	movt	r2, #:upper16:vfmw_write_proc	@,
	strb	r6, [fp, #-33]	@ ret.2031, name
	bl	vfmw_proc_create	@
	subs	r6, r0, #0	@ ret.2032,
	bne	.L454	@,
	mov	r1, #16	@,
	mov	r3, #5	@,
	mov	r0, r4	@, tmp301
	movw	r2, #:lower16:.LC41	@,
	movt	r2, #:upper16:.LC41	@,
	bl	snprintf	@
	mov	r0, r4	@, tmp301
	movw	r1, #:lower16:vfmw_read_proc_info	@,
	movw	r2, #:lower16:vfmw_write_proc	@,
	movt	r1, #:upper16:vfmw_read_proc_info	@,
	movt	r2, #:upper16:vfmw_write_proc	@,
	strb	r6, [fp, #-33]	@ ret.2032, name
	bl	vfmw_proc_create	@
	subs	r6, r0, #0	@ ret.2033,
	bne	.L454	@,
	mov	r1, #16	@,
	mov	r3, #6	@,
	mov	r0, r4	@, tmp301
	movw	r2, #:lower16:.LC41	@,
	movt	r2, #:upper16:.LC41	@,
	bl	snprintf	@
	mov	r0, r4	@, tmp301
	movw	r1, #:lower16:vfmw_read_proc_info	@,
	movw	r2, #:lower16:vfmw_write_proc	@,
	movt	r1, #:upper16:vfmw_read_proc_info	@,
	movt	r2, #:upper16:vfmw_write_proc	@,
	strb	r6, [fp, #-33]	@ ret.2033, name
	bl	vfmw_proc_create	@
	subs	r6, r0, #0	@ ret.2034,
	bne	.L454	@,
	mov	r1, #16	@,
	mov	r3, #7	@,
	mov	r0, r4	@, tmp301
	movw	r2, #:lower16:.LC41	@,
	movt	r2, #:upper16:.LC41	@,
	bl	snprintf	@
	mov	r0, r4	@, tmp301
	movw	r1, #:lower16:vfmw_read_proc_info	@,
	movw	r2, #:lower16:vfmw_write_proc	@,
	movt	r1, #:upper16:vfmw_read_proc_info	@,
	movt	r2, #:upper16:vfmw_write_proc	@,
	strb	r6, [fp, #-33]	@ ret.2034, name
	bl	vfmw_proc_create	@
	subs	r6, r0, #0	@ ret.2035,
	bne	.L454	@,
	mov	r1, #16	@,
	mov	r3, #8	@,
	mov	r0, r4	@, tmp301
	movw	r2, #:lower16:.LC41	@,
	movt	r2, #:upper16:.LC41	@,
	bl	snprintf	@
	mov	r0, r4	@, tmp301
	movw	r1, #:lower16:vfmw_read_proc_info	@,
	movw	r2, #:lower16:vfmw_write_proc	@,
	movt	r1, #:upper16:vfmw_read_proc_info	@,
	movt	r2, #:upper16:vfmw_write_proc	@,
	strb	r6, [fp, #-33]	@ ret.2035, name
	bl	vfmw_proc_create	@
	subs	r6, r0, #0	@ ret.2036,
	bne	.L454	@,
	mov	r1, #16	@,
	mov	r3, #9	@,
	mov	r0, r4	@, tmp301
	movw	r2, #:lower16:.LC41	@,
	movt	r2, #:upper16:.LC41	@,
	bl	snprintf	@
	mov	r0, r4	@, tmp301
	movw	r1, #:lower16:vfmw_read_proc_info	@,
	movw	r2, #:lower16:vfmw_write_proc	@,
	movt	r1, #:upper16:vfmw_read_proc_info	@,
	movt	r2, #:upper16:vfmw_write_proc	@,
	strb	r6, [fp, #-33]	@ ret.2036, name
	bl	vfmw_proc_create	@
	cmp	r0, #0	@,
	bne	.L454	@,
	mov	r1, #16	@,
	mov	r3, #10	@,
	mov	r0, r4	@, tmp301
	movw	r2, #:lower16:.LC41	@,
	movt	r2, #:upper16:.LC41	@,
	mov	r6, #0	@ tmp232,
	bl	snprintf	@
	mov	r0, r4	@, tmp301
	movw	r1, #:lower16:vfmw_read_proc_info	@,
	movw	r2, #:lower16:vfmw_write_proc	@,
	movt	r1, #:upper16:vfmw_read_proc_info	@,
	movt	r2, #:upper16:vfmw_write_proc	@,
	strb	r6, [fp, #-33]	@ tmp232, name
	bl	vfmw_proc_create	@
	subs	r6, r0, #0	@ ret.2038,
	bne	.L454	@,
	mov	r1, #16	@,
	mov	r3, #11	@,
	mov	r0, r4	@, tmp301
	movw	r2, #:lower16:.LC41	@,
	movt	r2, #:upper16:.LC41	@,
	bl	snprintf	@
	mov	r0, r4	@, tmp301
	movw	r1, #:lower16:vfmw_read_proc_info	@,
	movw	r2, #:lower16:vfmw_write_proc	@,
	movt	r1, #:upper16:vfmw_read_proc_info	@,
	movt	r2, #:upper16:vfmw_write_proc	@,
	strb	r6, [fp, #-33]	@ ret.2038, name
	bl	vfmw_proc_create	@
	subs	r6, r0, #0	@ ret.2039,
	bne	.L454	@,
	mov	r1, #16	@,
	mov	r3, #12	@,
	mov	r0, r4	@, tmp301
	movw	r2, #:lower16:.LC41	@,
	movt	r2, #:upper16:.LC41	@,
	bl	snprintf	@
	mov	r0, r4	@, tmp301
	movw	r1, #:lower16:vfmw_read_proc_info	@,
	movw	r2, #:lower16:vfmw_write_proc	@,
	movt	r1, #:upper16:vfmw_read_proc_info	@,
	movt	r2, #:upper16:vfmw_write_proc	@,
	strb	r6, [fp, #-33]	@ ret.2039, name
	bl	vfmw_proc_create	@
	subs	r6, r0, #0	@ ret.2040,
	bne	.L454	@,
	mov	r1, #16	@,
	mov	r3, #13	@,
	mov	r0, r4	@, tmp301
	movw	r2, #:lower16:.LC41	@,
	movt	r2, #:upper16:.LC41	@,
	bl	snprintf	@
	mov	r0, r4	@, tmp301
	movw	r1, #:lower16:vfmw_read_proc_info	@,
	movw	r2, #:lower16:vfmw_write_proc	@,
	movt	r1, #:upper16:vfmw_read_proc_info	@,
	movt	r2, #:upper16:vfmw_write_proc	@,
	strb	r6, [fp, #-33]	@ ret.2040, name
	bl	vfmw_proc_create	@
	subs	r6, r0, #0	@ ret.2041,
	bne	.L454	@,
	mov	r1, #16	@,
	mov	r3, #14	@,
	mov	r0, r4	@, tmp301
	movw	r2, #:lower16:.LC41	@,
	movt	r2, #:upper16:.LC41	@,
	bl	snprintf	@
	mov	r0, r4	@, tmp301
	movw	r1, #:lower16:vfmw_read_proc_info	@,
	movw	r2, #:lower16:vfmw_write_proc	@,
	movt	r1, #:upper16:vfmw_read_proc_info	@,
	movt	r2, #:upper16:vfmw_write_proc	@,
	strb	r6, [fp, #-33]	@ ret.2041, name
	bl	vfmw_proc_create	@
	subs	r6, r0, #0	@ ret.2042,
	bne	.L454	@,
	mov	r1, #16	@,
	mov	r3, #15	@,
	mov	r0, r4	@, tmp301
	movw	r2, #:lower16:.LC41	@,
	movt	r2, #:upper16:.LC41	@,
	bl	snprintf	@
	mov	r0, r4	@, tmp301
	movw	r1, #:lower16:vfmw_read_proc_info	@,
	movw	r2, #:lower16:vfmw_write_proc	@,
	movt	r1, #:upper16:vfmw_read_proc_info	@,
	movt	r2, #:upper16:vfmw_write_proc	@,
	strb	r6, [fp, #-33]	@ ret.2042, name
	bl	vfmw_proc_create	@
	cmp	r0, #0	@,
	bne	.L454	@,
	movw	r0, #:lower16:.LC42	@,
	movw	r1, #:lower16:vfmw_read_proc	@,
	movt	r0, #:upper16:.LC42	@,
	movt	r1, #:upper16:vfmw_read_proc	@,
	movw	r2, #:lower16:vfmw_write_proc	@,
	movt	r2, #:upper16:vfmw_write_proc	@,
	bl	vfmw_proc_create	@
	cmp	r0, #0	@,
	beq	.L458	@,
.L454:
	mvn	r0, #0	@ D.41585,
.L455:
	ldr	r2, [fp, #-32]	@ D.43062, D.43062
	ldr	r1, [r5, #0]	@ __stack_chk_guard, __stack_chk_guard
	cmp	r2, r1	@ D.43062, __stack_chk_guard
	bne	.L459	@,
	sub	sp, fp, #24
	ldmfd	sp, {r4, r5, r6, fp, sp, pc}
.L458:
	movw	r0, #:lower16:.LC43	@,
	movw	r1, #:lower16:vfmw_read_proc_dbg	@,
	movt	r0, #:upper16:.LC43	@,
	movt	r1, #:upper16:vfmw_read_proc_dbg	@,
	movw	r2, #:lower16:vfmw_write_proc	@,
	movt	r2, #:upper16:vfmw_write_proc	@,
	bl	vfmw_proc_create	@
	cmp	r0, #0	@,
	bne	.L454	@,
	movw	r0, #:lower16:.LC44	@,
	movw	r1, #:lower16:vfmw_read_proc_dbg	@,
	movt	r0, #:upper16:.LC44	@,
	movt	r1, #:upper16:vfmw_read_proc_dbg	@,
	movw	r2, #:lower16:vfmw_write_proc	@,
	movt	r2, #:upper16:vfmw_write_proc	@,
	bl	vfmw_proc_create	@
	cmp	r0, #0	@,
	bne	.L454	@,
	movw	r0, #:lower16:.LC45	@,
	movw	r1, #:lower16:vfmw_read_proc_scd	@,
	movt	r0, #:upper16:.LC45	@,
	movt	r1, #:upper16:vfmw_read_proc_scd	@,
	movw	r2, #:lower16:vfmw_write_proc	@,
	movt	r2, #:upper16:vfmw_write_proc	@,
	bl	vfmw_proc_create	@
	cmp	r0, #0	@,
	bne	.L454	@,
	movw	r0, #:lower16:.LC46	@,
	movw	r1, #:lower16:vfmw_read_proc_dec	@,
	movt	r0, #:upper16:.LC46	@,
	movt	r1, #:upper16:vfmw_read_proc_dec	@,
	movw	r2, #:lower16:vfmw_write_proc	@,
	movt	r2, #:upper16:vfmw_write_proc	@,
	bl	vfmw_proc_create	@
	cmp	r0, #0	@,
	bne	.L454	@,
	movw	r0, #:lower16:.LC47	@,
	movw	r1, #:lower16:vfmw_read_proc_lwd	@,
	movt	r0, #:upper16:.LC47	@,
	movt	r1, #:upper16:vfmw_read_proc_lwd	@,
	movw	r2, #:lower16:vfmw_write_proc	@,
	movt	r2, #:upper16:vfmw_write_proc	@,
	bl	vfmw_proc_create	@
	cmp	r0, #0	@,
	bne	.L454	@,
	movw	r0, #:lower16:.LC48	@,
	movw	r1, #:lower16:vfmw_read_proc_chn	@,
	movt	r0, #:upper16:.LC48	@,
	movt	r1, #:upper16:vfmw_read_proc_chn	@,
	movw	r2, #:lower16:vfmw_write_proc	@,
	movt	r2, #:upper16:vfmw_write_proc	@,
	bl	vfmw_proc_create	@
	cmp	r0, #0	@ ret.2027
	beq	.L455	@,
	b	.L454	@
.L459:
	bl	__stack_chk_fail	@
	.fnend
	.size	vfmw_proc_init, .-vfmw_proc_init
	.align	2
	.type	vfmw_proc_open, %function
vfmw_proc_open:
	.fnstart
.LFB1625:
	@ args = 0, pretend = 0, frame = 0
	@ frame_needed = 1, uses_anonymous_args = 0
	.movsp ip
	mov	ip, sp	@,
	stmfd	sp!, {r3, r4, fp, ip, lr, pc}	@,
	.pad #4
	.save {r3, r4, fp, ip, lr}
	.setfp fp, ip, #-4
	sub	fp, ip, #4	@,,
	push	{lr}
	bl	__gnu_mcount_nc
	mov	r4, r1	@ file, file
	bl	PDE_DATA	@
	subs	r2, r0, #0	@ D.41497,
	bne	.L464	@,
.L461:
	mvn	r0, #37	@ D.41500,
	ldmfd	sp, {r3, r4, fp, sp, pc}	@
.L464:
	ldr	r1, [r2, #16]	@ D.41501, <variable>.read
	cmp	r1, #0	@ D.41501,
	beq	.L461	@,
	mov	r0, r4	@, file
	bl	single_open	@
	ldmfd	sp, {r3, r4, fp, sp, pc}	@
	.fnend
	.size	vfmw_proc_open, .-vfmw_proc_open
	.align	2
	.global	vfmw_read_proc_lwd
	.type	vfmw_read_proc_lwd, %function
vfmw_read_proc_lwd:
	.fnstart
.LFB1622:
	@ args = 0, pretend = 0, frame = 0
	@ frame_needed = 1, uses_anonymous_args = 0
	.movsp ip
	mov	ip, sp	@,
	stmfd	sp!, {r3, r4, r5, r6, r7, r8, fp, ip, lr, pc}	@,
	.pad #4
	.save {r3, r4, r5, r6, r7, r8, fp, ip, lr}
	.setfp fp, ip, #-4
	sub	fp, ip, #4	@,,
	push	{lr}
	bl	__gnu_mcount_nc
	movw	r3, #:lower16:.LANCHOR0	@ tmp137,
	movt	r3, #:upper16:.LANCHOR0	@ tmp137,
	movw	r7, #:lower16:g_stLowdlyInfo	@ tmp143,
	movw	r4, #:lower16:.LC50	@ tmp145,
	movt	r7, #:upper16:g_stLowdlyInfo	@ tmp143,
	ldr	r8, [r3, #1036]	@ g_CurProcChan, g_CurProcChan
	movt	r4, #:upper16:.LC50	@ tmp145,
	mov	r5, r0	@ p, p
	movw	r1, #:lower16:.LC49	@,
	movt	r1, #:upper16:.LC49	@,
	rsb	r8, r8, r8, asl #3	@, tmp141, g_CurProcChan, g_CurProcChan,
	bl	seq_printf	@
	mov	r1, r4	@, tmp145
	mov	r0, r5	@, p
	add	r6, r7, r8, asl #3	@, pLwd, tmp143, tmp141,
	ldr	r3, [r7, r8, asl #3]	@, <variable>.lowdly_enable
	movw	r2, #:lower16:.LC51	@,
	movt	r2, #:upper16:.LC51	@,
	bl	seq_printf	@
	mov	r1, r4	@, tmp145
	ldr	r3, [r6, #4]	@, <variable>.chan_id
	mov	r0, r5	@, p
	movw	r2, #:lower16:.LC52	@,
	movt	r2, #:upper16:.LC52	@,
	bl	seq_printf	@
	mov	r1, r4	@, tmp145
	ldr	r3, [r6, #20]	@, <variable>.scd_count
	mov	r0, r5	@, p
	movw	r2, #:lower16:.LC53	@,
	movt	r2, #:upper16:.LC53	@,
	bl	seq_printf	@
	mov	r1, r4	@, tmp145
	ldr	r3, [r6, #32]	@, <variable>.vdh_count
	mov	r0, r5	@, p
	movw	r2, #:lower16:.LC54	@,
	movt	r2, #:upper16:.LC54	@,
	bl	seq_printf	@
	mov	r0, r5	@, p
	movw	r1, #:lower16:.LC55	@,
	movt	r1, #:upper16:.LC55	@,
	bl	seq_printf	@
	mov	r0, #0	@,
	ldmfd	sp, {r3, r4, r5, r6, r7, r8, fp, sp, pc}	@
	.fnend
	.size	vfmw_read_proc_lwd, .-vfmw_read_proc_lwd
	.align	2
	.global	vfmw_read_proc_chn
	.type	vfmw_read_proc_chn, %function
vfmw_read_proc_chn:
	.fnstart
.LFB1620:
	@ args = 0, pretend = 0, frame = 0
	@ frame_needed = 1, uses_anonymous_args = 0
	.movsp ip
	mov	ip, sp	@,
	stmfd	sp!, {r4, r5, r6, fp, ip, lr, pc}	@,
	.pad #4
	.save {r4, r5, r6, fp, ip, lr}
	.setfp fp, ip, #-4
	sub	fp, ip, #4	@,,
	.pad #12
	sub	sp, sp, #12	@,,
	push	{lr}
	bl	__gnu_mcount_nc
	movw	r1, #:lower16:.LC56	@,
	mov	r4, r0	@ p, p
	movt	r1, #:upper16:.LC56	@,
	movw	r6, #:lower16:g_ChanCtx	@ tmp155,
	movt	r6, #:upper16:g_ChanCtx	@ tmp155,
	bl	seq_printf	@
	mov	r0, r4	@, p
	movw	r1, #:lower16:.LC57	@,
	movt	r1, #:upper16:.LC57	@,
	bl	seq_printf	@
	ldr	r2, [r6, #128]	@ g_ChanCtx.ChanDecByVdhPlusOne, g_ChanCtx.ChanDecByVdhPlusOne
	mov	r0, r4	@, p
	movw	r1, #:lower16:.LC58	@,
	sub	r2, r2, #1	@, g_ChanCtx.ChanDecByVdhPlusOne,
	movt	r1, #:upper16:.LC58	@,
	bl	seq_printf	@
	ldr	ip, [r6, #132]	@ g_ChanCtx.ChanDecByVdhPlusOne, g_ChanCtx.ChanDecByVdhPlusOne
	mov	r0, r4	@, p
	movw	r1, #:lower16:.LC58	@,
	sub	r2, ip, #1	@, g_ChanCtx.ChanDecByVdhPlusOne,
	movt	r1, #:upper16:.LC58	@,
	bl	seq_printf	@
	ldr	r3, [r6, #136]	@ g_ChanCtx.ChanDecByVdhPlusOne, g_ChanCtx.ChanDecByVdhPlusOne
	mov	r0, r4	@, p
	movw	r1, #:lower16:.LC58	@,
	sub	r2, r3, #1	@, g_ChanCtx.ChanDecByVdhPlusOne,
	movt	r1, #:upper16:.LC58	@,
	bl	seq_printf	@
	ldr	r2, [r6, #140]	@ g_ChanCtx.ChanDecByVdhPlusOne, g_ChanCtx.ChanDecByVdhPlusOne
	mov	r0, r4	@, p
	movw	r1, #:lower16:.LC58	@,
	sub	r2, r2, #1	@, g_ChanCtx.ChanDecByVdhPlusOne,
	movt	r1, #:upper16:.LC58	@,
	bl	seq_printf	@
	ldr	ip, [r6, #144]	@ g_ChanCtx.ChanDecByVdhPlusOne, g_ChanCtx.ChanDecByVdhPlusOne
	mov	r0, r4	@, p
	movw	r1, #:lower16:.LC58	@,
	sub	r2, ip, #1	@, g_ChanCtx.ChanDecByVdhPlusOne,
	movt	r1, #:upper16:.LC58	@,
	bl	seq_printf	@
	ldr	r3, [r6, #148]	@ g_ChanCtx.ChanDecByVdhPlusOne, g_ChanCtx.ChanDecByVdhPlusOne
	mov	r0, r4	@, p
	movw	r1, #:lower16:.LC58	@,
	sub	r2, r3, #1	@, g_ChanCtx.ChanDecByVdhPlusOne,
	movt	r1, #:upper16:.LC58	@,
	bl	seq_printf	@
	ldr	r2, [r6, #152]	@ g_ChanCtx.ChanDecByVdhPlusOne, g_ChanCtx.ChanDecByVdhPlusOne
	mov	r0, r4	@, p
	movw	r1, #:lower16:.LC58	@,
	sub	r2, r2, #1	@, g_ChanCtx.ChanDecByVdhPlusOne,
	movt	r1, #:upper16:.LC58	@,
	bl	seq_printf	@
	ldr	ip, [r6, #156]	@ g_ChanCtx.ChanDecByVdhPlusOne, g_ChanCtx.ChanDecByVdhPlusOne
	mov	r0, r4	@, p
	movw	r1, #:lower16:.LC58	@,
	sub	r2, ip, #1	@, g_ChanCtx.ChanDecByVdhPlusOne,
	movt	r1, #:upper16:.LC58	@,
	bl	seq_printf	@
	ldr	r3, [r6, #160]	@ g_ChanCtx.ChanDecByVdhPlusOne, g_ChanCtx.ChanDecByVdhPlusOne
	mov	r0, r4	@, p
	movw	r1, #:lower16:.LC58	@,
	sub	r2, r3, #1	@, g_ChanCtx.ChanDecByVdhPlusOne,
	movt	r1, #:upper16:.LC58	@,
	bl	seq_printf	@
	ldr	r2, [r6, #164]	@ g_ChanCtx.ChanDecByVdhPlusOne, g_ChanCtx.ChanDecByVdhPlusOne
	mov	r0, r4	@, p
	movw	r1, #:lower16:.LC58	@,
	sub	r2, r2, #1	@, g_ChanCtx.ChanDecByVdhPlusOne,
	movt	r1, #:upper16:.LC58	@,
	bl	seq_printf	@
	ldr	ip, [r6, #168]	@ g_ChanCtx.ChanDecByVdhPlusOne, g_ChanCtx.ChanDecByVdhPlusOne
	mov	r0, r4	@, p
	movw	r1, #:lower16:.LC58	@,
	sub	r2, ip, #1	@, g_ChanCtx.ChanDecByVdhPlusOne,
	movt	r1, #:upper16:.LC58	@,
	bl	seq_printf	@
	ldr	r3, [r6, #172]	@ g_ChanCtx.ChanDecByVdhPlusOne, g_ChanCtx.ChanDecByVdhPlusOne
	mov	r0, r4	@, p
	movw	r1, #:lower16:.LC58	@,
	sub	r2, r3, #1	@, g_ChanCtx.ChanDecByVdhPlusOne,
	movt	r1, #:upper16:.LC58	@,
	bl	seq_printf	@
	ldr	r2, [r6, #176]	@ g_ChanCtx.ChanDecByVdhPlusOne, g_ChanCtx.ChanDecByVdhPlusOne
	mov	r0, r4	@, p
	movw	r1, #:lower16:.LC58	@,
	sub	r2, r2, #1	@, g_ChanCtx.ChanDecByVdhPlusOne,
	movt	r1, #:upper16:.LC58	@,
	bl	seq_printf	@
	ldr	ip, [r6, #180]	@ g_ChanCtx.ChanDecByVdhPlusOne, g_ChanCtx.ChanDecByVdhPlusOne
	mov	r0, r4	@, p
	movw	r1, #:lower16:.LC58	@,
	sub	r2, ip, #1	@, g_ChanCtx.ChanDecByVdhPlusOne,
	movt	r1, #:upper16:.LC58	@,
	bl	seq_printf	@
	ldr	r3, [r6, #184]	@ g_ChanCtx.ChanDecByVdhPlusOne, g_ChanCtx.ChanDecByVdhPlusOne
	mov	r0, r4	@, p
	movw	r1, #:lower16:.LC58	@,
	sub	r2, r3, #1	@, g_ChanCtx.ChanDecByVdhPlusOne,
	movt	r1, #:upper16:.LC58	@,
	bl	seq_printf	@
	ldr	r2, [r6, #188]	@ g_ChanCtx.ChanDecByVdhPlusOne, g_ChanCtx.ChanDecByVdhPlusOne
	mov	r0, r4	@, p
	movw	r1, #:lower16:.LC58	@,
	sub	r2, r2, #1	@, g_ChanCtx.ChanDecByVdhPlusOne,
	movt	r1, #:upper16:.LC58	@,
	bl	seq_printf	@
	mov	r0, r4	@, p
	movw	r1, #:lower16:.LC55	@,
	movt	r1, #:upper16:.LC55	@,
	bl	seq_printf	@
	mov	r0, r4	@, p
	movw	r1, #:lower16:.LC59	@,
	movt	r1, #:upper16:.LC59	@,
	bl	seq_printf	@
	ldr	r2, [r6, #64]	@, g_ChanCtx.ChanIdTabByPrior
	mov	r0, r4	@, p
	movw	r1, #:lower16:.LC58	@,
	movt	r1, #:upper16:.LC58	@,
	movw	r5, #:lower16:.LANCHOR0	@ tmp403,
	bl	seq_printf	@
	ldr	r2, [r6, #68]	@, g_ChanCtx.ChanIdTabByPrior
	mov	r0, r4	@, p
	movw	r1, #:lower16:.LC58	@,
	movt	r1, #:upper16:.LC58	@,
	movt	r5, #:upper16:.LANCHOR0	@ tmp403,
	bl	seq_printf	@
	ldr	r2, [r6, #72]	@, g_ChanCtx.ChanIdTabByPrior
	mov	r0, r4	@, p
	movw	r1, #:lower16:.LC58	@,
	movt	r1, #:upper16:.LC58	@,
	bl	seq_printf	@
	ldr	r2, [r6, #76]	@, g_ChanCtx.ChanIdTabByPrior
	mov	r0, r4	@, p
	movw	r1, #:lower16:.LC58	@,
	movt	r1, #:upper16:.LC58	@,
	bl	seq_printf	@
	ldr	r2, [r6, #80]	@, g_ChanCtx.ChanIdTabByPrior
	mov	r0, r4	@, p
	movw	r1, #:lower16:.LC58	@,
	movt	r1, #:upper16:.LC58	@,
	bl	seq_printf	@
	ldr	r2, [r6, #84]	@, g_ChanCtx.ChanIdTabByPrior
	mov	r0, r4	@, p
	movw	r1, #:lower16:.LC58	@,
	movt	r1, #:upper16:.LC58	@,
	bl	seq_printf	@
	ldr	r2, [r6, #88]	@, g_ChanCtx.ChanIdTabByPrior
	mov	r0, r4	@, p
	movw	r1, #:lower16:.LC58	@,
	movt	r1, #:upper16:.LC58	@,
	bl	seq_printf	@
	ldr	r2, [r6, #92]	@, g_ChanCtx.ChanIdTabByPrior
	mov	r0, r4	@, p
	movw	r1, #:lower16:.LC58	@,
	movt	r1, #:upper16:.LC58	@,
	bl	seq_printf	@
	ldr	r2, [r6, #96]	@, g_ChanCtx.ChanIdTabByPrior
	mov	r0, r4	@, p
	movw	r1, #:lower16:.LC58	@,
	movt	r1, #:upper16:.LC58	@,
	bl	seq_printf	@
	ldr	r2, [r6, #100]	@, g_ChanCtx.ChanIdTabByPrior
	mov	r0, r4	@, p
	movw	r1, #:lower16:.LC58	@,
	movt	r1, #:upper16:.LC58	@,
	bl	seq_printf	@
	ldr	r2, [r6, #104]	@, g_ChanCtx.ChanIdTabByPrior
	mov	r0, r4	@, p
	movw	r1, #:lower16:.LC58	@,
	movt	r1, #:upper16:.LC58	@,
	bl	seq_printf	@
	ldr	r2, [r6, #108]	@, g_ChanCtx.ChanIdTabByPrior
	mov	r0, r4	@, p
	movw	r1, #:lower16:.LC58	@,
	movt	r1, #:upper16:.LC58	@,
	bl	seq_printf	@
	ldr	r2, [r6, #112]	@, g_ChanCtx.ChanIdTabByPrior
	mov	r0, r4	@, p
	movw	r1, #:lower16:.LC58	@,
	movt	r1, #:upper16:.LC58	@,
	bl	seq_printf	@
	ldr	r2, [r6, #116]	@, g_ChanCtx.ChanIdTabByPrior
	mov	r0, r4	@, p
	movw	r1, #:lower16:.LC58	@,
	movt	r1, #:upper16:.LC58	@,
	bl	seq_printf	@
	ldr	r2, [r6, #120]	@, g_ChanCtx.ChanIdTabByPrior
	mov	r0, r4	@, p
	movw	r1, #:lower16:.LC58	@,
	movt	r1, #:upper16:.LC58	@,
	bl	seq_printf	@
	ldr	r2, [r6, #124]	@, g_ChanCtx.ChanIdTabByPrior
	mov	r0, r4	@, p
	movw	r1, #:lower16:.LC58	@,
	movt	r1, #:upper16:.LC58	@,
	bl	seq_printf	@
	mov	r0, r4	@, p
	movw	r1, #:lower16:.LC55	@,
	movt	r1, #:upper16:.LC55	@,
	bl	seq_printf	@
	mov	r0, r4	@, p
	movw	r1, #:lower16:.LC60	@,
	movt	r1, #:upper16:.LC60	@,
	bl	seq_printf	@
	ldr	r2, [r6, #0]	@, g_ChanCtx.PriorByChanId
	mov	r0, r4	@, p
	movw	r1, #:lower16:.LC58	@,
	movt	r1, #:upper16:.LC58	@,
	bl	seq_printf	@
	ldr	r2, [r6, #4]	@, g_ChanCtx.PriorByChanId
	mov	r0, r4	@, p
	movw	r1, #:lower16:.LC58	@,
	movt	r1, #:upper16:.LC58	@,
	bl	seq_printf	@
	ldr	r2, [r6, #8]	@, g_ChanCtx.PriorByChanId
	mov	r0, r4	@, p
	movw	r1, #:lower16:.LC58	@,
	movt	r1, #:upper16:.LC58	@,
	bl	seq_printf	@
	ldr	r2, [r6, #12]	@, g_ChanCtx.PriorByChanId
	mov	r0, r4	@, p
	movw	r1, #:lower16:.LC58	@,
	movt	r1, #:upper16:.LC58	@,
	bl	seq_printf	@
	ldr	r2, [r6, #16]	@, g_ChanCtx.PriorByChanId
	mov	r0, r4	@, p
	movw	r1, #:lower16:.LC58	@,
	movt	r1, #:upper16:.LC58	@,
	bl	seq_printf	@
	ldr	r2, [r6, #20]	@, g_ChanCtx.PriorByChanId
	mov	r0, r4	@, p
	movw	r1, #:lower16:.LC58	@,
	movt	r1, #:upper16:.LC58	@,
	bl	seq_printf	@
	ldr	r2, [r6, #24]	@, g_ChanCtx.PriorByChanId
	mov	r0, r4	@, p
	movw	r1, #:lower16:.LC58	@,
	movt	r1, #:upper16:.LC58	@,
	bl	seq_printf	@
	ldr	r2, [r6, #28]	@, g_ChanCtx.PriorByChanId
	mov	r0, r4	@, p
	movw	r1, #:lower16:.LC58	@,
	movt	r1, #:upper16:.LC58	@,
	bl	seq_printf	@
	ldr	r2, [r6, #32]	@, g_ChanCtx.PriorByChanId
	mov	r0, r4	@, p
	movw	r1, #:lower16:.LC58	@,
	movt	r1, #:upper16:.LC58	@,
	bl	seq_printf	@
	ldr	r2, [r6, #36]	@, g_ChanCtx.PriorByChanId
	mov	r0, r4	@, p
	movw	r1, #:lower16:.LC58	@,
	movt	r1, #:upper16:.LC58	@,
	bl	seq_printf	@
	ldr	r2, [r6, #40]	@, g_ChanCtx.PriorByChanId
	mov	r0, r4	@, p
	movw	r1, #:lower16:.LC58	@,
	movt	r1, #:upper16:.LC58	@,
	bl	seq_printf	@
	ldr	r2, [r6, #44]	@, g_ChanCtx.PriorByChanId
	mov	r0, r4	@, p
	movw	r1, #:lower16:.LC58	@,
	movt	r1, #:upper16:.LC58	@,
	bl	seq_printf	@
	ldr	r2, [r6, #48]	@, g_ChanCtx.PriorByChanId
	mov	r0, r4	@, p
	movw	r1, #:lower16:.LC58	@,
	movt	r1, #:upper16:.LC58	@,
	bl	seq_printf	@
	ldr	r2, [r6, #52]	@, g_ChanCtx.PriorByChanId
	mov	r0, r4	@, p
	movw	r1, #:lower16:.LC58	@,
	movt	r1, #:upper16:.LC58	@,
	bl	seq_printf	@
	ldr	r2, [r6, #56]	@, g_ChanCtx.PriorByChanId
	mov	r0, r4	@, p
	movw	r1, #:lower16:.LC58	@,
	movt	r1, #:upper16:.LC58	@,
	bl	seq_printf	@
	ldr	r2, [r6, #60]	@, g_ChanCtx.PriorByChanId
	mov	r0, r4	@, p
	movw	r1, #:lower16:.LC58	@,
	movt	r1, #:upper16:.LC58	@,
	bl	seq_printf	@
	mov	r0, r4	@, p
	movw	r1, #:lower16:.LC55	@,
	movt	r1, #:upper16:.LC55	@,
	bl	seq_printf	@
	mov	r0, r4	@, p
	movw	r1, #:lower16:.LC61	@,
	movt	r1, #:upper16:.LC61	@,
	bl	seq_printf	@
	ldr	r0, [r5, #0]	@ temp.2178, s_pstVfmwChan
	cmp	r0, #0	@ temp.2178,
	beq	.L468	@,
	ldr	lr, [r0, #20]	@ <variable>.s32Priority, <variable>.s32Priority
	movw	r1, #:lower16:.LC62	@,
	ldr	r2, [r0, #12]	@ <variable>.s32IsOpen, <variable>.s32IsOpen
	movt	r1, #:upper16:.LC62	@,
	ldr	r3, [r0, #16]	@ <variable>.s32IsRun, <variable>.s32IsRun
	mov	r0, r4	@, p
	str	lr, [sp, #0]	@ <variable>.s32Priority,
	bl	seq_printf	@
.L468:
	ldr	r0, [r5, #4]	@ temp.2182, s_pstVfmwChan
	cmp	r0, #0	@ temp.2182,
	beq	.L469	@,
	ldr	ip, [r0, #20]	@ <variable>.s32Priority, <variable>.s32Priority
	movw	r1, #:lower16:.LC62	@,
	ldr	r2, [r0, #12]	@ <variable>.s32IsOpen, <variable>.s32IsOpen
	movt	r1, #:upper16:.LC62	@,
	ldr	r3, [r0, #16]	@ <variable>.s32IsRun, <variable>.s32IsRun
	mov	r0, r4	@, p
	str	ip, [sp, #0]	@ <variable>.s32Priority,
	bl	seq_printf	@
.L469:
	ldr	r0, [r5, #8]	@ temp.2186, s_pstVfmwChan
	cmp	r0, #0	@ temp.2186,
	beq	.L470	@,
	ldr	lr, [r0, #20]	@ <variable>.s32Priority, <variable>.s32Priority
	movw	r1, #:lower16:.LC62	@,
	ldr	r2, [r0, #12]	@ <variable>.s32IsOpen, <variable>.s32IsOpen
	movt	r1, #:upper16:.LC62	@,
	ldr	r3, [r0, #16]	@ <variable>.s32IsRun, <variable>.s32IsRun
	mov	r0, r4	@, p
	str	lr, [sp, #0]	@ <variable>.s32Priority,
	bl	seq_printf	@
.L470:
	ldr	r0, [r5, #12]	@ temp.2190, s_pstVfmwChan
	cmp	r0, #0	@ temp.2190,
	beq	.L471	@,
	ldr	ip, [r0, #20]	@ <variable>.s32Priority, <variable>.s32Priority
	movw	r1, #:lower16:.LC62	@,
	ldr	r2, [r0, #12]	@ <variable>.s32IsOpen, <variable>.s32IsOpen
	movt	r1, #:upper16:.LC62	@,
	ldr	r3, [r0, #16]	@ <variable>.s32IsRun, <variable>.s32IsRun
	mov	r0, r4	@, p
	str	ip, [sp, #0]	@ <variable>.s32Priority,
	bl	seq_printf	@
.L471:
	ldr	r0, [r5, #16]	@ temp.2194, s_pstVfmwChan
	cmp	r0, #0	@ temp.2194,
	beq	.L472	@,
	ldr	lr, [r0, #20]	@ <variable>.s32Priority, <variable>.s32Priority
	movw	r1, #:lower16:.LC62	@,
	ldr	r2, [r0, #12]	@ <variable>.s32IsOpen, <variable>.s32IsOpen
	movt	r1, #:upper16:.LC62	@,
	ldr	r3, [r0, #16]	@ <variable>.s32IsRun, <variable>.s32IsRun
	mov	r0, r4	@, p
	str	lr, [sp, #0]	@ <variable>.s32Priority,
	bl	seq_printf	@
.L472:
	ldr	r0, [r5, #20]	@ temp.2198, s_pstVfmwChan
	cmp	r0, #0	@ temp.2198,
	beq	.L473	@,
	ldr	ip, [r0, #20]	@ <variable>.s32Priority, <variable>.s32Priority
	movw	r1, #:lower16:.LC62	@,
	ldr	r2, [r0, #12]	@ <variable>.s32IsOpen, <variable>.s32IsOpen
	movt	r1, #:upper16:.LC62	@,
	ldr	r3, [r0, #16]	@ <variable>.s32IsRun, <variable>.s32IsRun
	mov	r0, r4	@, p
	str	ip, [sp, #0]	@ <variable>.s32Priority,
	bl	seq_printf	@
.L473:
	ldr	r0, [r5, #24]	@ temp.2202, s_pstVfmwChan
	cmp	r0, #0	@ temp.2202,
	beq	.L474	@,
	ldr	lr, [r0, #20]	@ <variable>.s32Priority, <variable>.s32Priority
	movw	r1, #:lower16:.LC62	@,
	ldr	r2, [r0, #12]	@ <variable>.s32IsOpen, <variable>.s32IsOpen
	movt	r1, #:upper16:.LC62	@,
	ldr	r3, [r0, #16]	@ <variable>.s32IsRun, <variable>.s32IsRun
	mov	r0, r4	@, p
	str	lr, [sp, #0]	@ <variable>.s32Priority,
	bl	seq_printf	@
.L474:
	ldr	r0, [r5, #28]	@ temp.2206, s_pstVfmwChan
	cmp	r0, #0	@ temp.2206,
	beq	.L475	@,
	ldr	ip, [r0, #20]	@ <variable>.s32Priority, <variable>.s32Priority
	movw	r1, #:lower16:.LC62	@,
	ldr	r2, [r0, #12]	@ <variable>.s32IsOpen, <variable>.s32IsOpen
	movt	r1, #:upper16:.LC62	@,
	ldr	r3, [r0, #16]	@ <variable>.s32IsRun, <variable>.s32IsRun
	mov	r0, r4	@, p
	str	ip, [sp, #0]	@ <variable>.s32Priority,
	bl	seq_printf	@
.L475:
	ldr	r0, [r5, #32]	@ temp.2210, s_pstVfmwChan
	cmp	r0, #0	@ temp.2210,
	beq	.L476	@,
	ldr	lr, [r0, #20]	@ <variable>.s32Priority, <variable>.s32Priority
	movw	r1, #:lower16:.LC62	@,
	ldr	r2, [r0, #12]	@ <variable>.s32IsOpen, <variable>.s32IsOpen
	movt	r1, #:upper16:.LC62	@,
	ldr	r3, [r0, #16]	@ <variable>.s32IsRun, <variable>.s32IsRun
	mov	r0, r4	@, p
	str	lr, [sp, #0]	@ <variable>.s32Priority,
	bl	seq_printf	@
.L476:
	ldr	r0, [r5, #36]	@ temp.2214, s_pstVfmwChan
	cmp	r0, #0	@ temp.2214,
	beq	.L477	@,
	ldr	ip, [r0, #20]	@ <variable>.s32Priority, <variable>.s32Priority
	movw	r1, #:lower16:.LC62	@,
	ldr	r2, [r0, #12]	@ <variable>.s32IsOpen, <variable>.s32IsOpen
	movt	r1, #:upper16:.LC62	@,
	ldr	r3, [r0, #16]	@ <variable>.s32IsRun, <variable>.s32IsRun
	mov	r0, r4	@, p
	str	ip, [sp, #0]	@ <variable>.s32Priority,
	bl	seq_printf	@
.L477:
	ldr	r0, [r5, #40]	@ temp.2218, s_pstVfmwChan
	cmp	r0, #0	@ temp.2218,
	beq	.L478	@,
	ldr	lr, [r0, #20]	@ <variable>.s32Priority, <variable>.s32Priority
	movw	r1, #:lower16:.LC62	@,
	ldr	r2, [r0, #12]	@ <variable>.s32IsOpen, <variable>.s32IsOpen
	movt	r1, #:upper16:.LC62	@,
	ldr	r3, [r0, #16]	@ <variable>.s32IsRun, <variable>.s32IsRun
	mov	r0, r4	@, p
	str	lr, [sp, #0]	@ <variable>.s32Priority,
	bl	seq_printf	@
.L478:
	ldr	r0, [r5, #44]	@ temp.2222, s_pstVfmwChan
	cmp	r0, #0	@ temp.2222,
	beq	.L479	@,
	ldr	ip, [r0, #20]	@ <variable>.s32Priority, <variable>.s32Priority
	movw	r1, #:lower16:.LC62	@,
	ldr	r2, [r0, #12]	@ <variable>.s32IsOpen, <variable>.s32IsOpen
	movt	r1, #:upper16:.LC62	@,
	ldr	r3, [r0, #16]	@ <variable>.s32IsRun, <variable>.s32IsRun
	mov	r0, r4	@, p
	str	ip, [sp, #0]	@ <variable>.s32Priority,
	bl	seq_printf	@
.L479:
	ldr	r0, [r5, #48]	@ temp.2226, s_pstVfmwChan
	cmp	r0, #0	@ temp.2226,
	beq	.L480	@,
	ldr	lr, [r0, #20]	@ <variable>.s32Priority, <variable>.s32Priority
	movw	r1, #:lower16:.LC62	@,
	ldr	r2, [r0, #12]	@ <variable>.s32IsOpen, <variable>.s32IsOpen
	movt	r1, #:upper16:.LC62	@,
	ldr	r3, [r0, #16]	@ <variable>.s32IsRun, <variable>.s32IsRun
	mov	r0, r4	@, p
	str	lr, [sp, #0]	@ <variable>.s32Priority,
	bl	seq_printf	@
.L480:
	ldr	r0, [r5, #52]	@ temp.2230, s_pstVfmwChan
	cmp	r0, #0	@ temp.2230,
	beq	.L481	@,
	ldr	ip, [r0, #20]	@ <variable>.s32Priority, <variable>.s32Priority
	movw	r1, #:lower16:.LC62	@,
	ldr	r2, [r0, #12]	@ <variable>.s32IsOpen, <variable>.s32IsOpen
	movt	r1, #:upper16:.LC62	@,
	ldr	r3, [r0, #16]	@ <variable>.s32IsRun, <variable>.s32IsRun
	mov	r0, r4	@, p
	str	ip, [sp, #0]	@ <variable>.s32Priority,
	bl	seq_printf	@
.L481:
	ldr	r0, [r5, #56]	@ temp.2234, s_pstVfmwChan
	cmp	r0, #0	@ temp.2234,
	beq	.L482	@,
	ldr	lr, [r0, #20]	@ <variable>.s32Priority, <variable>.s32Priority
	movw	r1, #:lower16:.LC62	@,
	ldr	r2, [r0, #12]	@ <variable>.s32IsOpen, <variable>.s32IsOpen
	movt	r1, #:upper16:.LC62	@,
	ldr	r3, [r0, #16]	@ <variable>.s32IsRun, <variable>.s32IsRun
	mov	r0, r4	@, p
	str	lr, [sp, #0]	@ <variable>.s32Priority,
	bl	seq_printf	@
.L482:
	ldr	r0, [r5, #60]	@ D.41131, s_pstVfmwChan
	cmp	r0, #0	@ D.41131,
	beq	.L483	@,
	ldr	ip, [r0, #20]	@ <variable>.s32Priority, <variable>.s32Priority
	movw	r1, #:lower16:.LC62	@,
	ldr	r2, [r0, #12]	@ <variable>.s32IsOpen, <variable>.s32IsOpen
	movt	r1, #:upper16:.LC62	@,
	ldr	r3, [r0, #16]	@ <variable>.s32IsRun, <variable>.s32IsRun
	mov	r0, r4	@, p
	str	ip, [sp, #0]	@ <variable>.s32Priority,
	bl	seq_printf	@
.L483:
	mov	r0, r4	@, p
	movw	r1, #:lower16:.LC55	@,
	movt	r1, #:upper16:.LC55	@,
	bl	seq_printf	@
	mov	r0, #0	@,
	sub	sp, fp, #24
	ldmfd	sp, {r4, r5, r6, fp, sp, pc}
	.fnend
	.size	vfmw_read_proc_chn, .-vfmw_read_proc_chn
	.align	2
	.global	vfmw_read_proc_prn
	.type	vfmw_read_proc_prn, %function
vfmw_read_proc_prn:
	.fnstart
.LFB1618:
	@ args = 0, pretend = 0, frame = 0
	@ frame_needed = 1, uses_anonymous_args = 0
	.movsp ip
	mov	ip, sp	@,
	stmfd	sp!, {r3, r4, r5, r6, fp, ip, lr, pc}	@,
	.pad #4
	.save {r3, r4, r5, r6, fp, ip, lr}
	.setfp fp, ip, #-4
	sub	fp, ip, #4	@,,
	push	{lr}
	bl	__gnu_mcount_nc
	movw	r6, #:lower16:.LC64	@ tmp137,
	movt	r6, #:upper16:.LC64	@ tmp137,
	mov	r4, r0	@ p, p
	movw	r1, #:lower16:.LC63	@,
	movt	r1, #:upper16:.LC63	@,
	bl	seq_printf	@
	mov	r1, r6	@, tmp137
	mov	r0, r4	@, p
	movw	r5, #:lower16:.LC74	@ tmp149,
	bl	seq_printf	@
	mov	r0, r4	@, p
	movw	r1, #:lower16:.LC65	@,
	movt	r1, #:upper16:.LC65	@,
	bl	seq_printf	@
	mov	r0, r4	@, p
	movw	r1, #:lower16:.LC66	@,
	movt	r1, #:upper16:.LC66	@,
	bl	seq_printf	@
	mov	r0, r4	@, p
	movw	r1, #:lower16:.LC67	@,
	movt	r1, #:upper16:.LC67	@,
	bl	seq_printf	@
	mov	r0, r4	@, p
	movw	r1, #:lower16:.LC68	@,
	movt	r1, #:upper16:.LC68	@,
	bl	seq_printf	@
	mov	r0, r4	@, p
	movw	r1, #:lower16:.LC69	@,
	movt	r1, #:upper16:.LC69	@,
	bl	seq_printf	@
	mov	r0, r4	@, p
	movw	r1, #:lower16:.LC70	@,
	movt	r1, #:upper16:.LC70	@,
	bl	seq_printf	@
	mov	r0, r4	@, p
	movw	r1, #:lower16:.LC71	@,
	movt	r1, #:upper16:.LC71	@,
	bl	seq_printf	@
	mov	r0, r4	@, p
	movw	r1, #:lower16:.LC72	@,
	movt	r1, #:upper16:.LC72	@,
	bl	seq_printf	@
	mov	r1, r6	@, tmp137
	mov	r0, r4	@, p
	movt	r5, #:upper16:.LC74	@ tmp149,
	bl	seq_printf	@
	mov	r0, r4	@, p
	movw	r1, #:lower16:.LC73	@,
	movt	r1, #:upper16:.LC73	@,
	bl	seq_printf	@
	mov	r1, r6	@, tmp137
	mov	r0, r4	@, p
	bl	seq_printf	@
	mov	r1, r5	@, tmp149
	mov	r0, r4	@, p
	bl	seq_printf	@
	mov	r1, r5	@, tmp149
	mov	r0, r4	@, p
	bl	seq_printf	@
	mov	r0, r4	@, p
	movw	r1, #:lower16:.LC75	@,
	movt	r1, #:upper16:.LC75	@,
	bl	seq_printf	@
	mov	r0, r4	@, p
	movw	r1, #:lower16:.LC76	@,
	movt	r1, #:upper16:.LC76	@,
	bl	seq_printf	@
	mov	r0, r4	@, p
	movw	r1, #:lower16:.LC77	@,
	movt	r1, #:upper16:.LC77	@,
	bl	seq_printf	@
	mov	r0, r4	@, p
	movw	r1, #:lower16:.LC78	@,
	movt	r1, #:upper16:.LC78	@,
	bl	seq_printf	@
	mov	r1, r6	@, tmp137
	mov	r0, r4	@, p
	bl	seq_printf	@
	mov	r0, r4	@, p
	movw	r1, #:lower16:.LC79	@,
	movt	r1, #:upper16:.LC79	@,
	bl	seq_printf	@
	mov	r1, r6	@, tmp137
	mov	r0, r4	@, p
	bl	seq_printf	@
	mov	r1, r5	@, tmp149
	mov	r0, r4	@, p
	bl	seq_printf	@
	mov	r1, r5	@, tmp149
	mov	r0, r4	@, p
	bl	seq_printf	@
	mov	r1, r5	@, tmp149
	mov	r0, r4	@, p
	bl	seq_printf	@
	mov	r1, r5	@, tmp149
	mov	r0, r4	@, p
	bl	seq_printf	@
	mov	r1, r5	@, tmp149
	mov	r0, r4	@, p
	bl	seq_printf	@
	mov	r0, r4	@, p
	movw	r1, #:lower16:.LC80	@,
	movt	r1, #:upper16:.LC80	@,
	bl	seq_printf	@
	mov	r0, r4	@, p
	mov	r1, r6	@, tmp137
	bl	seq_printf	@
	mov	r0, #0	@,
	ldmfd	sp, {r3, r4, r5, r6, fp, sp, pc}	@
	.fnend
	.size	vfmw_read_proc_prn, .-vfmw_read_proc_prn
	.align	2
	.global	vfmw_read_proc_dbg
	.type	vfmw_read_proc_dbg, %function
vfmw_read_proc_dbg:
	.fnstart
.LFB1617:
	@ args = 0, pretend = 0, frame = 0
	@ frame_needed = 1, uses_anonymous_args = 0
	.movsp ip
	mov	ip, sp	@,
	stmfd	sp!, {r4, r5, r6, fp, ip, lr, pc}	@,
	.pad #4
	.save {r4, r5, r6, fp, ip, lr}
	.setfp fp, ip, #-4
	sub	fp, ip, #4	@,,
	.pad #20
	sub	sp, sp, #20	@,,
	push	{lr}
	bl	__gnu_mcount_nc
	movw	r6, #:lower16:.LC82	@ tmp137,
	movw	r5, #:lower16:TracerPhyAddr	@ tmp139,
	movt	r6, #:upper16:.LC82	@ tmp137,
	movt	r5, #:upper16:TracerPhyAddr	@ tmp139,
	mov	r4, r0	@ p, p
	movw	r1, #:lower16:.LC81	@,
	movt	r1, #:upper16:.LC81	@,
	bl	seq_printf	@
	mov	r1, r6	@, tmp137
	ldr	r3, [r5, #0]	@, TracerPhyAddr
	mov	r0, r4	@, p
	movw	r2, #:lower16:.LC83	@,
	movt	r2, #:upper16:.LC83	@,
	bl	seq_printf	@
	mov	r0, r4	@, p
	movw	r1, #:lower16:.LC84	@,
	movw	r2, #:lower16:.LC85	@,
	movt	r1, #:upper16:.LC84	@,
	movt	r2, #:upper16:.LC85	@,
	movw	r3, #:lower16:.LANCHOR2	@,
	movt	r3, #:upper16:.LANCHOR2	@,
	bl	seq_printf	@
	movw	r3, #:lower16:g_PrintEnable	@ tmp146,
	movt	r3, #:upper16:g_PrintEnable	@ tmp146,
	mov	r1, r6	@, tmp137
	mov	r0, r4	@, p
	movw	r2, #:lower16:.LC86	@,
	ldr	r3, [r3, #0]	@, g_PrintEnable
	movt	r2, #:upper16:.LC86	@,
	bl	seq_printf	@
	movw	ip, #:lower16:g_TraceCtrl	@ tmp150,
	movt	ip, #:upper16:g_TraceCtrl	@ tmp150,
	mov	r1, r6	@, tmp137
	mov	r0, r4	@, p
	movw	r2, #:lower16:.LC87	@,
	ldr	r3, [ip, #0]	@, g_TraceCtrl
	movt	r2, #:upper16:.LC87	@,
	bl	seq_printf	@
	movw	r5, #:lower16:.LC88	@ tmp152,
	movw	r2, #:lower16:g_TraceBsPeriod	@ tmp154,
	movt	r5, #:upper16:.LC88	@ tmp152,
	movt	r2, #:upper16:g_TraceBsPeriod	@ tmp154,
	mov	r0, r4	@, p
	mov	r1, r5	@, tmp152
	movw	r6, #:lower16:.LC64	@ tmp168,
	ldr	r3, [r2, #0]	@, g_TraceBsPeriod
	movw	r2, #:lower16:.LC89	@,
	movt	r2, #:upper16:.LC89	@,
	movt	r6, #:upper16:.LC64	@ tmp168,
	bl	seq_printf	@
	movw	r3, #:lower16:g_TraceFramePeriod	@ tmp158,
	movt	r3, #:upper16:g_TraceFramePeriod	@ tmp158,
	mov	r1, r5	@, tmp152
	mov	r0, r4	@, p
	movw	r2, #:lower16:.LC90	@,
	ldr	r3, [r3, #0]	@, g_TraceFramePeriod
	movt	r2, #:upper16:.LC90	@,
	bl	seq_printf	@
	movw	ip, #:lower16:g_TraceImgPeriod	@ tmp162,
	movt	ip, #:upper16:g_TraceImgPeriod	@ tmp162,
	mov	r1, r5	@, tmp152
	mov	r0, r4	@, p
	movw	r2, #:lower16:.LC91	@,
	ldr	r3, [ip, #0]	@, g_TraceImgPeriod
	movt	r2, #:upper16:.LC91	@,
	bl	seq_printf	@
	movw	r3, #:lower16:g_NoStreamReportPeriod	@ tmp166,
	movt	r3, #:upper16:g_NoStreamReportPeriod	@ tmp166,
	mov	r1, r5	@, tmp152
	mov	r0, r4	@, p
	movw	r2, #:lower16:.LC92	@,
	ldr	r3, [r3, #0]	@, g_NoStreamReportPeriod
	movt	r2, #:upper16:.LC92	@,
	bl	seq_printf	@
	mov	r1, r6	@, tmp168
	mov	r0, r4	@, p
	bl	seq_printf	@
	mov	r0, r4	@, p
	movw	r1, #:lower16:.LC93	@,
	movt	r1, #:upper16:.LC93	@,
	bl	seq_printf	@
	mov	r0, r4	@, p
	movw	r1, #:lower16:.LC94	@,
	movt	r1, #:upper16:.LC94	@,
	bl	seq_printf	@
	mov	r0, r4	@, p
	movw	r1, #:lower16:.LC95	@,
	movt	r1, #:upper16:.LC95	@,
	bl	seq_printf	@
	mov	r0, r4	@, p
	movw	r1, #:lower16:.LC96	@,
	movt	r1, #:upper16:.LC96	@,
	bl	seq_printf	@
	mov	r0, r4	@, p
	movw	r1, #:lower16:.LC97	@,
	movt	r1, #:upper16:.LC97	@,
	bl	seq_printf	@
	mov	r0, r4	@, p
	movw	r1, #:lower16:.LC98	@,
	movt	r1, #:upper16:.LC98	@,
	bl	seq_printf	@
	mov	r0, r4	@, p
	movw	r1, #:lower16:.LC99	@,
	movt	r1, #:upper16:.LC99	@,
	bl	seq_printf	@
	mov	r0, r4	@, p
	movw	r1, #:lower16:.LC100	@,
	movt	r1, #:upper16:.LC100	@,
	bl	seq_printf	@
	mov	r0, r4	@, p
	movw	r1, #:lower16:.LC101	@,
	movt	r1, #:upper16:.LC101	@,
	bl	seq_printf	@
	mov	r0, r4	@, p
	movw	r1, #:lower16:.LC102	@,
	movt	r1, #:upper16:.LC102	@,
	bl	seq_printf	@
	mov	r0, r4	@, p
	movw	r1, #:lower16:.LC103	@,
	movt	r1, #:upper16:.LC103	@,
	bl	seq_printf	@
	mov	r0, r4	@, p
	movw	r1, #:lower16:.LC104	@,
	movt	r1, #:upper16:.LC104	@,
	bl	seq_printf	@
	movw	ip, #:lower16:.LC106	@ tmp182,
	movt	ip, #:upper16:.LC106	@ tmp182,
	mov	r0, r4	@, p
	movw	r1, #:lower16:.LC105	@,
	movt	r1, #:upper16:.LC105	@,
	mov	r2, ip	@, tmp182
	mov	r3, ip	@, tmp2
	str	ip, [sp, #0]	@ tmp182,
	str	ip, [sp, #4]	@ tmp182,
	str	ip, [sp, #8]	@ tmp182,
	bl	seq_printf	@
	mov	r0, r4	@, p
	movw	r1, #:lower16:.LC107	@,
	movt	r1, #:upper16:.LC107	@,
	bl	seq_printf	@
	mov	r0, r4	@, p
	movw	r1, #:lower16:.LC108	@,
	movt	r1, #:upper16:.LC108	@,
	bl	seq_printf	@
	mov	r0, r4	@, p
	movw	r1, #:lower16:.LC109	@,
	movt	r1, #:upper16:.LC109	@,
	bl	seq_printf	@
	mov	r0, r4	@, p
	movw	r1, #:lower16:.LC110	@,
	movt	r1, #:upper16:.LC110	@,
	bl	seq_printf	@
	mov	r0, r4	@, p
	movw	r1, #:lower16:.LC111	@,
	movt	r1, #:upper16:.LC111	@,
	bl	seq_printf	@
	mov	r0, r4	@, p
	movw	r1, #:lower16:.LC112	@,
	movt	r1, #:upper16:.LC112	@,
	bl	seq_printf	@
	mov	r0, r4	@, p
	movw	r1, #:lower16:.LC113	@,
	movt	r1, #:upper16:.LC113	@,
	bl	seq_printf	@
	mov	r0, r4	@, p
	movw	r1, #:lower16:.LC114	@,
	movt	r1, #:upper16:.LC114	@,
	bl	seq_printf	@
	mov	r0, r4	@, p
	movw	r1, #:lower16:.LC115	@,
	movt	r1, #:upper16:.LC115	@,
	bl	seq_printf	@
	mov	r0, r4	@, p
	movw	r1, #:lower16:.LC116	@,
	movt	r1, #:upper16:.LC116	@,
	bl	seq_printf	@
	mov	r0, r4	@, p
	movw	r1, #:lower16:.LC117	@,
	movt	r1, #:upper16:.LC117	@,
	bl	seq_printf	@
	mov	r0, r4	@, p
	movw	r1, #:lower16:.LC118	@,
	movt	r1, #:upper16:.LC118	@,
	bl	seq_printf	@
	mov	r0, r4	@, p
	movw	r1, #:lower16:.LC119	@,
	movt	r1, #:upper16:.LC119	@,
	bl	seq_printf	@
	mov	r0, r4	@, p
	movw	r1, #:lower16:.LC120	@,
	movt	r1, #:upper16:.LC120	@,
	bl	seq_printf	@
	mov	r0, r4	@, p
	movw	r1, #:lower16:.LC121	@,
	movt	r1, #:upper16:.LC121	@,
	bl	seq_printf	@
	mov	r0, r4	@, p
	movw	r1, #:lower16:.LC122	@,
	movt	r1, #:upper16:.LC122	@,
	bl	seq_printf	@
	mov	r0, r4	@, p
	movw	r1, #:lower16:.LC123	@,
	movt	r1, #:upper16:.LC123	@,
	bl	seq_printf	@
	mov	r0, r4	@, p
	movw	r1, #:lower16:.LC124	@,
	movt	r1, #:upper16:.LC124	@,
	bl	seq_printf	@
	mov	r0, r4	@, p
	movw	r1, #:lower16:.LC125	@,
	movt	r1, #:upper16:.LC125	@,
	bl	seq_printf	@
	mov	r0, r4	@, p
	mov	r1, r6	@, tmp168
	bl	seq_printf	@
	mov	r0, #0	@,
	sub	sp, fp, #24
	ldmfd	sp, {r4, r5, r6, fp, sp, pc}
	.fnend
	.size	vfmw_read_proc_dbg, .-vfmw_read_proc_dbg
	.align	2
	.global	vfmw_read_proc
	.type	vfmw_read_proc, %function
vfmw_read_proc:
	.fnstart
.LFB1616:
	@ args = 0, pretend = 0, frame = 0
	@ frame_needed = 1, uses_anonymous_args = 0
	.movsp ip
	mov	ip, sp	@,
	stmfd	sp!, {r4, r5, r6, r7, fp, ip, lr, pc}	@,
	.pad #4
	.save {r4, r5, r6, r7, fp, ip, lr}
	.setfp fp, ip, #-4
	sub	fp, ip, #4	@,,
	.pad #8
	sub	sp, sp, #8	@,,
	push	{lr}
	bl	__gnu_mcount_nc
	movw	r5, #:lower16:.LC127	@ tmp139,
	movt	r5, #:upper16:.LC127	@ tmp139,
	mov	r6, r0	@ p, p
	movw	r1, #:lower16:.LC126	@,
	movw	r4, #:lower16:.LANCHOR0	@ tmp142,
	movt	r1, #:upper16:.LC126	@,
	movt	r4, #:upper16:.LANCHOR0	@ tmp142,
	bl	seq_printf	@
	mov	r1, r5	@, tmp139
	mov	r0, r6	@, p
	movw	r3, #:lower16:2014041500	@ tmp141,
	movw	r2, #:lower16:.LC128	@,
	movt	r3, #:upper16:2014041500	@,
	movt	r2, #:upper16:.LC128	@,
	movw	r7, #:lower16:-858993459	@ tmp200,
	bl	seq_printf	@
	ldr	lr, [r4, #1052]	@ D.41020, <variable>.u32VaVdmLoad
	movt	r7, #:upper16:-858993459	@ tmp200,
	mov	r3, #0	@,
	mov	r0, r6	@, p
	movw	r1, #:lower16:.LC129	@,
	umull	r2, ip, r7, lr	@, tmp146, tmp200, D.41020
	movt	r1, #:upper16:.LC129	@,
	movw	r2, #:lower16:.LC130	@,
	movt	r2, #:upper16:.LC130	@,
	mov	ip, ip, lsr #3	@ tmp145, tmp146,
	str	ip, [sp, #0]	@ tmp145,
	add	ip, ip, ip, asl #2	@, tmp153, tmp145, tmp145,
	sub	ip, lr, ip, asl #1	@ tmp155, D.41020, tmp153,
	str	ip, [sp, #4]	@ tmp155,
	bl	seq_printf	@
	ldr	ip, [r4, #1068]	@ D.41023, <variable>.u32DaDnrLoad
	mov	r0, r6	@, p
	movw	r1, #:lower16:.LC131	@,
	movw	r2, #:lower16:.LC132	@,
	movt	r1, #:upper16:.LC131	@,
	umull	r3, r7, r7, ip	@, tmp160, tmp200, D.41023
	movt	r2, #:upper16:.LC132	@,
	mov	r3, r7, lsr #3	@ tmp159, tmp160,
	add	lr, r3, r3, asl #2	@, tmp167, tmp159, tmp159,
	sub	ip, ip, lr, asl #1	@ tmp169, D.41023, tmp167,
	str	ip, [sp, #0]	@ tmp169,
	bl	seq_printf	@
	mov	r1, r5	@, tmp139
	ldr	r3, [r4, #72]	@, extra_ref
	mov	r0, r6	@, p
	movw	r2, #:lower16:.LC133	@,
	movt	r2, #:upper16:.LC133	@,
	bl	seq_printf	@
	mov	r1, r5	@, tmp139
	ldr	r3, [r4, #76]	@, extra_disp
	mov	r0, r6	@, p
	movw	r2, #:lower16:.LC134	@,
	movt	r2, #:upper16:.LC134	@,
	bl	seq_printf	@
	mov	r1, r5	@, tmp139
	ldr	r3, [r4, #1104]	@, extra_cmd
	mov	r0, r6	@, p
	movw	r2, #:lower16:.LC135	@,
	movt	r2, #:upper16:.LC135	@,
	bl	seq_printf	@
	movw	r3, #:lower16:USE_FF_APT_EN	@ tmp184,
	movt	r3, #:upper16:USE_FF_APT_EN	@ tmp184,
	mov	r1, r5	@, tmp139
	mov	r0, r6	@, p
	movw	r2, #:lower16:.LC136	@,
	ldr	r3, [r3, #0]	@, USE_FF_APT_EN
	movt	r2, #:upper16:.LC136	@,
	bl	seq_printf	@
	mov	r1, r5	@, tmp139
	ldr	r3, [r4, #1108]	@, g_ResetCreateNewSave
	mov	r0, r6	@, p
	movw	r2, #:lower16:.LC137	@,
	movt	r2, #:upper16:.LC137	@,
	bl	seq_printf	@
	mov	r1, r5	@, tmp139
	ldr	r3, [r4, #1096]	@, <variable>.u32VaVdmKiloCycle
	mov	r0, r6	@, p
	movw	r2, #:lower16:.LC138	@,
	movt	r2, #:upper16:.LC138	@,
	bl	seq_printf	@
	mov	r0, r6	@, p
	mov	r1, r5	@, tmp139
	ldr	r3, [r4, #1100]	@, <variable>.u32StatTime
	movw	r2, #:lower16:.LC139	@,
	movt	r2, #:upper16:.LC139	@,
	bl	seq_printf	@
	mov	r0, #0	@,
	sub	sp, fp, #28
	ldmfd	sp, {r4, r5, r6, r7, fp, sp, pc}
	.fnend
	.size	vfmw_read_proc, .-vfmw_read_proc
	.align	2
	.global	VCTRL_GetStreamSize
	.type	VCTRL_GetStreamSize, %function
VCTRL_GetStreamSize:
	.fnstart
.LFB1536:
	@ args = 0, pretend = 0, frame = 0
	@ frame_needed = 1, uses_anonymous_args = 0
	.movsp ip
	mov	ip, sp	@,
	stmfd	sp!, {fp, ip, lr, pc}	@,
	.pad #4
	.save {fp, ip, lr}
	.setfp fp, ip, #-4
	sub	fp, ip, #4	@,,
	push	{lr}
	bl	__gnu_mcount_nc
	cmp	r0, #15	@ ChanID,
	bhi	.L497	@,
	movw	r3, #:lower16:.LANCHOR0	@ tmp140,
	movt	r3, #:upper16:.LANCHOR0	@ tmp140,
	ldr	r0, [r3, r0, asl #2]	@ D.37139, s_pstVfmwChan
	cmp	r0, #0	@ D.37139,
	beq	.L498	@,
	ldr	r2, [r0, #12]	@ <variable>.s32IsOpen, <variable>.s32IsOpen
	cmp	r2, #1	@ <variable>.s32IsOpen,
	bne	.L499	@,
	add	r0, r0, #74752	@, D.37139,
	add	r0, r0, #824	@,,
	bl	GetSegStreamSize	@
	ldmfd	sp, {fp, sp, pc}	@
.L499:
	mov	r0, #0	@,
	movw	r1, #:lower16:.LC3	@,
	movw	r2, #1368	@,
	movt	r1, #:upper16:.LC3	@,
	movw	r3, #:lower16:.LC141	@,
	movt	r3, #:upper16:.LC141	@,
	bl	dprint_vfmw	@
	mvn	r0, #0	@ ret,
	ldmfd	sp, {fp, sp, pc}	@
.L497:
	mov	r0, #0	@,
	movw	r1, #:lower16:.LC3	@,
	movw	r2, #1366	@,
	movt	r1, #:upper16:.LC3	@,
	movw	r3, #:lower16:.LC2	@,
	movt	r3, #:upper16:.LC2	@,
	bl	dprint_vfmw	@
	mvn	r0, #0	@ ret,
	ldmfd	sp, {fp, sp, pc}	@
.L498:
	movw	r1, #:lower16:.LC3	@,
	movw	r2, #1367	@,
	movt	r1, #:upper16:.LC3	@,
	movw	r3, #:lower16:.LC140	@,
	movt	r3, #:upper16:.LC140	@,
	bl	dprint_vfmw	@
	mvn	r0, #0	@ ret,
	ldmfd	sp, {fp, sp, pc}	@
	.fnend
	.size	VCTRL_GetStreamSize, .-VCTRL_GetStreamSize
	.align	2
	.global	vfmw_read_proc_scd
	.type	vfmw_read_proc_scd, %function
vfmw_read_proc_scd:
	.fnstart
.LFB1619:
	@ args = 0, pretend = 0, frame = 16
	@ frame_needed = 1, uses_anonymous_args = 0
	.movsp ip
	mov	ip, sp	@,
	stmfd	sp!, {r4, r5, r6, r7, fp, ip, lr, pc}	@,
	.pad #4
	.save {r4, r5, r6, r7, fp, ip, lr}
	.setfp fp, ip, #-4
	sub	fp, ip, #4	@,,
	.pad #16
	sub	sp, sp, #16	@,,
	push	{lr}
	bl	__gnu_mcount_nc
	movw	r5, #:lower16:g_pSmIIS	@ tmp148,
	movt	r5, #:upper16:g_pSmIIS	@ tmp148,
	movw	r1, #:lower16:.LC142	@,
	movt	r1, #:upper16:.LC142	@,
	mov	r4, r0	@ p, p
	bl	seq_printf	@
	ldr	ip, [r5, #0]	@ g_pSmIIS, g_pSmIIS
	mov	r0, r4	@, p
	movw	r1, #:lower16:.LC50	@,
	movw	r2, #:lower16:.LC143	@,
	movt	r1, #:upper16:.LC50	@,
	ldr	r3, [ip, #780]	@, <variable>.IsScdDrvOpen
	movt	r2, #:upper16:.LC143	@,
	bl	seq_printf	@
	ldr	r7, [r5, #0]	@ g_pSmIIS, g_pSmIIS
	mov	r0, r4	@, p
	movw	r1, #:lower16:.LC50	@,
	movw	r2, #:lower16:.LC144	@,
	movt	r1, #:upper16:.LC50	@,
	ldr	r3, [r7, #788]	@, <variable>.SCDState
	movt	r2, #:upper16:.LC144	@,
	bl	seq_printf	@
	ldr	r3, [r5, #0]	@ g_pSmIIS, g_pSmIIS
	mov	r0, r4	@, p
	movw	r1, #:lower16:.LC50	@,
	movw	r2, #:lower16:.LC145	@,
	movt	r1, #:upper16:.LC50	@,
	ldr	r3, [r3, #784]	@, <variable>.ThisInstID
	movt	r2, #:upper16:.LC145	@,
	bl	seq_printf	@
	ldr	ip, [r5, #0]	@ g_pSmIIS, g_pSmIIS
	mov	r0, r4	@, p
	movw	r1, #:lower16:.LC50	@,
	movw	r2, #:lower16:.LC146	@,
	movt	r1, #:upper16:.LC50	@,
	ldr	r3, [ip, #792]	@, <variable>.LastProcessTime
	movt	r2, #:upper16:.LC146	@,
	bl	seq_printf	@
	ldr	r7, [r5, #0]	@ g_pSmIIS, g_pSmIIS
	mov	r0, r4	@, p
	movw	r1, #:lower16:.LC147	@,
	movw	r2, #:lower16:.LC148	@,
	movt	r1, #:upper16:.LC147	@,
	ldr	r3, [r7, #0]	@, <variable>.ScdDrvMem.HwMemAddr
	movt	r2, #:upper16:.LC148	@,
	bl	seq_printf	@
	ldr	r3, [r5, #0]	@ g_pSmIIS, g_pSmIIS
	mov	r0, r4	@, p
	movw	r1, #:lower16:.LC50	@,
	movw	r2, #:lower16:.LC149	@,
	movt	r1, #:upper16:.LC50	@,
	ldr	r3, [r3, #4]	@, <variable>.ScdDrvMem.HwMemSize
	movt	r2, #:upper16:.LC149	@,
	bl	seq_printf	@
	ldr	ip, [r5, #0]	@ g_pSmIIS, g_pSmIIS
	mov	r0, r4	@, p
	movw	r1, #:lower16:.LC147	@,
	movw	r2, #:lower16:.LC150	@,
	movt	r1, #:upper16:.LC147	@,
	ldr	r3, [ip, #8]	@, <variable>.ScdDrvMem.DownMsgMemAddr
	movt	r2, #:upper16:.LC150	@,
	bl	seq_printf	@
	ldr	r7, [r5, #0]	@ g_pSmIIS, g_pSmIIS
	mov	r0, r4	@, p
	movw	r1, #:lower16:.LC147	@,
	movw	r2, #:lower16:.LC151	@,
	movt	r1, #:upper16:.LC147	@,
	ldr	r3, [r7, #20]	@, <variable>.ScdDrvMem.UpMsgMemAddr
	movt	r2, #:upper16:.LC151	@,
	bl	seq_printf	@
	movw	r0, #:lower16:.LANCHOR0	@ tmp185,
	movt	r0, #:upper16:.LANCHOR0	@ tmp185,
	ldr	r2, [r5, #0]	@ g_pSmIIS, g_pSmIIS
	ldr	r7, [r0, #1036]	@ i, g_CurProcChan
	add	r3, r2, r7, asl #2	@, tmp191, g_pSmIIS, i,
	ldr	r5, [r3, #652]	@ pInst, <variable>.pSmInstArray
	cmp	r5, #0	@ pInst,
	beq	.L501	@,
	movw	lr, #:lower16:166252	@ tmp193,
	movt	lr, #:upper16:166252	@ tmp193,
	ldr	r1, [r5, lr]	@ <variable>.Mode, <variable>.Mode
	cmp	r1, #0	@ <variable>.Mode,
	bne	.L507	@,
.L501:
	mov	r0, #0	@,
	sub	sp, fp, #28
	ldmfd	sp, {r4, r5, r6, r7, fp, sp, pc}
.L507:
	add	r6, r5, #168	@ D.41081, pInst,
	sub	r1, fp, #36	@,,
	mov	r0, r6	@, D.41081
	bl	GetRawStreamSize	@
	cmp	r0, #0	@,
	bne	.L508	@,
	mov	r0, r6	@, D.41081
	sub	r1, fp, #32	@,,
	bl	GetRawStreamNum	@
	cmp	r0, #0	@,
	bne	.L509	@,
.L503:
	add	r6, r5, #73728	@ D.41089, pInst,
	sub	r1, fp, #44	@,,
	add	r6, r6, #192	@ D.41089, D.41089,
	mov	r0, r6	@, D.41089
	bl	GetSegStreamSize	@
	cmp	r0, #0	@,
	bne	.L510	@,
.L504:
	mov	r0, r6	@, D.41089
	sub	r1, fp, #40	@,,
	bl	GetSegStreamNum	@
	cmp	r0, #0	@,
	bne	.L511	@,
.L505:
	mov	r2, r7	@, i
	mov	r0, r4	@, p
	movw	r1, #:lower16:.LC153	@,
	movt	r1, #:upper16:.LC153	@,
	bl	seq_printf	@
	movw	r2, #:lower16:166252	@ tmp215,
	movt	r2, #:upper16:166252	@ tmp215,
	mov	r0, r4	@, p
	movw	r1, #:lower16:.LC50	@,
	movt	r1, #:upper16:.LC50	@,
	ldr	r3, [r5, r2]	@, <variable>.Mode
	movw	r2, #:lower16:.LC154	@,
	movt	r2, #:upper16:.LC154	@,
	bl	seq_printf	@
	ldr	r3, [r5, #56]	@, <variable>.Config.VidStd
	mov	r0, r4	@, p
	movw	r1, #:lower16:.LC50	@,
	movw	r2, #:lower16:.LC155	@,
	movt	r1, #:upper16:.LC50	@,
	movt	r2, #:upper16:.LC155	@,
	bl	seq_printf	@
	ldrsb	r3, [r5, #1]	@, <variable>.IsCounting
	mov	r0, r4	@, p
	movw	r1, #:lower16:.LC50	@,
	movw	r2, #:lower16:.LC156	@,
	movt	r1, #:upper16:.LC50	@,
	movt	r2, #:upper16:.LC156	@,
	bl	seq_printf	@
	ldr	r3, [r5, #92]	@, <variable>.Config.ScdLowBufEnable
	mov	r0, r4	@, p
	movw	r1, #:lower16:.LC50	@,
	movw	r2, #:lower16:.LC157	@,
	movt	r1, #:upper16:.LC50	@,
	movt	r2, #:upper16:.LC157	@,
	bl	seq_printf	@
	ldr	r3, [r5, #60]	@, <variable>.Config.BufPhyAddr
	mov	r0, r4	@, p
	movw	r1, #:lower16:.LC147	@,
	movw	r2, #:lower16:.LC158	@,
	movt	r1, #:upper16:.LC147	@,
	movt	r2, #:upper16:.LC158	@,
	bl	seq_printf	@
	ldr	r3, [r5, #64]	@, <variable>.Config.BufSize
	mov	r0, r4	@, p
	movw	r1, #:lower16:.LC50	@,
	movw	r2, #:lower16:.LC159	@,
	movt	r1, #:upper16:.LC50	@,
	movt	r2, #:upper16:.LC159	@,
	bl	seq_printf	@
	ldr	r3, [fp, #-36]	@, RawSize
	mov	r0, r4	@, p
	movw	r1, #:lower16:.LC50	@,
	movw	r2, #:lower16:.LC160	@,
	movt	r1, #:upper16:.LC50	@,
	movt	r2, #:upper16:.LC160	@,
	bl	seq_printf	@
	ldr	r3, [fp, #-32]	@, RawNum
	mov	r0, r4	@, p
	movw	r1, #:lower16:.LC50	@,
	movw	r2, #:lower16:.LC161	@,
	movt	r1, #:upper16:.LC50	@,
	movt	r2, #:upper16:.LC161	@,
	bl	seq_printf	@
	ldr	r3, [fp, #-44]	@, SegSize
	mov	r0, r4	@, p
	movw	r1, #:lower16:.LC50	@,
	movw	r2, #:lower16:.LC162	@,
	movt	r1, #:upper16:.LC50	@,
	movt	r2, #:upper16:.LC162	@,
	bl	seq_printf	@
	ldr	r3, [fp, #-40]	@, SegNum
	mov	r0, r4	@, p
	movw	r1, #:lower16:.LC50	@,
	movw	r2, #:lower16:.LC163	@,
	movt	r1, #:upper16:.LC50	@,
	movt	r2, #:upper16:.LC163	@,
	bl	seq_printf	@
	movw	ip, #:lower16:166112	@ tmp246,
	movt	ip, #:upper16:166112	@ tmp246,
	mov	r0, r4	@, p
	movw	r1, #:lower16:.LC147	@,
	movw	r2, #:lower16:.LC164	@,
	ldr	r3, [r5, ip]	@, <variable>.StreamSegArray.SegBufReadAddr
	movt	r1, #:upper16:.LC147	@,
	movt	r2, #:upper16:.LC164	@,
	bl	seq_printf	@
	movw	r3, #:lower16:166116	@ tmp250,
	movt	r3, #:upper16:166116	@ tmp250,
	mov	r0, r4	@, p
	movw	r1, #:lower16:.LC147	@,
	movw	r2, #:lower16:.LC165	@,
	ldr	r3, [r5, r3]	@, <variable>.StreamSegArray.SegBufWriteAddr
	movt	r1, #:upper16:.LC147	@,
	movt	r2, #:upper16:.LC165	@,
	bl	seq_printf	@
	movw	r2, #:lower16:180112	@ tmp254,
	movt	r2, #:upper16:180112	@ tmp254,
	mov	r0, r4	@, p
	movw	r1, #:lower16:.LC166	@,
	movt	r1, #:upper16:.LC166	@,
	ldr	r3, [r5, r2]	@, <variable>.BitRate
	movw	r2, #:lower16:.LC167	@,
	movt	r2, #:upper16:.LC167	@,
	bl	seq_printf	@
	mov	r0, r4	@, p
	movw	r1, #:lower16:.LC55	@,
	movt	r1, #:upper16:.LC55	@,
	bl	seq_printf	@
	b	.L501	@
.L508:
	ldr	r2, .L512	@,
	movw	r3, #8251	@,
	movw	r1, #:lower16:.LC152	@,
	mov	r0, #22	@,
	movt	r1, #:upper16:.LC152	@,
	bl	dprint_vfmw	@
	mov	r0, r6	@, D.41081
	sub	r1, fp, #32	@,,
	bl	GetRawStreamNum	@
	cmp	r0, #0	@,
	beq	.L503	@,
.L509:
	add	r6, r5, #73728	@ D.41089, pInst,
	ldr	r2, .L512	@,
	add	r6, r6, #192	@ D.41089, D.41089,
	mov	r3, #8256	@,
	movw	r1, #:lower16:.LC152	@,
	mov	r0, #22	@,
	movt	r1, #:upper16:.LC152	@,
	bl	dprint_vfmw	@
	sub	r1, fp, #44	@,,
	mov	r0, r6	@, D.41089
	bl	GetSegStreamSize	@
	cmp	r0, #0	@,
	beq	.L504	@,
.L510:
	ldr	r2, .L512	@,
	movw	r3, #8261	@,
	movw	r1, #:lower16:.LC152	@,
	mov	r0, #22	@,
	movt	r1, #:upper16:.LC152	@,
	bl	dprint_vfmw	@
	mov	r0, r6	@, D.41089
	sub	r1, fp, #40	@,,
	bl	GetSegStreamNum	@
	cmp	r0, #0	@,
	beq	.L505	@,
.L511:
	movw	r1, #:lower16:.LC152	@,
	ldr	r2, .L512	@,
	movt	r1, #:upper16:.LC152	@,
	movw	r3, #8266	@,
	mov	r0, #22	@,
	bl	dprint_vfmw	@
	b	.L505	@
.L513:
	.align	2
.L512:
	.word	.LANCHOR1+180
	.fnend
	.size	vfmw_read_proc_scd, .-vfmw_read_proc_scd
	.global	__aeabi_idiv
	.align	2
	.global	vfmw_read_proc_info
	.type	vfmw_read_proc_info, %function
vfmw_read_proc_info:
	.fnstart
.LFB1615:
	@ args = 0, pretend = 0, frame = 16
	@ frame_needed = 1, uses_anonymous_args = 0
	.movsp ip
	mov	ip, sp	@,
	stmfd	sp!, {r4, r5, r6, r7, r8, r9, sl, fp, ip, lr, pc}	@,
	.pad #4
	.save {r4, r5, r6, r7, r8, r9, sl, fp, ip, lr}
	.setfp fp, ip, #-4
	sub	fp, ip, #4	@,,
	.pad #28
	sub	sp, sp, #28	@,,
	push	{lr}
	bl	__gnu_mcount_nc
	movw	r1, #:lower16:g_pSmIIS	@ tmp163,
	movt	r1, #:upper16:g_pSmIIS	@ tmp163,
	movw	r5, #:lower16:.LANCHOR0	@ tmp262,
	movt	r5, #:upper16:.LANCHOR0	@ tmp262,
	movw	r3, #:lower16:s_pFspInst	@ tmp161,
	ldr	r2, [r1, #0]	@ g_pSmIIS, g_pSmIIS
	movt	r3, #:upper16:s_pFspInst	@ tmp161,
	ldr	sl, [r5, #1036]	@ chanID, g_CurProcChan
	mov	r4, r0	@ p, p
	ldr	r8, [r2, #652]	@ pInst, <variable>.pSmInstArray
	ldr	r7, [r3, sl, asl #2]	@ pFsp, s_pFspInst
	cmp	r8, #0	@ pInst,
	beq	.L515	@,
	movw	ip, #:lower16:166252	@ tmp164,
	movt	ip, #:upper16:166252	@ tmp164,
	ldr	r0, [r8, ip]	@ <variable>.Mode, <variable>.Mode
	cmp	r0, #0	@ <variable>.Mode,
	bne	.L545	@,
.L515:
	mov	r0, #0	@,
	sub	sp, fp, #40
	ldmfd	sp, {r4, r5, r6, r7, r8, r9, sl, fp, sp, pc}
.L545:
	add	r6, r8, #168	@ D.40960, pInst,
	sub	r1, fp, #52	@,,
	mov	r0, r6	@, D.40960
	bl	GetRawStreamSize	@
	cmp	r0, #0	@,
	bne	.L546	@,
.L516:
	mov	r0, r6	@, D.40960
	sub	r1, fp, #48	@,,
	bl	GetRawStreamNum	@
	cmp	r0, #0	@,
	bne	.L547	@,
.L517:
	add	r6, r8, #73728	@ D.40968, pInst,
	sub	r1, fp, #60	@,,
	add	r6, r6, #192	@ D.40968, D.40968,
	mov	r0, r6	@, D.40968
	bl	GetSegStreamSize	@
	cmp	r0, #0	@,
	bne	.L548	@,
.L518:
	mov	r0, r6	@, D.40968
	sub	r1, fp, #56	@,,
	bl	GetSegStreamNum	@
	cmp	r0, #0	@,
	bne	.L549	@,
.L519:
	movw	lr, #:lower16:166108	@ tmp183,
	movt	lr, #:upper16:166108	@ tmp183,
	ldr	r8, [r8, lr]	@ BufSize, <variable>.StreamSegArray.SegBufSize
	cmp	r8, #0	@ BufSize,
	moveq	r9, r8	@ s32percent, BufSize
	bne	.L550	@,
.L521:
	mov	r2, sl	@, chanID
	mov	r0, r4	@, p
	movw	r1, #:lower16:.LC168	@,
	movt	r1, #:upper16:.LC168	@,
	bl	seq_printf	@
	mov	r0, r4	@, p
	movw	r1, #:lower16:.LC169	@,
	movw	r2, #:lower16:.LC170	@,
	movt	r1, #:upper16:.LC169	@,
	movt	r2, #:upper16:.LC170	@,
	movw	r3, #:lower16:2014041500	@,
	movt	r3, #:upper16:2014041500	@,
	bl	seq_printf	@
	mov	r3, sl	@, chanID
	mov	r0, r4	@, p
	movw	r1, #:lower16:.LC169	@,
	movw	r2, #:lower16:.LC171	@,
	movt	r1, #:upper16:.LC169	@,
	movt	r2, #:upper16:.LC171	@,
	movw	r6, #:lower16:-858993459	@ tmp214,
	bl	seq_printf	@
	mov	r0, r4	@, p
	movw	r1, #:lower16:.LC172	@,
	movt	r1, #:upper16:.LC172	@,
	bl	seq_printf	@
	ldr	ip, [fp, #-48]	@ RawNum, RawNum
	ldr	r3, [fp, #-52]	@, RawSize
	mov	r0, r4	@, p
	movw	r1, #:lower16:.LC173	@,
	movw	r2, #:lower16:.LC174	@,
	movt	r1, #:upper16:.LC173	@,
	movt	r2, #:upper16:.LC174	@,
	str	ip, [sp, #0]	@ RawNum,
	bl	seq_printf	@
	ldr	ip, [fp, #-56]	@ SegNum, SegNum
	mov	r0, r4	@, p
	ldr	r3, [fp, #-60]	@, SegSize
	movw	r1, #:lower16:.LC173	@,
	movw	r2, #:lower16:.LC175	@,
	movt	r1, #:upper16:.LC173	@,
	movt	r2, #:upper16:.LC175	@,
	str	ip, [sp, #0]	@ SegNum,
	bl	seq_printf	@
	ldr	ip, [fp, #-60]	@ SegSize, SegSize
	mov	r3, r8	@, BufSize
	mov	r0, r4	@, p
	movw	r1, #:lower16:.LC176	@,
	movw	r2, #:lower16:.LC177	@,
	movt	r1, #:upper16:.LC176	@,
	movt	r2, #:upper16:.LC177	@,
	str	ip, [sp, #0]	@ SegSize,
	movt	r6, #:upper16:-858993459	@ tmp214,
	str	r9, [sp, #4]	@ s32percent,
	bl	seq_printf	@
	mov	r0, r4	@, p
	movw	r1, #:lower16:.LC178	@,
	movt	r1, #:upper16:.LC178	@,
	bl	seq_printf	@
	ldr	lr, [r5, #1052]	@ D.40985, <variable>.u32VaVdmLoad
	mov	r0, r4	@, p
	movw	r1, #:lower16:.LC179	@,
	movw	r2, #:lower16:.LC180	@,
	movt	r1, #:upper16:.LC179	@,
	umull	ip, r3, r6, lr	@, tmp213, tmp214, D.40985
	movt	r2, #:upper16:.LC180	@,
	mov	r3, r3, lsr #3	@ tmp212, tmp213,
	add	ip, r3, r3, asl #2	@, tmp220, tmp212, tmp212,
	sub	ip, lr, ip, asl #1	@ tmp222, D.40985, tmp220,
	str	ip, [sp, #0]	@ tmp222,
	bl	seq_printf	@
	ldr	ip, [r7, #72]	@ <variable>.stInstCfg.s32DecFsHeight, <variable>.stInstCfg.s32DecFsHeight
	ldr	r3, [r7, #68]	@ <variable>.stInstCfg.s32DecFsWidth, <variable>.stInstCfg.s32DecFsWidth
	mov	r0, r4	@, p
	movw	r1, #:lower16:.LC181	@,
	movw	r2, #:lower16:.LC182	@,
	movt	r1, #:upper16:.LC181	@,
	movt	r2, #:upper16:.LC182	@,
	str	ip, [sp, #0]	@ <variable>.stInstCfg.s32DecFsHeight,
	bl	seq_printf	@
	ldr	ip, [r7, #88]	@ <variable>.stInstCfg.s32DispFsHeight, <variable>.stInstCfg.s32DispFsHeight
	mov	r0, r4	@, p
	ldr	r3, [r7, #84]	@ <variable>.stInstCfg.s32DispFsWidth, <variable>.stInstCfg.s32DispFsWidth
	movw	r1, #:lower16:.LC181	@,
	movw	r2, #:lower16:.LC183	@,
	movt	r1, #:upper16:.LC181	@,
	movt	r2, #:upper16:.LC183	@,
	str	ip, [sp, #0]	@ <variable>.stInstCfg.s32DispFsHeight,
	bl	seq_printf	@
	ldr	ip, [r5, #1120]	@ D.40996, <variable>.u32FrFrameRate
	mov	r0, r4	@, p
	movw	r1, #:lower16:.LC184	@,
	movw	r2, #:lower16:.LC185	@,
	movt	r1, #:upper16:.LC184	@,
	umull	lr, r3, r6, ip	@, tmp235, tmp214, D.40996
	movt	r2, #:upper16:.LC185	@,
	mov	r3, r3, lsr #3	@ tmp234, tmp235,
	add	r6, r3, r3, asl #2	@, tmp242, tmp234, tmp234,
	sub	ip, ip, r6, asl #1	@ tmp244, D.40996, tmp242,
	str	ip, [sp, #0]	@ tmp244,
	bl	seq_printf	@
	ldrb	ip, [r7, #9]	@ zero_extendqisi2	@ D.41005, <variable>.s32DecFsNum
	sxtb	r6, ip	@ D.41006, D.41005
	cmp	r6, #0	@ D.41006,
	movle	r5, #0	@ usedFrameNum,
	ble	.L523	@,
	add	r3, r7, #31744	@ ivtmp.2397, pFsp,
	add	r0, r6, r6, asl #1	@, tmp249, D.41006, D.41006,
	mov	r5, #0	@ usedFrameNum,
	ldrsb	r1, [r3, #146]!	@ <variable>.DispState, <variable>.DispState
	mov	lr, r0, asl #4	@ D.43423, tmp249,
	sub	r2, lr, #48	@ tmp266, D.43423,
	cmp	r1, #3	@ <variable>.DispState,
	ubfx	r1, r2, #4, #1	@ tmp270, tmp266,,
	beq	.L531	@,
	ldrsb	r2, [r3, #-2]	@ <variable>.IsDecRef, <variable>.IsDecRef
	cmp	r2, #1	@ <variable>.IsDecRef,
	beq	.L531	@,
.L532:
	mov	r2, #48	@ ivtmp.2398,
	cmp	r2, lr	@ ivtmp.2398, D.43423
	add	r3, r3, r2	@ ivtmp.2397, ivtmp.2397,
	beq	.L523	@,
	cmp	r1, #0	@ tmp270,
	beq	.L526	@,
	ldrsb	r1, [r3, #0]	@ <variable>.DispState, <variable>.DispState
	cmp	r1, #3	@ <variable>.DispState,
	beq	.L534	@,
	ldrsb	r0, [r3, #-2]	@ <variable>.IsDecRef, <variable>.IsDecRef
	cmp	r0, #1	@ <variable>.IsDecRef,
	beq	.L534	@,
	add	r2, r2, #48	@ ivtmp.2398, ivtmp.2398,
	add	r3, r3, #48	@ ivtmp.2397, ivtmp.2397,
	cmp	r2, lr	@ ivtmp.2398, D.43423
	bne	.L526	@,
.L523:
	cmp	ip, #0	@ D.41005,
	bne	.L551	@,
.L528:
	mov	r3, r6	@, D.41006
	mov	r0, r4	@, p
	movw	r1, #:lower16:.LC176	@,
	movw	r2, #:lower16:.LC186	@,
	movt	r1, #:upper16:.LC176	@,
	movt	r2, #:upper16:.LC186	@,
	stmia	sp, {r5, ip}	@ phole stm
	bl	seq_printf	@
	mov	r0, r4	@, p
	movw	r1, #:lower16:.LC187	@,
	movt	r1, #:upper16:.LC187	@,
	bl	seq_printf	@
	b	.L515	@
.L552:
	ldrsb	r0, [r3, #-2]	@ <variable>.IsDecRef, <variable>.IsDecRef
	cmp	r0, #1	@ <variable>.IsDecRef,
	beq	.L524	@,
	ldrsb	r3, [r3, #48]	@ <variable>.DispState, <variable>.DispState
	cmp	r3, #3	@ <variable>.DispState,
	beq	.L538	@,
.L543:
	ldrsb	r3, [r1, #-2]	@ <variable>.IsDecRef, <variable>.IsDecRef
	cmp	r3, #1	@ <variable>.IsDecRef,
	beq	.L538	@,
.L539:
	add	r2, r2, #48	@ ivtmp.2398, tmp272,
	add	r3, r1, #48	@ ivtmp.2397, tmp271,
	cmp	r2, lr	@ ivtmp.2398, D.43423
	beq	.L523	@,
.L526:
	ldrsb	r0, [r3, #0]	@ <variable>.DispState, <variable>.DispState
	add	r2, r2, #48	@ tmp272, ivtmp.2398,
	add	r1, r3, #48	@ tmp271, ivtmp.2397,
	cmp	r0, #3	@ <variable>.DispState,
	bne	.L552	@,
.L524:
	ldrsb	r3, [r3, #48]	@ <variable>.DispState, <variable>.DispState
	add	r5, r5, #1	@ usedFrameNum, usedFrameNum,
	cmp	r3, #3	@ <variable>.DispState,
	bne	.L543	@,
.L538:
	add	r5, r5, #1	@ usedFrameNum, usedFrameNum,
	b	.L539	@
.L551:
	mov	lr, #100	@ tmp254,
	mov	r1, r6	@, D.41006
	mul	r0, lr, r5	@, tmp254, usedFrameNum
	bl	__aeabi_idiv	@
	mov	ip, r0	@ s32percent.2401,
	b	.L528	@
.L550:
	ldr	r3, [fp, #-60]	@ SegSize, SegSize
	mov	r9, #100	@ tmp186,
	mov	r1, r8	@, BufSize
	mul	r0, r9, r3	@, tmp186, SegSize
	bl	__aeabi_idiv	@
	mov	r9, r0	@ s32percent,
	b	.L521	@
.L531:
	mov	r5, #1	@ usedFrameNum,
	b	.L532	@
.L534:
	add	r2, r2, #48	@ ivtmp.2398, ivtmp.2398,
	add	r5, r5, #1	@ usedFrameNum, usedFrameNum,
	cmp	r2, lr	@ ivtmp.2398, D.43423
	add	r3, r3, #48	@ ivtmp.2397, ivtmp.2397,
	bne	.L526	@,
	b	.L523	@
.L549:
	movw	r1, #:lower16:.LC152	@,
	ldr	r2, .L553	@,
	movt	r1, #:upper16:.LC152	@,
	movw	r3, #7999	@,
	mov	r0, #0	@,
	bl	dprint_vfmw	@
	b	.L519	@
.L548:
	movw	r1, #:lower16:.LC152	@,
	ldr	r2, .L553	@,
	movt	r1, #:upper16:.LC152	@,
	movw	r3, #7994	@,
	mov	r0, #0	@,
	bl	dprint_vfmw	@
	b	.L518	@
.L547:
	movw	r1, #:lower16:.LC152	@,
	ldr	r2, .L553	@,
	movt	r1, #:upper16:.LC152	@,
	movw	r3, #7989	@,
	mov	r0, #0	@,
	bl	dprint_vfmw	@
	b	.L517	@
.L546:
	movw	r1, #:lower16:.LC152	@,
	ldr	r2, .L553	@,
	movt	r1, #:upper16:.LC152	@,
	movw	r3, #7984	@,
	mov	r0, #0	@,
	bl	dprint_vfmw	@
	b	.L516	@
.L554:
	.align	2
.L553:
	.word	.LANCHOR1+200
	.fnend
	.size	vfmw_read_proc_info, .-vfmw_read_proc_info
	.align	2
	.global	VCTRL_OutputLastFrame
	.type	VCTRL_OutputLastFrame, %function
VCTRL_OutputLastFrame:
	.fnstart
.LFB1610:
	@ args = 0, pretend = 0, frame = 8
	@ frame_needed = 1, uses_anonymous_args = 0
	.movsp ip
	mov	ip, sp	@,
	stmfd	sp!, {r4, r5, r6, fp, ip, lr, pc}	@,
	.pad #4
	.save {r4, r5, r6, fp, ip, lr}
	.setfp fp, ip, #-4
	sub	fp, ip, #4	@,,
	.pad #12
	sub	sp, sp, #12	@,,
	push	{lr}
	bl	__gnu_mcount_nc
	movw	r5, #:lower16:.LANCHOR0	@ tmp190,
	movt	r5, #:upper16:.LANCHOR0	@ tmp190,
	mov	r6, r0	@ ChanId, ChanId
	movw	r1, #:lower16:220000	@ tmp142,
	movt	r1, #:upper16:220000	@ tmp142,
	ldr	r0, [r5, r0, asl #2]	@ D.40845, s_pstVfmwChan
	ldr	r3, [r0, r1]	@ <variable>.stSynCtx.eVidStd, <variable>.stSynCtx.eVidStd
	cmp	r3, #15	@ <variable>.stSynCtx.eVidStd,
	ldrls	pc, [pc, r3, asl #2]	@ <variable>.stSynCtx.eVidStd
	b	.L556	@
.L568:
	.word	.L557
	.word	.L558
	.word	.L559
	.word	.L560
	.word	.L556
	.word	.L561
	.word	.L562
	.word	.L556
	.word	.L563
	.word	.L564
	.word	.L565
	.word	.L565
	.word	.L565
	.word	.L566
	.word	.L556
	.word	.L567
.L567:
	add	ip, r0, #219136	@, D.40845,
	add	r0, ip, #872	@,,
	bl	MVC_DEC_GetRemainImg	@
	mov	r4, r0	@ ret,
.L569:
	cmn	r4, #1	@ ret,
	beq	.L571	@,
	cmp	r4, #0	@ ret,
	bne	.L582	@,
	ldr	r3, [r5, #68]	@ g_event_report.2433, g_event_report
	cmp	r3, #0	@ g_event_report.2433,
	beq	.L575	@,
	sub	r2, fp, #28	@ tmp172,,
	mov	r0, r6	@, ChanId
	mov	r1, #115	@,
	str	r4, [r2, #-4]!	@ ret, para
	blx	r3	@ g_event_report.2433
.L575:
	movw	r1, #:lower16:.LC189	@,
	mov	r0, #2	@,
	movt	r1, #:upper16:.LC189	@,
	bl	dprint_vfmw	@
.L574:
	mov	r0, r4	@, ret
	sub	sp, fp, #24
	ldmfd	sp, {r4, r5, r6, fp, sp, pc}
.L556:
	mvn	r4, #0	@ ret,
.L571:
	ldr	r3, [r5, #68]	@ g_event_report.789, g_event_report
	cmp	r3, #0	@ g_event_report.789,
	beq	.L573	@,
	sub	r2, fp, #28	@ tmp168,,
	mov	lr, #1	@ tmp167,
	mov	r0, r6	@, ChanId
	mov	r1, #115	@,
	str	lr, [r2, #-4]!	@ tmp167, para
	blx	r3	@ g_event_report.789
.L573:
	movw	r1, #:lower16:.LC188	@,
	mov	r0, #2	@,
	movt	r1, #:upper16:.LC188	@,
	bl	dprint_vfmw	@
	b	.L574	@
.L557:
	add	r4, r0, #219136	@, D.40845,
	add	r0, r4, #872	@,,
	bl	H264DEC_GetRemainImg	@
	mov	r4, r0	@ ret,
	b	.L569	@
.L558:
	add	r0, r0, #219136	@, D.40845,
	add	r0, r0, #872	@,,
	bl	VC1DEC_GetRemainImg	@
	mov	r4, r0	@ ret,
	b	.L569	@
.L559:
	add	r2, r0, #219136	@, D.40845,
	add	r0, r2, #872	@,,
	bl	MPEG4DEC_GetRemainImg	@
	mov	r4, r0	@ ret,
	b	.L569	@
.L560:
	add	r0, r0, #219136	@, D.40845,
	add	r0, r0, #872	@,,
	bl	MPEG2DEC_GetRemainImg	@
	mov	r4, r0	@ ret,
	b	.L569	@
.L561:
	add	r1, r0, #219136	@, D.40845,
	add	r0, r1, #872	@,,
	bl	DIVX3DEC_GetRemainImg	@
	mov	r4, r0	@ ret,
	b	.L569	@
.L562:
	add	ip, r0, #219136	@, D.40845,
	add	r0, ip, #872	@,,
	bl	AVSDEC_GetRemainImg	@
	mov	r4, r0	@ ret,
	b	.L569	@
.L563:
	add	lr, r0, #219136	@, D.40845,
	add	r0, lr, #872	@,,
	bl	REAL8DEC_GetRemainImg	@
	mov	r4, r0	@ ret,
	b	.L569	@
.L564:
	add	r3, r0, #219136	@, D.40845,
	add	r0, r3, #872	@,,
	bl	REAL9DEC_GetRemainImg	@
	mov	r4, r0	@ ret,
	b	.L569	@
.L565:
	add	r2, r0, #219136	@, D.40845,
	add	r0, r2, #872	@,,
	bl	VP6DEC_GetRemainImg	@
	mov	r4, r0	@ ret,
	b	.L569	@
.L566:
	add	r4, r0, #219136	@, D.40845,
	add	r0, r4, #872	@,,
	bl	VP8DEC_GetRemainImg	@
	mov	r4, r0	@ ret,
	b	.L569	@
.L582:
	movw	r3, #:lower16:g_chipID	@ tmp174,
	movt	r3, #:upper16:g_chipID	@ tmp174,
	ldr	r3, [r3, #0]	@ g_chipID, g_chipID
	cmp	r3, #11	@ g_chipID,
	bhi	.L574	@,
	mov	r1, #1	@ tmp177,
	mov	r3, r1, asl r3	@ tmp176, tmp177,
	tst	r3, #3904	@ tmp176,
	bne	.L577	@,
	tst	r3, #63	@ tmp176,
	beq	.L574	@,
	ldr	r3, [r5, #68]	@ g_event_report.2434, g_event_report
	cmp	r3, #0	@ g_event_report.2434,
	beq	.L578	@,
	sub	r2, fp, #28	@ tmp182,,
	mov	r0, r6	@, ChanId
	mov	r1, #115	@,
	str	r4, [r2, #-4]!	@ ret, para
	blx	r3	@ g_event_report.2434
.L578:
	movw	r1, #:lower16:.LC190	@,
	sub	r2, r4, #2	@, ret,
	movt	r1, #:upper16:.LC190	@,
	mov	r0, #2	@,
	bl	dprint_vfmw	@
	b	.L574	@
.L577:
	ldr	r3, [r5, #68]	@ g_event_report.2435, g_event_report
	cmp	r3, #0	@ g_event_report.2435,
	beq	.L579	@,
	sub	r2, fp, #28	@ tmp186,,
	mov	r0, r6	@, ChanId
	mov	r1, #115	@,
	str	r4, [r2, #-4]!	@ ret, para
	blx	r3	@ g_event_report.2435
.L579:
	movw	r1, #:lower16:.LC190	@,
	sub	r2, r4, #2	@, ret,
	movt	r1, #:upper16:.LC190	@,
	mov	r0, #2	@,
	bl	dprint_vfmw	@
	b	.L574	@
	.fnend
	.size	VCTRL_OutputLastFrame, .-VCTRL_OutputLastFrame
	.align	2
	.global	Save2DYuv
	.type	Save2DYuv, %function
Save2DYuv:
	.fnstart
.LFB1603:
	@ args = 8, pretend = 0, frame = 16
	@ frame_needed = 1, uses_anonymous_args = 0
	.movsp ip
	mov	ip, sp	@,
	stmfd	sp!, {r4, r5, r6, r7, r8, r9, sl, fp, ip, lr, pc}	@,
	.pad #4
	.save {r4, r5, r6, r7, r8, r9, sl, fp, ip, lr}
	.setfp fp, ip, #-4
	sub	fp, ip, #4	@,,
	.pad #20
	sub	sp, sp, #20	@,,
	push	{lr}
	bl	__gnu_mcount_nc
	mov	r6, r3	@ Height, Height
	mov	r3, r2, asl #1	@ tmp157, Width,
	str	r1, [fp, #-52]	@ ChromOfst, %sfp
	mov	sl, r2	@ Width, Width
	mov	r2, #0	@,
	mul	r1, r6, r3	@, Height, tmp157
	ldr	r8, [fp, #8]	@ fp, fp
	bl	__arm_ioremap	@
	subs	r7, r0, #0	@ pFrameStore,
	beq	.L594	@,
	mul	r4, sl, r6	@ D.40414, Width, Height
	add	r0, r4, r4, lsr #31	@, tmp160, D.40414, D.40414,
	mov	r1, r0, asr #1	@, tmp160,
	str	r1, [fp, #-56]	@, %sfp
	add	r0, r1, #1024	@,,
	bl	OSAL_AllocVirMem	@
	cmp	r0, #0	@
	str	r0, [fp, #-48]	@, %sfp
	beq	.L585	@,
	cmp	r6, #0	@ Height,
	ble	.L586	@,
	mov	r0, r7	@, pFrameStore
	mov	r1, r4	@, D.40414
	mov	r2, r8	@, fp
	sub	r5, r6, #1	@ tmp184, Height,
	bl	klib_fwrite	@
	cmp	r6, #1	@ Height,
	and	r9, r5, #1	@ tmp186, tmp184,
	mov	r5, #1	@ y,
	ble	.L586	@,
	cmp	r9, #0	@ tmp186,
	beq	.L587	@,
	mov	r0, r7	@, pFrameStore
	mov	r1, r4	@, D.40414
	mov	r2, r8	@, fp
	mov	r5, #2	@ y,
	bl	klib_fwrite	@
	cmp	r6, r5	@ Height, y
	ble	.L586	@,
.L587:
	mov	r1, r4	@, D.40414
	mov	r2, r8	@, fp
	add	r9, r5, #1	@ tmp187, y,
	mov	r0, r7	@, pFrameStore
	bl	klib_fwrite	@
	add	r5, r9, #1	@ y, tmp187,
	mov	r0, r7	@, pFrameStore
	mov	r1, r4	@, D.40414
	mov	r2, r8	@, fp
	bl	klib_fwrite	@
	cmp	r6, r5	@ Height, y
	bgt	.L587	@,
.L586:
	add	r6, r6, r6, lsr #31	@, tmp164, Height, Height,
	mov	r9, r6, asr #1	@ D.40429, tmp164,
	cmp	r9, #0	@ D.40429,
	ble	.L588	@,
	ldr	r6, [fp, #-52]	@, %sfp
	add	r2, r4, #3	@ tmp168, D.40414,
	cmp	r4, #0	@ D.40414,
	ldr	r5, [fp, #-48]	@ pU, %sfp
	add	sl, sl, sl, lsr #31	@, tmp171, Width, Width,
	str	r7, [fp, #-52]	@ pFrameStore, %sfp
	movlt	r4, r2	@ D.40414, tmp168
	add	r2, r7, r6	@ pChrom, pFrameStore,
	ldr	r7, [fp, #4]	@ Stride, Stride
	add	lr, r5, r4, asr #2	@, pV, pU, D.40414,
	mov	r6, sl, asr #1	@ pretmp.2456, tmp171,
	mov	sl, #0	@ y.2489,
.L589:
	cmp	r6, #0	@ pretmp.2456,
	ble	.L592	@,
	ldrb	r1, [r2, #0]	@ zero_extendqisi2	@ tmp173,* pChrom
	mov	r3, #1	@ x,
	cmp	r3, r6	@ x, pretmp.2456
	sub	ip, r6, #1	@ tmp179, pretmp.2456,
	and	ip, ip, r3	@ tmp181, tmp179,
	mov	r0, #2	@ ivtmp.2472,
	strb	r1, [r5, #0]	@ tmp173,* pU
	ldrb	r1, [r2, #1]	@ zero_extendqisi2	@ tmp175,
	strb	r1, [lr, #0]	@ tmp175,* pV
	beq	.L607	@,
	cmp	ip, #0	@ tmp181,
	beq	.L590	@,
	ldrb	ip, [r2, r3]	@ zero_extendqisi2	@ tmp198,* x
	cmp	r0, r6	@ x, pretmp.2456
	strb	ip, [r5, r3]	@ tmp198,* x
	ldrb	r1, [r2, r0]	@ zero_extendqisi2	@ tmp199,* ivtmp.2472
	strb	r1, [lr, r3]	@ tmp199,* x
	mov	r3, r0	@ x, ivtmp.2472
	mov	r0, #3	@ ivtmp.2472,
	beq	.L607	@,
.L590:
	ldrb	r4, [r2, r3]	@ zero_extendqisi2	@ tmp192,* x
	add	r1, r3, #1	@ tmp182, x,
	add	ip, r0, #1	@ tmp183, ivtmp.2472,
	strb	r4, [r5, r3]	@ tmp192,* x
	ldrb	r4, [r2, r0]	@ zero_extendqisi2	@ tmp193,* ivtmp.2472
	add	r0, ip, #1	@ ivtmp.2472, tmp183,
	strb	r4, [lr, r3]	@ tmp193,* x
	add	r3, r1, #1	@ x, tmp182,
	ldrb	r4, [r2, r1]	@ zero_extendqisi2	@ tmp196,
	cmp	r3, r6	@ x, pretmp.2456
	strb	r4, [r5, r1]	@ tmp196,
	ldrb	ip, [r2, ip]	@ zero_extendqisi2	@ tmp197,
	strb	ip, [lr, r1]	@ tmp197,
	bne	.L590	@,
.L607:
	add	r5, r5, r6	@ pU, pU, pretmp.2456
	add	lr, lr, r6	@ pV, pV, pretmp.2456
.L592:
	add	sl, sl, #1	@ y.2489, y.2489,
	cmp	sl, r9	@ y.2489, D.40429
	addne	r2, r2, r7	@ pChrom, pChrom, Stride
	bne	.L589	@
.L608:
	ldr	r7, [fp, #-52]	@ pFrameStore, %sfp
.L588:
	ldr	r1, [fp, #-56]	@, %sfp
	mov	r2, r8	@, fp
	ldr	r0, [fp, #-48]	@, %sfp
	bl	klib_fwrite	@
.L585:
	mov	r0, r7	@, pFrameStore
	bl	__arm_iounmap	@
	ldr	r3, [fp, #-48]	@, %sfp
	cmp	r3, #0	@,
	beq	.L594	@,
	ldr	r0, [fp, #-48]	@, %sfp
	bl	OSAL_FreeVirMem	@
.L594:
	sub	sp, fp, #40
	ldmfd	sp, {r4, r5, r6, r7, r8, r9, sl, fp, sp, pc}
	.fnend
	.size	Save2DYuv, .-Save2DYuv
	.align	2
	.global	VCTRL_EnableAllInt
	.type	VCTRL_EnableAllInt, %function
VCTRL_EnableAllInt:
	.fnstart
.LFB1602:
	@ args = 0, pretend = 0, frame = 0
	@ frame_needed = 1, uses_anonymous_args = 0
	.movsp ip
	mov	ip, sp	@,
	stmfd	sp!, {fp, ip, lr, pc}	@,
	.pad #4
	.save {fp, ip, lr}
	.setfp fp, ip, #-4
	sub	fp, ip, #4	@,,
	push	{lr}
	bl	__gnu_mcount_nc
	movw	r3, #:lower16:g_vdm_hal_fun_ptr	@ tmp134,
	movt	r3, #:upper16:g_vdm_hal_fun_ptr	@ tmp134,
	ldr	r3, [r3, #60]	@ D.40376, g_vdm_hal_fun_ptr.pfun_VDMHAL_EnableInt
	cmp	r3, #0	@ D.40376,
	beq	.L617	@,
	mov	r0, #0	@,
	blx	r3	@ D.40376
	bl	SCDDRV_EnableInt	@
	ldmfd	sp, {fp, sp, pc}	@
.L617:
	mov	r0, r3	@, D.40376
	movw	r2, #7090	@,
	movw	r1, #:lower16:.LC191	@,
	movt	r1, #:upper16:.LC191	@,
	bl	dprint_vfmw	@
	bl	SCDDRV_EnableInt	@
	ldmfd	sp, {fp, sp, pc}	@
	.fnend
	.size	VCTRL_EnableAllInt, .-VCTRL_EnableAllInt
	.align	2
	.global	VCTRL_MaskAllInt
	.type	VCTRL_MaskAllInt, %function
VCTRL_MaskAllInt:
	.fnstart
.LFB1601:
	@ args = 0, pretend = 0, frame = 0
	@ frame_needed = 1, uses_anonymous_args = 0
	.movsp ip
	mov	ip, sp	@,
	stmfd	sp!, {fp, ip, lr, pc}	@,
	.pad #4
	.save {fp, ip, lr}
	.setfp fp, ip, #-4
	sub	fp, ip, #4	@,,
	push	{lr}
	bl	__gnu_mcount_nc
	movw	r3, #:lower16:g_vdm_hal_fun_ptr	@ tmp134,
	movt	r3, #:upper16:g_vdm_hal_fun_ptr	@ tmp134,
	ldr	r3, [r3, #56]	@ D.40364, g_vdm_hal_fun_ptr.pfun_VDMHAL_MaskInt
	cmp	r3, #0	@ D.40364,
	beq	.L622	@,
	mov	r0, #0	@,
	blx	r3	@ D.40364
	bl	SCDDRV_MaskInt	@
	ldmfd	sp, {fp, sp, pc}	@
.L622:
	mov	r0, r3	@, D.40364
	movw	r2, #7064	@,
	movw	r1, #:lower16:.LC191	@,
	movt	r1, #:upper16:.LC191	@,
	bl	dprint_vfmw	@
	bl	SCDDRV_MaskInt	@
	ldmfd	sp, {fp, sp, pc}	@
	.fnend
	.size	VCTRL_MaskAllInt, .-VCTRL_MaskAllInt
	.align	2
	.global	VCTRL_GetChanImgNum
	.type	VCTRL_GetChanImgNum, %function
VCTRL_GetChanImgNum:
	.fnstart
.LFB1594:
	@ args = 0, pretend = 0, frame = 0
	@ frame_needed = 1, uses_anonymous_args = 0
	.movsp ip
	mov	ip, sp	@,
	stmfd	sp!, {r3, r4, r5, r6, r7, r8, fp, ip, lr, pc}	@,
	.pad #4
	.save {r3, r4, r5, r6, r7, r8, fp, ip, lr}
	.setfp fp, ip, #-4
	sub	fp, ip, #4	@,,
	push	{lr}
	bl	__gnu_mcount_nc
	movw	r4, #:lower16:.LANCHOR0	@ tmp140,
	movt	r4, #:upper16:.LANCHOR0	@ tmp140,
	mov	r5, r0	@ ChanID, ChanID
	mov	r6, r1	@ pRefImgNum, pRefImgNum
	mov	r7, r2	@ pReadImgNum, pReadImgNum
	ldr	ip, [r4, r0, asl #2]	@ tmp141, s_pstVfmwChan
	mov	r8, r3	@ pNewImgNum, pNewImgNum
	cmp	ip, #0	@ tmp141,
	beq	.L630	@,
	bl	VCTRL_GetChanVoQue	@
	subs	r3, r0, #0	@ pstVoQue,
	streq	r3, [r8, #0]	@ pstVoQue,* pNewImgNum
	streq	r3, [r7, #0]	@ pstVoQue,* pReadImgNum
	streq	r3, [r6, #0]	@ pstVoQue,* pRefImgNum
	ldmeqfd	sp, {r3, r4, r5, r6, r7, r8, fp, sp, pc}	@
	mov	r2, r8	@, pNewImgNum
	mov	r1, r7	@, pReadImgNum
	bl	GetQueueImgNum	@
	ldr	r2, [r4, r5, asl #2]	@ temp.2559, s_pstVfmwChan
	ldr	r3, [r2, #944]	@ D.40205, <variable>.eVidStd
	cmp	r3, #0	@ D.40205,
	beq	.L631	@,
	cmp	r3, #15	@ D.40205,
	movweq	r3, #:lower16:11388620	@ tmp147,
	movteq	r3, #:upper16:11388620	@ tmp147,
	movne	r3, #2	@ tmp149,
	ldreq	r3, [r2, r3]	@ <variable>.stSynCtx.unSyntax.stMvcCtx.DPB.size,
	str	r3, [r6, #0]	@ tmp149,* pRefImgNum
	ldmfd	sp, {r3, r4, r5, r6, r7, r8, fp, sp, pc}	@
.L631:
	movw	r1, #:lower16:246624	@ tmp145,
	movt	r1, #:upper16:246624	@ tmp145,
	ldr	r0, [r2, r1]	@ <variable>.stSynCtx.unSyntax.stH264Ctx.DPB.size,
	str	r0, [r6, #0]	@ <variable>.stSynCtx.unSyntax.stH264Ctx.DPB.size,* pRefImgNum
	ldmfd	sp, {r3, r4, r5, r6, r7, r8, fp, sp, pc}	@
.L630:
	mov	r0, ip	@, tmp141
	movw	r1, #:lower16:.LC1	@,
	movw	r2, #6805	@,
	movt	r1, #:upper16:.LC1	@,
	movw	r3, #:lower16:.LC6	@,
	movt	r3, #:upper16:.LC6	@,
	bl	dprint_vfmw	@
	ldmfd	sp, {r3, r4, r5, r6, r7, r8, fp, sp, pc}	@
	.fnend
	.size	VCTRL_GetChanImgNum, .-VCTRL_GetChanImgNum
	.align	2
	.global	vfmw_read_proc_dec
	.type	vfmw_read_proc_dec, %function
vfmw_read_proc_dec:
	.fnstart
.LFB1621:
	@ args = 0, pretend = 0, frame = 40
	@ frame_needed = 1, uses_anonymous_args = 0
	.movsp ip
	mov	ip, sp	@,
	stmfd	sp!, {r4, r5, r6, r7, r8, r9, sl, fp, ip, lr, pc}	@,
	.pad #4
	.save {r4, r5, r6, r7, r8, r9, sl, fp, ip, lr}
	.setfp fp, ip, #-4
	sub	fp, ip, #4	@,,
	.pad #68
	sub	sp, sp, #68	@,,
	push	{lr}
	bl	__gnu_mcount_nc
	movw	r1, #:lower16:.LC192	@,
	movt	r1, #:upper16:.LC192	@,
	mov	r4, r0	@ p, p
	bl	seq_printf	@
	movw	r1, #:lower16:USE_FF_APT_EN	@ tmp162,
	movt	r1, #:upper16:USE_FF_APT_EN	@ tmp162,
	movw	r2, #:lower16:.LANCHOR0	@,
	mov	r0, r4	@, p
	movt	r2, #:upper16:.LANCHOR0	@,
	ldr	r3, [r1, #0]	@, USE_FF_APT_EN
	movw	r1, #:lower16:.LC50	@,
	str	r2, [fp, #-64]	@, %sfp
	movt	r1, #:upper16:.LC50	@,
	movw	r2, #:lower16:.LC136	@,
	movt	r2, #:upper16:.LC136	@,
	bl	seq_printf	@
	ldr	r0, [fp, #-64]	@, %sfp
	movw	r3, #:lower16:s_pFspInst	@ tmp165,
	movt	r3, #:upper16:s_pFspInst	@ tmp165,
	ldr	r9, [r0, #1036]	@ i, g_CurProcChan
	ldr	r8, [r3, r9, asl #2]	@ pFsp, s_pFspInst
	cmp	r8, #0	@ pFsp,
	beq	.L651	@,
	ldr	r6, [fp, #-64]	@, %sfp
	ldr	sl, [r6, r9, asl #2]	@ pChan, s_pstVfmwChan
	cmp	sl, #0	@ pChan,
	beq	.L634	@,
	add	ip, r9, #32	@ tmp169, i,
	movw	lr, #:lower16:g_ChanCtx	@ tmp168,
	movt	lr, #:upper16:g_ChanCtx	@ tmp168,
	sub	r3, fp, #56	@,,
	sub	r1, fp, #48	@,,
	sub	r2, fp, #52	@,,
	mov	r0, r9	@, i
	ldr	r6, [lr, ip, asl #2]	@ D.41173, g_ChanCtx.ChanDecByVdhPlusOne
	bl	VCTRL_GetChanImgNum	@
	mov	r0, r9	@, i
	bl	VCTRL_GetChanVoQue	@
	mov	r2, r9	@, i
	movw	r1, #:lower16:.LC194	@,
	movt	r1, #:upper16:.LC194	@,
	cmp	r0, #0	@ pstDecQue
	streq	r0, [fp, #-80]	@ pstDecQue, %sfp
	streq	r0, [fp, #-72]	@ pstDecQue, %sfp
	ldrneh	r7, [r0, #8]	@, <variable>.tail
	streq	r0, [fp, #-84]	@ pstDecQue, %sfp
	strne	r7, [fp, #-80]	@, %sfp
	ldrneh	ip, [r0, #4]	@, <variable>.history
	strne	ip, [fp, #-84]	@, %sfp
	ldrneh	r0, [r0, #6]	@, <variable>.head
	strne	r0, [fp, #-72]	@, %sfp
	mov	r0, r4	@, p
	bl	seq_printf	@
	sub	r3, r6, #1	@, D.41173,
	mov	r0, r4	@, p
	movw	r1, #:lower16:.LC50	@,
	movw	r2, #:lower16:.LC195	@,
	movt	r1, #:upper16:.LC50	@,
	movt	r2, #:upper16:.LC195	@,
	bl	seq_printf	@
	ldr	r3, [sl, #12]	@, <variable>.s32IsOpen
	mov	r0, r4	@, p
	movw	r1, #:lower16:.LC50	@,
	movw	r2, #:lower16:.LC196	@,
	movt	r1, #:upper16:.LC50	@,
	movt	r2, #:upper16:.LC196	@,
	bl	seq_printf	@
	ldr	r3, [sl, #16]	@, <variable>.s32IsRun
	mov	r0, r4	@, p
	movw	r1, #:lower16:.LC50	@,
	movw	r2, #:lower16:.LC197	@,
	movt	r1, #:upper16:.LC50	@,
	movt	r2, #:upper16:.LC197	@,
	bl	seq_printf	@
	ldr	r3, [sl, #20]	@, <variable>.s32Priority
	mov	r0, r4	@, p
	movw	r1, #:lower16:.LC50	@,
	movw	r2, #:lower16:.LC198	@,
	movt	r1, #:upper16:.LC50	@,
	movt	r2, #:upper16:.LC198	@,
	bl	seq_printf	@
	ldr	r3, [sl, #944]	@, <variable>.eVidStd
	mov	r0, r4	@, p
	movw	r1, #:lower16:.LC50	@,
	movw	r2, #:lower16:.LC199	@,
	movt	r1, #:upper16:.LC50	@,
	movt	r2, #:upper16:.LC199	@,
	bl	seq_printf	@
	ldr	r3, [sl, #56]	@, <variable>.stChanCfg.s32ChanErrThr
	mov	r0, r4	@, p
	movw	r1, #:lower16:.LC50	@,
	movw	r2, #:lower16:.LC200	@,
	movt	r1, #:upper16:.LC50	@,
	movt	r2, #:upper16:.LC200	@,
	bl	seq_printf	@
	ldr	r3, [sl, #60]	@, <variable>.stChanCfg.s32ChanStrmOFThr
	mov	r0, r4	@, p
	movw	r1, #:lower16:.LC50	@,
	movw	r2, #:lower16:.LC201	@,
	movt	r1, #:upper16:.LC50	@,
	movt	r2, #:upper16:.LC201	@,
	bl	seq_printf	@
	ldr	r3, [sl, #64]	@, <variable>.stChanCfg.s32DecMode
	mov	r0, r4	@, p
	movw	r1, #:lower16:.LC50	@,
	movw	r2, #:lower16:.LC202	@,
	movt	r1, #:upper16:.LC50	@,
	movt	r2, #:upper16:.LC202	@,
	bl	seq_printf	@
	ldr	r3, [sl, #68]	@, <variable>.stChanCfg.s32DecOrderOutput
	mov	r0, r4	@, p
	movw	r1, #:lower16:.LC50	@,
	movw	r2, #:lower16:.LC203	@,
	movt	r1, #:upper16:.LC50	@,
	movt	r2, #:upper16:.LC203	@,
	bl	seq_printf	@
	ldr	r3, [sl, #116]	@, <variable>.stChanCfg.s32LowdBufEnable
	mov	r0, r4	@, p
	movw	r1, #:lower16:.LC50	@,
	movw	r2, #:lower16:.LC204	@,
	movt	r1, #:upper16:.LC50	@,
	movt	r2, #:upper16:.LC204	@,
	bl	seq_printf	@
	ldr	r3, [sl, #44]	@, <variable>.stChanCfg.StdExt.Vc1Ext.IsAdvProfile
	mov	r0, r4	@, p
	movw	r1, #:lower16:.LC50	@,
	movw	r2, #:lower16:.LC205	@,
	movt	r1, #:upper16:.LC50	@,
	movt	r2, #:upper16:.LC205	@,
	bl	seq_printf	@
	ldr	r3, [sl, #48]	@, <variable>.stChanCfg.StdExt.Vc1Ext.CodecVersion
	mov	r0, r4	@, p
	movw	r1, #:lower16:.LC50	@,
	movw	r2, #:lower16:.LC206	@,
	movt	r1, #:upper16:.LC50	@,
	movt	r2, #:upper16:.LC206	@,
	bl	seq_printf	@
	ldr	r3, [sl, #44]	@, <variable>.stChanCfg.StdExt.Vp6Ext.bReversed
	mov	r0, r4	@, p
	movw	r1, #:lower16:.LC50	@,
	movw	r2, #:lower16:.LC207	@,
	movt	r1, #:upper16:.LC50	@,
	movt	r2, #:upper16:.LC207	@,
	bl	seq_printf	@
	ldr	r3, [sl, #184]	@, <variable>.stChanMem_vdh.PhyAddr
	mov	r0, r4	@, p
	movw	r1, #:lower16:.LC147	@,
	movw	r2, #:lower16:.LC208	@,
	movt	r1, #:upper16:.LC147	@,
	movt	r2, #:upper16:.LC208	@,
	bl	seq_printf	@
	ldr	r3, [sl, #192]	@, <variable>.stChanMem_vdh.Length
	mov	r0, r4	@, p
	movw	r1, #:lower16:.LC50	@,
	movw	r2, #:lower16:.LC209	@,
	movt	r1, #:upper16:.LC50	@,
	movt	r2, #:upper16:.LC209	@,
	bl	seq_printf	@
	ldr	r3, [sl, #196]	@, <variable>.stChanMem_scd.PhyAddr
	mov	r0, r4	@, p
	movw	r1, #:lower16:.LC147	@,
	movw	r2, #:lower16:.LC210	@,
	movt	r1, #:upper16:.LC147	@,
	movt	r2, #:upper16:.LC210	@,
	bl	seq_printf	@
	ldr	r3, [sl, #204]	@, <variable>.stChanMem_scd.Length
	mov	r0, r4	@, p
	movw	r1, #:lower16:.LC50	@,
	movw	r2, #:lower16:.LC211	@,
	movt	r1, #:upper16:.LC50	@,
	movt	r2, #:upper16:.LC211	@,
	bl	seq_printf	@
	ldr	r3, [sl, #252]	@, <variable>.s32SdecMemAddr
	mov	r0, r4	@, p
	movw	r1, #:lower16:.LC147	@,
	movw	r2, #:lower16:.LC212	@,
	movt	r1, #:upper16:.LC147	@,
	movt	r2, #:upper16:.LC212	@,
	bl	seq_printf	@
	ldr	r3, [sl, #256]	@, <variable>.s32SdecMemSize
	mov	r0, r4	@, p
	movw	r1, #:lower16:.LC50	@,
	movw	r2, #:lower16:.LC213	@,
	movt	r1, #:upper16:.LC50	@,
	movt	r2, #:upper16:.LC213	@,
	bl	seq_printf	@
	ldr	r3, [sl, #240]	@, <variable>.s32OffLineDnrMemAddr
	mov	r0, r4	@, p
	movw	r1, #:lower16:.LC147	@,
	movw	r2, #:lower16:.LC214	@,
	movt	r1, #:upper16:.LC147	@,
	movt	r2, #:upper16:.LC214	@,
	bl	seq_printf	@
	ldr	r3, [sl, #244]	@, <variable>.s32OffLineDNRMemSize
	mov	r0, r4	@, p
	movw	r1, #:lower16:.LC50	@,
	movw	r2, #:lower16:.LC215	@,
	movt	r1, #:upper16:.LC50	@,
	movt	r2, #:upper16:.LC215	@,
	bl	seq_printf	@
	ldr	r3, [sl, #232]	@, <variable>.s32VdmChanMemAddr
	mov	r0, r4	@, p
	movw	r1, #:lower16:.LC147	@,
	movw	r2, #:lower16:.LC216	@,
	movt	r1, #:upper16:.LC147	@,
	movt	r2, #:upper16:.LC216	@,
	bl	seq_printf	@
	mov	r0, r4	@, p
	movw	r1, #:lower16:.LC50	@,
	movw	r2, #:lower16:.LC217	@,
	movt	r1, #:upper16:.LC50	@,
	movt	r2, #:upper16:.LC217	@,
	ldr	r3, [sl, #236]	@, <variable>.s32VdmChanMemSize
	bl	seq_printf	@
	ldr	r5, [sl, #944]	@ <variable>.eVidStd, <variable>.eVidStd
	cmp	r5, #18	@ <variable>.eVidStd,
	beq	.L652	@,
.L637:
	ldr	r3, [sl, #248]	@, <variable>.s32ScdChanMemAddr
	mov	r0, r4	@, p
	movw	r1, #:lower16:.LC147	@,
	movw	r2, #:lower16:.LC219	@,
	movt	r1, #:upper16:.LC147	@,
	movt	r2, #:upper16:.LC219	@,
	bl	seq_printf	@
	ldr	r3, [sl, #260]	@, <variable>.s32ScdChanMemSize
	mov	r0, r4	@, p
	movw	r1, #:lower16:.LC50	@,
	movw	r2, #:lower16:.LC220	@,
	movt	r1, #:upper16:.LC50	@,
	movt	r2, #:upper16:.LC220	@,
	movw	r7, #:lower16:-858993459	@,
	bl	seq_printf	@
	ldr	ip, [fp, #-52]	@ ReadNum, ReadNum
	ldr	r6, [fp, #-56]	@ NewNum, NewNum
	mov	r0, r4	@, p
	ldr	r3, [fp, #-48]	@, RefNum
	movw	r1, #:lower16:.LC221	@,
	movw	r2, #:lower16:.LC222	@,
	movt	r1, #:upper16:.LC221	@,
	movt	r2, #:upper16:.LC222	@,
	str	ip, [sp, #0]	@ ReadNum,
	str	r6, [sp, #4]	@ NewNum,
	movt	r7, #:upper16:-858993459	@,
	str	r7, [fp, #-68]	@, %sfp
	bl	seq_printf	@
	ldr	r5, [fp, #-72]	@, %sfp
	mov	r0, r4	@, p
	ldr	r7, [fp, #-80]	@, %sfp
	movw	r1, #:lower16:.LC223	@,
	ldr	r3, [fp, #-84]	@, %sfp
	movt	r1, #:upper16:.LC223	@,
	movw	r2, #:lower16:.LC224	@,
	movt	r2, #:upper16:.LC224	@,
	str	r5, [sp, #0]	@,
	mov	r6, #0	@ ivtmp.2598,
	str	r7, [sp, #4]	@,
	bl	seq_printf	@
	ldr	r3, [sl, #960]	@, <variable>.stSynExtraData.s32DecMode
	mov	r0, r4	@, p
	movw	r1, #:lower16:.LC50	@,
	movw	r2, #:lower16:.LC225	@,
	movt	r1, #:upper16:.LC50	@,
	movt	r2, #:upper16:.LC225	@,
	bl	seq_printf	@
	ldr	r3, [sl, #964]	@, <variable>.stSynExtraData.s32DecOrderOutput
	mov	r0, r4	@, p
	movw	r1, #:lower16:.LC50	@,
	movw	r2, #:lower16:.LC226	@,
	movt	r1, #:upper16:.LC50	@,
	movt	r2, #:upper16:.LC226	@,
	mov	r5, r8	@ ivtmp.2602, pFsp
	bl	seq_printf	@
	ldr	r3, [sl, #420]	@, <variable>.stRecentImg.format
	mov	r0, r4	@, p
	movw	r1, #:lower16:.LC147	@,
	movw	r2, #:lower16:.LC227	@,
	movt	r1, #:upper16:.LC147	@,
	movt	r2, #:upper16:.LC227	@,
	mov	r7, #1	@ ivtmp.2599,
	bl	seq_printf	@
	ldr	r3, [sl, #596]	@, <variable>.stRecentImg.eFramePackingType
	mov	r0, r4	@, p
	movw	r1, #:lower16:.LC147	@,
	movw	r2, #:lower16:.LC228	@,
	movt	r1, #:upper16:.LC147	@,
	movt	r2, #:upper16:.LC228	@,
	bl	seq_printf	@
	ldr	r3, [sl, #448]	@ D.41219, <variable>.stRecentImg.frame_rate
	mov	r0, r4	@, p
	movw	r1, #:lower16:.LC229	@,
	movw	r2, #:lower16:.LC230	@,
	movt	r1, #:upper16:.LC229	@,
	mov	ip, r3, asl #22	@ tmp280, D.41219,
	movt	r2, #:upper16:.LC230	@,
	mov	r3, r3, lsr #10	@, D.41219,
	mov	lr, ip, lsr #22	@ tmp280, tmp280,
	mov	ip, #100	@ tmp283,
	mul	ip, ip, lr	@ tmp282, tmp283, tmp280
	add	ip, ip, #512	@ tmp284, tmp282,
	mov	lr, ip, lsr #10	@ tmp285, tmp284,
	str	lr, [sp, #0]	@ tmp285,
	bl	seq_printf	@
	ldr	r0, [fp, #-64]	@, %sfp
	mov	r2, #300	@ tmp289,
	ldr	ip, [fp, #-68]	@, %sfp
	movw	r1, #:lower16:.LC231	@,
	movt	r1, #:upper16:.LC231	@,
	mla	r9, r2, r9, r0	@ tmp290, tmp289, i,
	mov	r0, r4	@, p
	movw	r2, #:lower16:.LC232	@,
	movt	r2, #:upper16:.LC232	@,
	ldr	lr, [r9, #1120]	@ D.41225, <variable>.u32FrFrameRate
	umull	ip, r3, ip, lr	@, tmp295,, D.41225
	mov	r3, r3, lsr #3	@ tmp294, tmp295,
	add	ip, r3, r3, asl #2	@, tmp302, tmp294, tmp294,
	sub	ip, lr, ip, asl #1	@ tmp304, D.41225, tmp302,
	str	ip, [sp, #0]	@ tmp304,
	bl	seq_printf	@
	ldr	r1, [fp, #-64]	@, %sfp
	ldr	ip, [fp, #-68]	@, %sfp
	mov	r0, r4	@, p
	movw	r2, #:lower16:.LC180	@,
	movt	r2, #:upper16:.LC180	@,
	ldr	lr, [r1, #1052]	@ D.41230, <variable>.u32VaVdmLoad
	movw	r1, #:lower16:.LC233	@,
	movt	r1, #:upper16:.LC233	@,
	umull	ip, r3, ip, lr	@, tmp309,, D.41230
	mov	r3, r3, lsr #3	@ tmp308, tmp309,
	add	ip, r3, r3, asl #2	@, tmp316, tmp308, tmp308,
	sub	ip, lr, ip, asl #1	@ tmp318, D.41230, tmp316,
	str	ip, [sp, #0]	@ tmp318,
	bl	seq_printf	@
	ldr	r3, [r9, #1124]	@, <variable>.u32SkipFind
	mov	r0, r4	@, p
	movw	r1, #:lower16:.LC50	@,
	movw	r2, #:lower16:.LC234	@,
	movt	r1, #:upper16:.LC50	@,
	movt	r2, #:upper16:.LC234	@,
	bl	seq_printf	@
	ldr	r3, [r9, #1128]	@, <variable>.u32SkipDiscard
	mov	r0, r4	@, p
	movw	r1, #:lower16:.LC50	@,
	movw	r2, #:lower16:.LC235	@,
	movt	r1, #:upper16:.LC50	@,
	movt	r2, #:upper16:.LC235	@,
	bl	seq_printf	@
	ldrsb	r3, [r8, #56]	@, <variable>.stInstCfg.s32DispLoopEnable
	mov	r0, r4	@, p
	movw	r1, #:lower16:.LC236	@,
	movw	r2, #:lower16:.LC237	@,
	movt	r1, #:upper16:.LC236	@,
	movt	r2, #:upper16:.LC237	@,
	bl	seq_printf	@
	ldr	r3, [r8, #68]	@, <variable>.stInstCfg.s32DecFsWidth
	mov	r0, r4	@, p
	movw	r1, #:lower16:.LC50	@,
	movw	r2, #:lower16:.LC238	@,
	movt	r1, #:upper16:.LC50	@,
	movt	r2, #:upper16:.LC238	@,
	bl	seq_printf	@
	ldr	r3, [r8, #72]	@, <variable>.stInstCfg.s32DecFsHeight
	mov	r0, r4	@, p
	movw	r1, #:lower16:.LC50	@,
	movw	r2, #:lower16:.LC239	@,
	movt	r1, #:upper16:.LC50	@,
	movt	r2, #:upper16:.LC239	@,
	bl	seq_printf	@
	ldr	r3, [r8, #84]	@, <variable>.stInstCfg.s32DispFsWidth
	mov	r0, r4	@, p
	movw	r1, #:lower16:.LC50	@,
	movw	r2, #:lower16:.LC240	@,
	movt	r1, #:upper16:.LC50	@,
	movt	r2, #:upper16:.LC240	@,
	bl	seq_printf	@
	ldr	r3, [r8, #88]	@, <variable>.stInstCfg.s32DispFsHeight
	mov	r0, r4	@, p
	movw	r1, #:lower16:.LC50	@,
	movw	r2, #:lower16:.LC241	@,
	movt	r1, #:upper16:.LC50	@,
	movt	r2, #:upper16:.LC241	@,
	bl	seq_printf	@
	ldrsb	r3, [r8, #61]	@, <variable>.stInstCfg.s32ExpectedDecFsNum
	mov	r0, r4	@, p
	movw	r1, #:lower16:.LC50	@,
	movw	r2, #:lower16:.LC242	@,
	movt	r1, #:upper16:.LC50	@,
	movt	r2, #:upper16:.LC242	@,
	bl	seq_printf	@
	ldrsb	r3, [r8, #63]	@, <variable>.stInstCfg.s32ExpectedDispFsNum
	mov	r0, r4	@, p
	movw	r1, #:lower16:.LC50	@,
	movw	r2, #:lower16:.LC243	@,
	movt	r1, #:upper16:.LC50	@,
	movt	r2, #:upper16:.LC243	@,
	bl	seq_printf	@
	mov	r0, r4	@, p
	movw	r1, #:lower16:.LC50	@,
	movw	r2, #:lower16:.LC244	@,
	movt	r1, #:upper16:.LC50	@,
	movt	r2, #:upper16:.LC244	@,
	mov	r3, #64	@,
	bl	seq_printf	@
	b	.L638	@
.L655:
	tst	r6, #15	@ ivtmp.2598,
	beq	.L653	@,
	ldrsb	r2, [r5, #96]	@, <variable>.s32IsRef
	mov	r0, r4	@, p
	ldrsb	r3, [r5, #97]	@, <variable>.s32DispState
	movw	r1, #:lower16:.LC245	@,
	movt	r1, #:upper16:.LC245	@,
	bl	seq_printf	@
	cmp	r7, #63	@ ivtmp.2599,
	bgt	.L654	@,
.L641:
	add	r6, r6, #1	@ ivtmp.2598, ivtmp.2598,
	add	r7, r7, #1	@ ivtmp.2599, ivtmp.2599,
	add	r5, r5, #496	@ ivtmp.2602, ivtmp.2602,
.L638:
	cmp	r6, #0	@ ivtmp.2598,
	movw	r1, #:lower16:.LC245	@,
	mov	r0, r4	@, p
	movt	r1, #:upper16:.LC245	@,
	bne	.L655	@,
	ldrsb	r2, [r5, #96]	@, <variable>.s32IsRef
	ldrsb	r3, [r5, #97]	@, <variable>.s32DispState
	bl	seq_printf	@
	b	.L641	@
.L653:
	movw	r1, #:lower16:.LC55	@,
	movt	r1, #:upper16:.LC55	@,
	bl	seq_printf	@
	ldrsb	r2, [r5, #96]	@, <variable>.s32IsRef
	mov	r0, r4	@, p
	ldrsb	r3, [r5, #97]	@, <variable>.s32DispState
	movw	r1, #:lower16:.LC245	@,
	movt	r1, #:upper16:.LC245	@,
	bl	seq_printf	@
	cmp	r7, #63	@ ivtmp.2599,
	ble	.L641	@,
.L654:
	mov	r0, r4	@, p
	movw	r1, #:lower16:.LC246	@,
	movw	r2, #:lower16:.LC247	@,
	movt	r1, #:upper16:.LC246	@,
	movt	r2, #:upper16:.LC247	@,
	ldrsb	r3, [r8, #9]	@, <variable>.s32DecFsNum
	bl	seq_printf	@
	ldrsb	r1, [r8, #9]	@ <variable>.s32DecFsNum, <variable>.s32DecFsNum
	cmp	r1, #0	@ <variable>.s32DecFsNum,
	addgt	r5, r8, #31744	@ ivtmp.2594, pFsp,
	movgt	r6, #0	@ j,
	addgt	r5, r5, #144	@ ivtmp.2594, ivtmp.2594,
	ble	.L642	@,
.L643:
	ldrsb	r2, [r5, #0]	@, <variable>.IsDecRef
	mov	r0, r4	@, p
	ldrsb	r3, [r5, #2]	@, <variable>.DispState
	movw	r1, #:lower16:.LC245	@,
	movt	r1, #:upper16:.LC245	@,
	add	r6, r6, #1	@ j, j,
	bl	seq_printf	@
	ldrsb	r2, [r8, #9]	@ <variable>.s32DecFsNum, <variable>.s32DecFsNum
	add	r5, r5, #48	@ ivtmp.2594, ivtmp.2594,
	cmp	r2, r6	@ <variable>.s32DecFsNum, j
	ble	.L642	@,
	tst	r6, #15	@ j,
	bne	.L643	@,
	movw	r1, #:lower16:.LC55	@,
	mov	r0, r4	@, p
	movt	r1, #:upper16:.LC55	@,
	bl	seq_printf	@
	b	.L643	@
.L646:
	ldrsb	r3, [r8, #12]	@, <variable>.s32PmvNum
	mov	r0, r4	@, p
	movw	r1, #:lower16:.LC236	@,
	movw	r2, #:lower16:.LC249	@,
	movt	r1, #:upper16:.LC236	@,
	movt	r2, #:upper16:.LC249	@,
	bl	seq_printf	@
	mov	r0, r4	@, p
	ldrsb	r3, [r8, #9]	@, <variable>.s32DecFsNum
	movw	r1, #:lower16:.LC236	@,
	movw	r2, #:lower16:.LC247	@,
	movt	r1, #:upper16:.LC236	@,
	movt	r2, #:upper16:.LC247	@,
	bl	seq_printf	@
	movw	r1, #:lower16:.LC55	@,
	mov	r0, r4	@, p
	movt	r1, #:upper16:.LC55	@,
	bl	seq_printf	@
.L634:
	mov	r0, #0	@,
	sub	sp, fp, #40
	ldmfd	sp, {r4, r5, r6, r7, r8, r9, sl, fp, sp, pc}
.L642:
	mov	r0, r4	@, p
	movw	r1, #:lower16:.LC236	@,
	movw	r2, #:lower16:.LC248	@,
	movt	r1, #:upper16:.LC236	@,
	movt	r2, #:upper16:.LC248	@,
	ldrsb	r3, [r8, #10]	@, <variable>.s32DispFsNum
	bl	seq_printf	@
	ldrsb	r0, [r8, #10]	@ <variable>.s32DispFsNum, <variable>.s32DispFsNum
	cmp	r0, #0	@ <variable>.s32DispFsNum,
	addgt	r5, r8, #34816	@ ivtmp.2588, pFsp,
	movgt	r6, #0	@ j.2613,
	addgt	r5, r5, #144	@ ivtmp.2588, ivtmp.2588,
	ble	.L646	@,
.L647:
	ldrsb	r3, [r5, #2]	@, <variable>.DispState
	mov	r0, r4	@, p
	ldrsb	r2, [r5, #0]	@, <variable>.IsDecRef
	movw	r1, #:lower16:.LC245	@,
	movt	r1, #:upper16:.LC245	@,
	add	r6, r6, #1	@ j.2613, j.2613,
	bl	seq_printf	@
	ldrsb	r3, [r8, #10]	@ <variable>.s32DispFsNum, <variable>.s32DispFsNum
	add	r5, r5, #48	@ ivtmp.2588, ivtmp.2588,
	cmp	r3, r6	@ <variable>.s32DispFsNum, j.2613
	ble	.L646	@,
	tst	r6, #15	@ j.2613,
	bne	.L647	@,
	movw	r1, #:lower16:.LC55	@,
	mov	r0, r4	@, p
	movt	r1, #:upper16:.LC55	@,
	bl	seq_printf	@
	b	.L647	@
.L652:
	ldr	r0, [sl, #912]	@ <variable>.stRecentUsrdecFrame.s32YHeight, <variable>.stRecentUsrdecFrame.s32YHeight
	mov	r5, #896	@ tmp250,
	ldr	r2, [sl, #888]	@ <variable>.stRecentUsrdecFrame.enFmt, <variable>.stRecentUsrdecFrame.enFmt
	movw	r1, #:lower16:.LC218	@,
	ldr	r3, [sl, #908]	@ <variable>.stRecentUsrdecFrame.s32YWidth, <variable>.stRecentUsrdecFrame.s32YWidth
	movt	r1, #:upper16:.LC218	@,
	str	r0, [sp, #0]	@ <variable>.stRecentUsrdecFrame.s32YHeight,
	mov	r0, r4	@, p
	ldr	r6, [sl, #920]	@ <variable>.stRecentUsrdecFrame.s32LumaStride, <variable>.stRecentUsrdecFrame.s32LumaStride
	str	r6, [sp, #4]	@ <variable>.stRecentUsrdecFrame.s32LumaStride,
	ldr	r7, [sl, #932]	@ <variable>.stRecentUsrdecFrame.s32ChromStride, <variable>.stRecentUsrdecFrame.s32ChromStride
	str	r7, [sp, #8]	@ <variable>.stRecentUsrdecFrame.s32ChromStride,
	ldrd	r6, [sl, r5]	@, pChan, tmp250
	strd	r6, [sp, #16]	@,,
	bl	seq_printf	@
	b	.L637	@
.L651:
	mov	r0, r8	@, pFsp
	mov	r3, r9	@, i
	movw	r1, #:lower16:.LC193	@,
	movw	r2, #8381	@,
	movt	r1, #:upper16:.LC193	@,
	bl	dprint_vfmw	@
	b	.L634	@
	.fnend
	.size	vfmw_read_proc_dec, .-vfmw_read_proc_dec
	.align	2
	.global	VCTRL_GetDecParam
	.type	VCTRL_GetDecParam, %function
VCTRL_GetDecParam:
	.fnstart
.LFB1565:
	@ args = 0, pretend = 0, frame = 0
	@ frame_needed = 1, uses_anonymous_args = 0
	.movsp ip
	mov	ip, sp	@,
	stmfd	sp!, {r4, r5, fp, ip, lr, pc}	@,
	.pad #4
	.save {r4, r5, fp, ip, lr}
	.setfp fp, ip, #-4
	sub	fp, ip, #4	@,,
	push	{lr}
	bl	__gnu_mcount_nc
	cmp	r0, #15	@ ChanId,
	bhi	.L657	@,
	movw	r2, #:lower16:.LANCHOR0	@ tmp158,
	movt	r2, #:upper16:.LANCHOR0	@ tmp158,
	ldr	r5, [r2, r0, asl #2]	@ D.38728, s_pstVfmwChan
	cmp	r5, #0	@ D.38728,
	beq	.L657	@,
	ldr	r3, [r5, #12]	@ <variable>.s32IsOpen, <variable>.s32IsOpen
	cmp	r3, #1	@ <variable>.s32IsOpen,
	beq	.L677	@,
.L660:
	mov	r4, #0	@ pDecParam,
.L659:
	mov	r0, r4	@, pDecParam
	ldmfd	sp, {r4, r5, fp, sp, pc}	@
.L657:
	mov	r3, r0	@, ChanId
	movw	r2, #4192	@,
	mov	r4, #0	@ pDecParam,
	mov	r0, #22	@,
	movw	r1, #:lower16:.LC250	@,
	movt	r1, #:upper16:.LC250	@,
	bl	dprint_vfmw	@
	mov	r0, r4	@, pDecParam
	ldmfd	sp, {r4, r5, fp, sp, pc}	@
.L677:
	ldr	r0, [r5, #16]	@ <variable>.s32IsRun, <variable>.s32IsRun
	cmp	r0, #1	@ <variable>.s32IsRun,
	bne	.L660	@,
	ldr	r1, [r5, #944]	@ <variable>.eVidStd, <variable>.eVidStd
	cmp	r1, #15	@ <variable>.eVidStd,
	ldrls	pc, [pc, r1, asl #2]	@ <variable>.eVidStd
	b	.L660	@
.L673:
	.word	.L672
	.word	.L676
	.word	.L664
	.word	.L676
	.word	.L660
	.word	.L676
	.word	.L676
	.word	.L660
	.word	.L676
	.word	.L676
	.word	.L670
	.word	.L670
	.word	.L670
	.word	.L676
	.word	.L660
	.word	.L672
.L670:
	ldr	r4, [r2, #64]	@ g_VdmCharacter, g_VdmCharacter
	tst	r4, #1	@ g_VdmCharacter,
	beq	.L660	@,
.L676:
	movw	ip, #:lower16:220012	@ tmp155,
	movt	ip, #:upper16:220012	@ tmp155,
	ldr	r4, [r5, ip]	@ pDecParam,
.L674:
	cmp	r4, #0	@ pDecParam,
	beq	.L659	@,
	bl	OSAL_GetTimeInMs	@
	str	r0, [r5, #36]	@, <variable>.u32timeLastDecParamReady
	b	.L659	@
.L672:
	movw	r3, #:lower16:220368	@ tmp156,
	movt	r3, #:upper16:220368	@ tmp156,
	ldr	r4, [r5, r3]	@ pDecParam,
	b	.L674	@
.L664:
	movw	r2, #:lower16:221044	@ tmp145,
	movt	r2, #:upper16:221044	@ tmp145,
	ldr	r4, [r5, r2]	@ pDecParam,
	b	.L674	@
	.fnend
	.size	VCTRL_GetDecParam, .-VCTRL_GetDecParam
	.align	2
	.global	VCTRL_ChanDecparamInValidFlag
	.type	VCTRL_ChanDecparamInValidFlag, %function
VCTRL_ChanDecparamInValidFlag:
	.fnstart
.LFB1566:
	@ args = 0, pretend = 0, frame = 8
	@ frame_needed = 1, uses_anonymous_args = 0
	.movsp ip
	mov	ip, sp	@,
	stmfd	sp!, {r4, r5, r6, r7, fp, ip, lr, pc}	@,
	.pad #4
	.save {r4, r5, r6, r7, fp, ip, lr}
	.setfp fp, ip, #-4
	sub	fp, ip, #4	@,,
	.pad #8
	sub	sp, sp, #8	@,,
	push	{lr}
	bl	__gnu_mcount_nc
	cmp	r0, #15	@ ChanId,
	mov	r2, r0	@ ChanId, ChanId
	bhi	.L679	@,
	movw	r4, #:lower16:.LANCHOR0	@ tmp144,
	movt	r4, #:upper16:.LANCHOR0	@ tmp144,
	ldr	r3, [r4, r0, asl #2]	@ D.38755, s_pstVfmwChan
	cmp	r3, #0	@ D.38755,
	beq	.L679	@,
	ldr	r1, [r3, #12]	@ <variable>.s32IsOpen, <variable>.s32IsOpen
	cmp	r1, #1	@ <variable>.s32IsOpen,
	bne	.L682	@,
	ldr	r5, [r3, #16]	@ <variable>.s32IsRun, <variable>.s32IsRun
	cmp	r5, #1	@ <variable>.s32IsRun,
	beq	.L683	@,
.L682:
	mov	r0, #22	@,
	movw	r1, #:lower16:.LC251	@,
	movt	r1, #:upper16:.LC251	@,
	bl	dprint_vfmw	@
	mov	r3, #0	@ D.38757,
.L681:
	mov	r0, r3	@, D.38757
	sub	sp, fp, #28
	ldmfd	sp, {r4, r5, r6, r7, fp, sp, pc}
.L679:
	mov	r3, r2	@, ChanId
	mov	r0, #22	@,
	movw	r1, #:lower16:.LC250	@,
	movw	r2, #4296	@,
	movt	r1, #:upper16:.LC250	@,
	bl	dprint_vfmw	@
	mov	r3, #0	@ D.38757,
	b	.L681	@
.L683:
	str	r0, [fp, #-32]	@ tmp2,
	bl	VCTRL_GetDecParam	@
	ldr	r2, [fp, #-32]	@,
	subs	r6, r0, #0	@ pDecParam,
	beq	.L689	@,
	ldr	r0, [r4, r2, asl #2]	@ tmp154, s_pstVfmwChan
	mov	ip, #0	@ tmp155,
	mov	r3, ip	@ D.38757, tmp155
	str	ip, [r0, #744]	@ tmp155, <variable>.s32CountNoDecparamFlag
	ldr	r2, [r4, r2, asl #2]	@ tmp157, s_pstVfmwChan
	str	ip, [r2, #748]	@ tmp155, <variable>.u32NoDecparamStartTime
	b	.L681	@
.L689:
	ldr	r3, [r4, r2, asl #2]	@ temp.2668, s_pstVfmwChan
	ldr	r7, [r3, #744]	@ <variable>.s32CountNoDecparamFlag, <variable>.s32CountNoDecparamFlag
	cmp	r7, #0	@ <variable>.s32CountNoDecparamFlag,
	beq	.L690	@,
	str	r2, [fp, #-32]	@,
	bl	OSAL_GetTimeInMs	@
	ldr	r2, [fp, #-32]	@,
	ldr	r3, [r4, r2, asl #2]	@ temp.2672, s_pstVfmwChan
	ldr	r1, [r3, #748]	@ D.38778, <variable>.u32NoDecparamStartTime
	cmp	r0, r1	@ tmp, D.38778
	bls	.L686	@,
	rsb	lr, r1, r0	@ tmp160, D.38778, tmp
	cmp	lr, #40	@ tmp160,
	movls	r3, r6	@ D.38757, pDecParam
	bls	.L681	@,
.L686:
	str	r6, [r3, #744]	@ pDecParam, <variable>.s32CountNoDecparamFlag
	mov	r3, r5	@ D.38757, <variable>.s32IsRun
	ldr	r1, [r4, r2, asl #2]	@ tmp167, s_pstVfmwChan
	str	r6, [r1, #748]	@ pDecParam, <variable>.u32NoDecparamStartTime
	b	.L681	@
.L690:
	str	r5, [r3, #744]	@ <variable>.s32IsRun, <variable>.s32CountNoDecparamFlag
	ldr	r4, [r4, r2, asl #2]	@ temp.2669, s_pstVfmwChan
	bl	OSAL_GetTimeInMs	@
	mov	r3, r7	@ D.38757, <variable>.s32CountNoDecparamFlag
	str	r0, [r4, #748]	@, <variable>.u32NoDecparamStartTime
	b	.L681	@
	.fnend
	.size	VCTRL_ChanDecparamInValidFlag, .-VCTRL_ChanDecparamInValidFlag
	.align	2
	.global	CloseDrivers
	.type	CloseDrivers, %function
CloseDrivers:
	.fnstart
.LFB1587:
	@ args = 0, pretend = 0, frame = 0
	@ frame_needed = 1, uses_anonymous_args = 0
	.movsp ip
	mov	ip, sp	@,
	stmfd	sp!, {r4, r5, r6, r7, fp, ip, lr, pc}	@,
	.pad #4
	.save {r4, r5, r6, r7, fp, ip, lr}
	.setfp fp, ip, #-4
	sub	fp, ip, #4	@,,
	push	{lr}
	bl	__gnu_mcount_nc
	ldr	r5, [r0, #8]	@ Length, <variable>.Length
	mov	r4, r0	@ pstDrvMem, pstDrvMem
	ldr	r7, [r0, #0]	@ PhyAddr, <variable>.PhyAddr
	cmp	r5, #0	@ Length,
	ldr	r6, [r0, #4]	@ VirAddr, <variable>.VirAddr
	beq	.L692	@,
	movw	r3, #:lower16:g_vdm_hal_fun_ptr	@ tmp157,
	movt	r3, #:upper16:g_vdm_hal_fun_ptr	@ tmp157,
	ldr	r3, [r3, #32]	@ D.39802, g_vdm_hal_fun_ptr.pfun_VDMHAL_CloseHAL
	cmp	r3, #0	@ D.39802,
	beq	.L693	@,
	mov	r0, #0	@,
	blx	r3	@ D.39802
.L694:
	ldmia	r4, {r0, r1}	@ phole ldm
	bl	MEM_ReleaseMemBlock	@
	mov	r0, r4	@, pstDrvMem
	mov	r1, #12	@,
	bl	__memzero	@
.L692:
	mov	r0, r7	@, PhyAddr
	mov	r1, r6	@, VirAddr
	mov	r2, r5	@, Length
	bl	MEM_DelMemRecord	@
	ldr	r5, [r4, #20]	@ Length.2702, <variable>.stScdCmnMem.Length
	ldr	r7, [r4, #12]	@ PhyAddr.2700, <variable>.stScdCmnMem.PhyAddr
	cmp	r5, #0	@ Length.2702,
	ldr	r6, [r4, #16]	@ VirAddr.2701, <variable>.stScdCmnMem.VirAddr
	bne	.L702	@,
.L695:
	mov	r0, r7	@, PhyAddr.2700
	mov	r1, r6	@, VirAddr.2701
	mov	r2, r5	@, Length.2702
	bl	MEM_DelMemRecord	@
	ldr	r5, [r4, #44]	@ Length.2709, <variable>.Length
	ldr	r7, [r4, #36]	@ PhyAddr.2707, <variable>.PhyAddr
	cmp	r5, #0	@ Length.2709,
	ldr	r6, [r4, #40]	@ VirAddr.2708, <variable>.VirAddr
	bne	.L703	@,
.L696:
	mov	r0, r7	@, PhyAddr.2707
	mov	r1, r6	@, VirAddr.2708
	mov	r2, r5	@, Length.2709
	bl	MEM_DelMemRecord	@
	ldr	r5, [r4, #80]	@ Length.2714, <variable>.stBpdReg.Length
	ldr	r7, [r4, #72]	@ PhyAddr.2712, <variable>.stBpdReg.PhyAddr
	cmp	r5, #0	@ Length.2714,
	ldr	r6, [r4, #76]	@ VirAddr.2713, <variable>.stBpdReg.VirAddr
	bne	.L704	@,
.L697:
	mov	r0, r7	@, PhyAddr.2712
	mov	r1, r6	@, VirAddr.2713
	mov	r2, r5	@, Length.2714
	bl	MEM_DelMemRecord	@
	ldr	r5, [r4, #68]	@ Length.2719, <variable>.Length
	ldr	r7, [r4, #60]	@ PhyAddr.2717, <variable>.PhyAddr
	cmp	r5, #0	@ Length.2719,
	ldr	r6, [r4, #64]	@ VirAddr.2718, <variable>.VirAddr
	bne	.L705	@,
.L698:
	mov	r0, r7	@, PhyAddr.2717
	mov	r1, r6	@, VirAddr.2718
	mov	r2, r5	@, Length.2719
	bl	MEM_DelMemRecord	@
	ldr	r5, [r4, #56]	@ Length.2724, <variable>.stFodReg.Length
	ldr	r7, [r4, #48]	@ PhyAddr.2722, <variable>.stFodReg.PhyAddr
	cmp	r5, #0	@ Length.2724,
	ldr	r6, [r4, #52]	@ VirAddr.2723, <variable>.stFodReg.VirAddr
	bne	.L706	@,
.L699:
	mov	r0, r7	@, PhyAddr.2722
	mov	r1, r6	@, VirAddr.2723
	mov	r2, r5	@, Length.2724
	bl	MEM_DelMemRecord	@
	ldr	r7, [r4, #92]	@ Length.2729, <variable>.stSystemReg.Length
	ldr	r5, [r4, #84]	@ PhyAddr.2727, <variable>.stSystemReg.PhyAddr
	cmp	r7, #0	@ Length.2729,
	ldr	r6, [r4, #88]	@ VirAddr.2728, <variable>.stSystemReg.VirAddr
	beq	.L700	@,
	mov	r0, r5	@, PhyAddr.2727
	mov	r1, r6	@, VirAddr.2728
	bl	MEM_UnmapRegisterAddr	@
	add	r0, r4, #84	@, pstDrvMem,
	mov	r1, #12	@,
	bl	__memzero	@
.L700:
	mov	r2, r7	@, Length.2729
	mov	r1, r6	@, VirAddr.2728
	mov	r0, r5	@, PhyAddr.2727
	bl	MEM_DelMemRecord	@
	mov	r0, #127	@,
	mov	r1, #0	@,
	bl	free_irq	@
	mov	r0, #136	@,
	mov	r1, #0	@,
	bl	free_irq	@
	mov	r0, #0	@,
	ldmfd	sp, {r4, r5, r6, r7, fp, sp, pc}	@
.L706:
	mov	r0, r7	@, PhyAddr.2722
	mov	r1, r6	@, VirAddr.2723
	bl	MEM_UnmapRegisterAddr	@
	add	r0, r4, #48	@, pstDrvMem,
	mov	r1, #12	@,
	bl	__memzero	@
	b	.L699	@
.L705:
	mov	r0, r7	@, PhyAddr.2717
	mov	r1, r6	@, VirAddr.2718
	bl	MEM_UnmapRegisterAddr	@
	add	r0, r4, #60	@, pstDrvMem,
	mov	r1, #12	@,
	bl	__memzero	@
	b	.L698	@
.L704:
	mov	r0, r7	@, PhyAddr.2712
	mov	r1, r6	@, VirAddr.2713
	bl	MEM_UnmapRegisterAddr	@
	add	r0, r4, #72	@, pstDrvMem,
	mov	r1, #12	@,
	bl	__memzero	@
	b	.L697	@
.L703:
	mov	r0, r7	@, PhyAddr.2707
	mov	r1, r6	@, VirAddr.2708
	bl	MEM_UnmapRegisterAddr	@
	add	r0, r4, #36	@, pstDrvMem,
	mov	r1, #12	@,
	bl	__memzero	@
	b	.L696	@
.L702:
	bl	SM_CloseSCDDrv	@
	ldr	r0, [r4, #12]	@, <variable>.stScdCmnMem.PhyAddr
	ldr	r1, [r4, #16]	@, <variable>.stScdCmnMem.VirAddr
	bl	MEM_ReleaseMemBlock	@
	add	r0, r4, #12	@, pstDrvMem,
	mov	r1, #12	@,
	bl	__memzero	@
	b	.L695	@
.L693:
	mov	r0, r3	@, D.39802
	movw	r1, #:lower16:.LC191	@,
	movw	r2, #6111	@,
	movt	r1, #:upper16:.LC191	@,
	bl	dprint_vfmw	@
	b	.L694	@
	.fnend
	.size	CloseDrivers, .-CloseDrivers
	.align	2
	.global	OpenDrivers
	.type	OpenDrivers, %function
OpenDrivers:
	.fnstart
.LFB1586:
	@ args = 0, pretend = 0, frame = 24
	@ frame_needed = 1, uses_anonymous_args = 0
	.movsp ip
	mov	ip, sp	@,
	stmfd	sp!, {r4, r5, r6, r7, r8, sl, fp, ip, lr, pc}	@,
	.pad #4
	.save {r4, r5, r6, r7, r8, sl, fp, ip, lr}
	.setfp fp, ip, #-4
	sub	fp, ip, #4	@,,
	.pad #32
	sub	sp, sp, #32	@,,
	push	{lr}
	bl	__gnu_mcount_nc
	movw	r5, #:lower16:__stack_chk_guard	@ tmp200,
	movt	r5, #:upper16:__stack_chk_guard	@ tmp200,
	add	r6, r0, #36	@ pstMem, pstDrvMem,
	mov	r4, r0	@ pstDrvMem, pstDrvMem
	mov	r1, #4096	@,
	ldr	r3, [r5, #0]	@ __stack_chk_guard, __stack_chk_guard
	movw	r0, #:lower16:-121438208	@,
	mov	r2, r6	@, pstMem
	movt	r0, #:upper16:-121438208	@,
	str	r3, [fp, #-40]	@ __stack_chk_guard, D.43811
	bl	MEM_MapRegisterAddr	@
	cmp	r0, #0	@,
	bne	.L732	@,
	add	r7, r4, #72	@ pstMem.2755, pstDrvMem,
	add	r0, r4, #36
	ldmia	r0, {r0, r1, r2}	@ phole ldm
	bl	MEM_AddMemRecord	@
	movw	r0, #:lower16:-121241600	@,
	mov	r1, #4096	@,
	movt	r0, #:upper16:-121241600	@,
	mov	r2, r7	@, pstMem.2755
	bl	MEM_MapRegisterAddr	@
	cmp	r0, #0	@,
	bne	.L729	@,
	movw	r6, #:lower16:g_vdm_hal_fun_ptr	@ tmp162,
	movt	r6, #:upper16:g_vdm_hal_fun_ptr	@ tmp162,
	ldr	r3, [r6, #16]	@ D.39668, g_vdm_hal_fun_ptr.pfun_BPDDRV_OpenHardware
	cmp	r3, #0	@ D.39668,
	beq	.L729	@,
	blx	r3	@ D.39668
	cmp	r0, #0	@,
	bne	.L729	@,
	add	sl, r4, #60	@ pstMem.2759, pstDrvMem,
	add	r0, r4, #72
	ldmia	r0, {r0, r1, r2}	@ phole ldm
	bl	MEM_AddMemRecord	@
	movw	r0, #:lower16:-121389056	@,
	mov	r1, #4096	@,
	movt	r0, #:upper16:-121389056	@,
	mov	r2, sl	@, pstMem.2759
	bl	MEM_MapRegisterAddr	@
	subs	r7, r0, #0	@ D.39682,
	bne	.L717	@,
	sub	r8, fp, #60	@ tmp170,,
	add	r0, r4, #60
	ldmia	r0, {r0, r1, r2}	@ phole ldm
	bl	MEM_AddMemRecord	@
	mov	r3, r7	@, D.39682
	mov	r0, r8	@, tmp170
	mov	r1, #20	@,
	movw	r2, #:lower16:.LC252	@,
	movt	r2, #:upper16:.LC252	@,
	bl	snprintf	@
	ldr	r3, [r6, #24]	@ D.39693, g_vdm_hal_fun_ptr.pfun_VDMHAL_GetHalMemSize
	cmp	r3, #0	@ D.39693,
	beq	.L717	@,
	blx	r3	@ D.39693
	subs	r2, r0, #0	@ Size,
	ble	.L717	@,
	mov	r1, r7	@, D.39682
	mov	r0, r8	@, tmp170
	mov	r3, r4	@, pstDrvMem
	str	r7, [sp, #0]	@ D.39682,
	bl	MEM_AllocMemBlock	@
	subs	r7, r0, #0	@ D.39706,
	bne	.L719	@,
	ldmia	r4, {r0, r1, r2}	@ phole ldm
	bl	MEM_AddMemRecord	@
	ldr	r3, [r6, #28]	@ D.39711, g_vdm_hal_fun_ptr.pfun_VDMHAL_OpenHAL
	cmp	r3, #0	@ D.39711,
	beq	.L719	@,
	mov	r2, r7	@, D.39706
	ldr	r0, [r4, #0]	@, <variable>.PhyAddr
	ldr	r1, [r4, #8]	@, <variable>.Length
	blx	r3	@ D.39711
	cmp	r0, #0	@,
	bne	.L719	@,
	mov	r0, #0	@,
	add	r6, r4, #12	@ pstMem.2769, pstDrvMem,
	bl	VDMDRV_Init	@
	mov	ip, #0	@ tmp182,
	mov	r1, ip	@, tmp182
	movw	r0, #:lower16:.LC253	@,
	mov	r2, #716800	@,
	movt	r0, #:upper16:.LC253	@,
	mov	r3, r6	@, pstMem.2769
	str	ip, [sp, #0]	@ tmp182,
	bl	MEM_AllocMemBlock	@
	subs	r7, r0, #0	@ D.39726,
	bne	.L732	@,
	add	r0, r4, #12
	ldmia	r0, {r0, r1, r2}	@ phole ldm
	bl	MEM_AddMemRecord	@
	mov	r3, r7	@, D.39726
	ldr	r0, [r4, #12]	@, <variable>.stScdCmnMem.PhyAddr
	movw	r2, #:lower16:-121389056	@,
	ldr	r1, [r4, #20]	@, <variable>.stScdCmnMem.Length
	movt	r2, #:upper16:-121389056	@,
	bl	SM_OpenSCDDrv	@
	subs	ip, r0, #0	@ D.39729,
	bne	.L732	@,
	mov	r2, ip	@, D.39729
	mov	r0, #127	@,
	movw	r1, #:lower16:VCTRL_Isr_0	@,
	mov	r3, #32	@,
	movt	r1, #:upper16:VCTRL_Isr_0	@,
	str	ip, [sp, #4]	@ D.39729,
	movw	lr, #:lower16:.LC254	@ tmp190,
	movt	lr, #:upper16:.LC254	@ tmp190,
	str	lr, [sp, #0]	@ tmp190,
	bl	request_threaded_irq	@
	subs	ip, r0, #0	@ D.41808,
	bne	.L732	@,
	mov	r2, ip	@, D.41808
	mov	r0, #136	@,
	movw	r1, #:lower16:VCTRL_Scd_Isr	@,
	mov	r3, #32	@,
	movt	r1, #:upper16:VCTRL_Scd_Isr	@,
	str	ip, [sp, #4]	@ D.41808,
	movw	ip, #:lower16:.LC255	@ tmp193,
	movt	ip, #:upper16:.LC255	@ tmp193,
	str	ip, [sp, #0]	@ tmp193,
	bl	request_threaded_irq	@
	cmp	r0, #0	@ D.41815
	bne	.L732	@,
.L711:
	ldr	r2, [fp, #-40]	@ D.43811, D.43811
	ldr	r1, [r5, #0]	@ __stack_chk_guard, __stack_chk_guard
	cmp	r2, r1	@ D.43811, __stack_chk_guard
	bne	.L734	@,
	sub	sp, fp, #36
	ldmfd	sp, {r4, r5, r6, r7, r8, sl, fp, sp, pc}
.L729:
	mov	r0, r7	@, pstMem.2755
.L733:
	mov	r1, #12	@,
	bl	__memzero	@
	mov	r0, r4	@, pstDrvMem
	bl	CloseDrivers	@
	mvn	r0, #0	@ D.39641,
	b	.L711	@
.L732:
	mov	r0, r6	@, pstMem.2769
	b	.L733	@
.L717:
	mov	r0, sl	@, pstMem.2759
	b	.L733	@
.L719:
	mov	r1, #12	@,
	mov	r0, r4	@, pstDrvMem
	bl	__memzero	@
	mov	r0, r4	@, pstDrvMem
	bl	CloseDrivers	@
	mvn	r0, #0	@ D.39641,
	b	.L711	@
.L734:
	bl	__stack_chk_fail	@
	.fnend
	.size	OpenDrivers, .-OpenDrivers
	.align	2
	.global	VCTRL_ConfigPVRInfo
	.type	VCTRL_ConfigPVRInfo, %function
VCTRL_ConfigPVRInfo:
	.fnstart
.LFB1573:
	@ args = 0, pretend = 0, frame = 0
	@ frame_needed = 1, uses_anonymous_args = 0
	.movsp ip
	mov	ip, sp	@,
	stmfd	sp!, {r4, r5, fp, ip, lr, pc}	@,
	.pad #4
	.save {r4, r5, fp, ip, lr}
	.setfp fp, ip, #-4
	sub	fp, ip, #4	@,,
	push	{lr}
	bl	__gnu_mcount_nc
	cmp	r0, #15	@ ChanID,
	bhi	.L741	@,
	movw	r2, #:lower16:.LANCHOR0	@ tmp140,
	movt	r2, #:upper16:.LANCHOR0	@ tmp140,
	ldr	ip, [r2, r0, asl #2]	@ D.39029, s_pstVfmwChan
	ldr	r3, [ip, #12]	@ <variable>.s32IsOpen, <variable>.s32IsOpen
	cmp	r3, #1	@ <variable>.s32IsOpen,
	bne	.L742	@,
	cmp	r1, #0	@ pArgs,
	beq	.L743	@,
	mov	r4, r1	@ pArgs, pArgs
	add	ip, ip, #1488	@ tmp146, D.39029,
	ldmia	r4!, {r0, r1, r2, r3}	@ pArgs,,,,
	mov	r5, #0	@ D.39027,
	stmia	ip!, {r0, r1, r2, r3}	@ tmp146,,,,
	ldr	r0, [r4, #0]	@ tmp149,* pArgs
	str	r0, [ip, #0]	@ tmp149, <variable>.stSynExtraData.stPvrInfo
.L737:
	mov	r0, r5	@, D.39027
	ldmfd	sp, {r4, r5, fp, sp, pc}	@
.L742:
	mov	r0, #0	@,
	movw	r1, #:lower16:.LC3	@,
	movw	r2, #4714	@,
	movt	r1, #:upper16:.LC3	@,
	movw	r3, #:lower16:.LC21	@,
	movt	r3, #:upper16:.LC21	@,
	bl	dprint_vfmw	@
	mvn	r5, #0	@ D.39027,
	b	.L737	@
.L741:
	mov	r0, #0	@,
	movw	r1, #:lower16:.LC3	@,
	movw	r2, #4713	@,
	movt	r1, #:upper16:.LC3	@,
	movw	r3, #:lower16:.LC2	@,
	movt	r3, #:upper16:.LC2	@,
	bl	dprint_vfmw	@
	mvn	r5, #0	@ D.39027,
	b	.L737	@
.L743:
	mov	r0, r1	@, pArgs
	movw	r2, #4715	@,
	movw	r1, #:lower16:.LC3	@,
	movw	r3, #:lower16:.LC22	@,
	movt	r1, #:upper16:.LC3	@,
	movt	r3, #:upper16:.LC22	@,
	bl	dprint_vfmw	@
	mvn	r5, #0	@ D.39027,
	b	.L737	@
	.fnend
	.size	VCTRL_ConfigPVRInfo, .-VCTRL_ConfigPVRInfo
	.align	2
	.global	VCTRL_GetChanCfg
	.type	VCTRL_GetChanCfg, %function
VCTRL_GetChanCfg:
	.fnstart
.LFB1552:
	@ args = 0, pretend = 0, frame = 0
	@ frame_needed = 1, uses_anonymous_args = 0
	.movsp ip
	mov	ip, sp	@,
	stmfd	sp!, {fp, ip, lr, pc}	@,
	.pad #4
	.save {fp, ip, lr}
	.setfp fp, ip, #-4
	sub	fp, ip, #4	@,,
	push	{lr}
	bl	__gnu_mcount_nc
	cmp	r0, #15	@ ChanID,
	bhi	.L750	@,
	cmp	r1, #0	@ pstCfg,
	beq	.L751	@,
	movw	r3, #:lower16:.LANCHOR0	@ tmp142,
	movt	r3, #:upper16:.LANCHOR0	@ tmp142,
	ldr	r3, [r3, r0, asl #2]	@ D.37896, s_pstVfmwChan
	cmp	r3, #0	@ D.37896,
	beq	.L752	@,
	mov	r0, r1	@, pstCfg
	mov	r2, #80	@,
	add	r1, r3, #40	@, D.37896,
	bl	memcpy	@
	mov	r0, #0	@ D.37892,
	ldmfd	sp, {fp, sp, pc}	@
.L750:
	mov	r0, #0	@,
	movw	r1, #:lower16:.LC3	@,
	mov	r2, #2880	@,
	movt	r1, #:upper16:.LC3	@,
	movw	r3, #:lower16:.LC2	@,
	movt	r3, #:upper16:.LC2	@,
	bl	dprint_vfmw	@
	mvn	r0, #0	@ D.37892,
	ldmfd	sp, {fp, sp, pc}	@
.L752:
	mov	r0, r3	@, D.37896
	movw	r1, #:lower16:.LC3	@,
	movw	r2, #2882	@,
	movt	r1, #:upper16:.LC3	@,
	movw	r3, #:lower16:.LC6	@,
	movt	r3, #:upper16:.LC6	@,
	bl	dprint_vfmw	@
	mvn	r0, #0	@ D.37892,
	ldmfd	sp, {fp, sp, pc}	@
.L751:
	mov	r0, r1	@, pstCfg
	movw	r2, #2881	@,
	movw	r1, #:lower16:.LC3	@,
	movw	r3, #:lower16:.LC256	@,
	movt	r1, #:upper16:.LC3	@,
	movt	r3, #:upper16:.LC256	@,
	bl	dprint_vfmw	@
	mvn	r0, #0	@ D.37892,
	ldmfd	sp, {fp, sp, pc}	@
	.fnend
	.size	VCTRL_GetChanCfg, .-VCTRL_GetChanCfg
	.align	2
	.global	VCTRL_GetChanState
	.type	VCTRL_GetChanState, %function
VCTRL_GetChanState:
	.fnstart
.LFB1539:
	@ args = 0, pretend = 0, frame = 64
	@ frame_needed = 1, uses_anonymous_args = 0
	.movsp ip
	mov	ip, sp	@,
	stmfd	sp!, {r4, r5, r6, r7, r8, fp, ip, lr, pc}	@,
	.pad #4
	.save {r4, r5, r6, r7, r8, fp, ip, lr}
	.setfp fp, ip, #-4
	sub	fp, ip, #4	@,,
	.pad #68
	sub	sp, sp, #68	@,,
	push	{lr}
	bl	__gnu_mcount_nc
	subs	r4, r1, #0	@ pstChanState, pstChanState
	mov	r5, r0	@ ChanID, ChanID
	beq	.L759	@,
	movw	r6, #:lower16:.LANCHOR0	@ tmp202,
	movt	r6, #:upper16:.LANCHOR0	@ tmp202,
	mov	r1, #104	@,
	mov	r0, r4	@, pstChanState
	mov	r7, #0	@ tmp142,
	str	r7, [fp, #-40]	@ tmp142, RefNum
	str	r7, [fp, #-44]	@ tmp142, ReadNum
	str	r7, [fp, #-48]	@ tmp142, NewNum
	bl	__memzero	@
	ldr	r1, [r6, r5, asl #2]	@ D.37203, s_pstVfmwChan
	cmp	r1, r7	@ D.37203,
	beq	.L759	@,
	add	r1, r1, #1344	@, D.37203,
	mov	r0, r4	@, pstChanState
	add	r1, r1, #4	@,,
	mov	r2, #104	@,
	bl	memcpy	@
	ldr	r0, [r6, r5, asl #2]	@ temp.2859, s_pstVfmwChan
	movw	r3, #:lower16:181793	@ tmp153,
	movt	r3, #:upper16:181793	@ tmp153,
	ldrsb	lr, [r0, r3]	@ D.37211, <variable>.FspInst.s32DecFsNum
	cmp	lr, r7	@ D.37211,
	ble	.L756	@,
	movw	r1, #:lower16:213674	@ tmp161,
	movt	r1, #:upper16:213674	@ tmp161,
	add	r3, r0, r1	@ tmp161, temp.2859, tmp161
	add	lr, lr, lr, asl #1	@, tmp158, D.37211, D.37211,
	ldrsb	r2, [r3, #0]	@ <variable>.DispState, <variable>.DispState
	mov	lr, lr, asl #4	@ D.43900, tmp158,
	sub	ip, lr, #48	@ tmp208, D.43900,
	cmp	r2, #3	@ <variable>.DispState,
	ubfx	r2, ip, #4, #1	@ tmp212, tmp208,,
	beq	.L772	@,
.L761:
	mov	r3, #48	@ ivtmp.2854,
	cmp	r3, lr	@ ivtmp.2854, D.43900
	beq	.L756	@,
	cmp	r2, #0	@ tmp212,
	beq	.L758	@,
	movw	ip, #:lower16:213722	@ tmp227,
	movt	ip, #:upper16:213722	@ tmp227,
	add	r2, r0, ip	@ tmp227, temp.2859, tmp227
	add	r3, r3, #48	@ ivtmp.2854, ivtmp.2854,
	ldrsb	r1, [r2, #0]	@ <variable>.DispState, <variable>.DispState
	cmp	r1, #3	@ <variable>.DispState,
	addeq	r7, r7, #1	@ s32DecodedFrameNum, s32DecodedFrameNum,
	cmp	r3, lr	@ ivtmp.2854, D.43900
	bne	.L758	@,
	b	.L756	@
.L766:
	add	r3, r1, #48	@ ivtmp.2854, tmp213,
	cmp	r3, lr	@ ivtmp.2854, D.43900
	beq	.L756	@,
.L758:
	movw	r2, #:lower16:213674	@ tmp218,
	movt	r2, #:upper16:213674	@ tmp218,
	add	r1, r3, #48	@ tmp213, ivtmp.2854,
	add	r8, r0, r3	@ tmp216, temp.2859, ivtmp.2854
	add	ip, r0, r1	@ tmp221, temp.2859, tmp213
	mov	r3, r2	@ tmp223, tmp218
	add	r2, r8, r2	@ tmp218, tmp216, tmp218
	add	r3, ip, r3	@ tmp223, tmp221, tmp223
	ldrsb	r2, [r2, #0]	@ <variable>.DispState, <variable>.DispState
	ldrsb	ip, [r3, #0]	@ <variable>.DispState, <variable>.DispState
	cmp	r2, #3	@ <variable>.DispState,
	addeq	r7, r7, #1	@ s32DecodedFrameNum, s32DecodedFrameNum,
	cmp	ip, #3	@ <variable>.DispState,
	bne	.L766	@,
	add	r3, r1, #48	@ ivtmp.2854, tmp213,
	add	r7, r7, #1	@ s32DecodedFrameNum, s32DecodedFrameNum,
	cmp	r3, lr	@ ivtmp.2854, D.43900
	bne	.L758	@,
.L756:
	str	r7, [r4, #88]	@ prephitmp.2839, <variable>.wait_disp_frame_num
	movw	ip, #:lower16:181793	@ tmp166,
	ldr	lr, [r6, r5, asl #2]	@ tmp165, s_pstVfmwChan
	movt	ip, #:upper16:181793	@ tmp166,
	sub	r2, fp, #44	@,,
	sub	r3, fp, #48	@,,
	mov	r0, r5	@, ChanID
	sub	r1, fp, #40	@,,
	ldrsb	ip, [lr, ip]	@ <variable>.FspInst.s32DecFsNum, <variable>.FspInst.s32DecFsNum
	str	ip, [r4, #96]	@ <variable>.FspInst.s32DecFsNum, <variable>.total_disp_frame_num
	bl	VCTRL_GetChanImgNum	@
	mov	r0, #300	@ tmp177,
	mla	r3, r0, r5, r6	@ tmp178, tmp177, ChanID, tmp202
	ldr	ip, [fp, #-48]	@ NewNum, NewNum
	ldr	r2, [fp, #-44]	@ ReadNum, ReadNum
	sub	r1, fp, #96	@,,
	mov	r0, r5	@, ChanID
	add	r2, ip, r2	@ tmp173, NewNum, ReadNum
	str	r2, [r4, #52]	@ tmp173, <variable>.decoded_1d_frame_num
	ldr	ip, [r3, #1132]	@ <variable>.u32IsFieldFlag, <variable>.u32IsFieldFlag
	str	ip, [r4, #100]	@ <variable>.u32IsFieldFlag, <variable>.is_field_flg
	ldr	r2, [r3, #1120]	@ <variable>.u32FrFrameRate, <variable>.u32FrFrameRate
	str	r2, [r4, #24]	@ <variable>.u32FrFrameRate, <variable>.frame_rate
	bl	SM_GetInfo	@
	ldr	ip, [fp, #-80]	@ SmInstInfo.TotalSegSize, SmInstInfo.TotalSegSize
	sub	r1, fp, #72	@,,
	mov	r0, r5	@, ChanID
	str	ip, [r4, #56]	@ SmInstInfo.TotalSegSize, <variable>.buffered_stream_size
	ldr	r3, [fp, #-88]	@ SmInstInfo.SegNum, SmInstInfo.SegNum
	str	r3, [r4, #60]	@ SmInstInfo.SegNum, <variable>.buffered_stream_num
	bl	SM_GetInfo	@
	ldr	r1, [fp, #-52]	@ ScdInstInfo.numReadSegFail, ScdInstInfo.numReadSegFail
	movw	ip, #:lower16:235872	@ tmp196,
	movt	ip, #:upper16:235872	@ tmp196,
	cmp	r1, #10	@ ScdInstInfo.numReadSegFail,
	movle	r0, #0	@, tmp193
	movgt	r0, #1	@, tmp193
	str	r0, [r4, #84]	@ tmp193, <variable>.stream_not_enough
	ldr	r2, [r6, r5, asl #2]	@ tmp195, s_pstVfmwChan
	ldrb	r3, [r2, ip]	@ zero_extendqisi2	@ tmp198,
	and	r1, r3, #1	@ tmp200, tmp198,
	add	r0, r1, #1	@ tmp201, tmp200,
	str	r0, [r4, #92]	@ tmp201, <variable>.mpeg4_shorthead
.L759:
	sub	sp, fp, #32
	ldmfd	sp, {r4, r5, r6, r7, r8, fp, sp, pc}
.L772:
	mov	r7, #1	@ s32DecodedFrameNum,
	b	.L761	@
	.fnend
	.size	VCTRL_GetChanState, .-VCTRL_GetChanState
	.align	2
	.global	VCTRL_SetDiscardPicParam
	.type	VCTRL_SetDiscardPicParam, %function
VCTRL_SetDiscardPicParam:
	.fnstart
.LFB1537:
	@ args = 0, pretend = 0, frame = 0
	@ frame_needed = 1, uses_anonymous_args = 0
	.movsp ip
	mov	ip, sp	@,
	stmfd	sp!, {fp, ip, lr, pc}	@,
	.pad #4
	.save {fp, ip, lr}
	.setfp fp, ip, #-4
	sub	fp, ip, #4	@,,
	push	{lr}
	bl	__gnu_mcount_nc
	cmp	r0, #15	@ ChanID,
	mov	ip, r0	@ ChanID, ChanID
	bhi	.L780	@,
	cmp	r1, #0	@ pArgs,
	beq	.L781	@,
	movw	r3, #:lower16:.LANCHOR0	@ tmp143,
	movt	r3, #:upper16:.LANCHOR0	@ tmp143,
	ldr	r2, [r3, r0, asl #2]	@ D.37159, s_pstVfmwChan
	cmp	r2, #0	@ D.37159,
	beq	.L782	@,
	ldmia	r1, {r0, r1}	@ pArgs,,
	add	r2, r2, #1632	@ tmp146, D.37159,
	add	r2, r2, #4	@ tmp146, tmp146,
	stmia	r2, {r0, r1}	@ tmp146,,
	ldr	r3, [r3, ip, asl #2]	@ temp.2885, s_pstVfmwChan
	ldr	r0, [r3, #1636]	@ <variable>.stSynExtraData.stDisParams.s32Mode, <variable>.stSynExtraData.stDisParams.s32Mode
	sub	r2, r0, #1	@ tmp151, <variable>.stSynExtraData.stDisParams.s32Mode,
	mov	r0, #0	@ D.37155,
	cmp	r2, #1	@ tmp151,
	strhi	r0, [r3, #1636]	@ tmp153, <variable>.stSynExtraData.stDisParams.s32Mode
	ldmfd	sp, {fp, sp, pc}	@
.L780:
	mov	r0, #0	@,
	movw	r1, #:lower16:.LC3	@,
	movw	r2, #1380	@,
	movt	r1, #:upper16:.LC3	@,
	movw	r3, #:lower16:.LC2	@,
	movt	r3, #:upper16:.LC2	@,
	bl	dprint_vfmw	@
	mvn	r0, #0	@ D.37155,
	ldmfd	sp, {fp, sp, pc}	@
.L782:
	mov	r0, r2	@, D.37159
	movw	r1, #:lower16:.LC3	@,
	movw	r2, #1382	@,
	movt	r1, #:upper16:.LC3	@,
	movw	r3, #:lower16:.LC6	@,
	movt	r3, #:upper16:.LC6	@,
	bl	dprint_vfmw	@
	mvn	r0, #0	@ D.37155,
	ldmfd	sp, {fp, sp, pc}	@
.L781:
	mov	r0, r1	@, pArgs
	movw	r2, #1381	@,
	movw	r1, #:lower16:.LC3	@,
	movw	r3, #:lower16:.LC257	@,
	movt	r1, #:upper16:.LC3	@,
	movt	r3, #:upper16:.LC257	@,
	bl	dprint_vfmw	@
	mvn	r0, #0	@ D.37155,
	ldmfd	sp, {fp, sp, pc}	@
	.fnend
	.size	VCTRL_SetDiscardPicParam, .-VCTRL_SetDiscardPicParam
	.align	2
	.global	VCTRL_SetFrameInterface
	.type	VCTRL_SetFrameInterface, %function
VCTRL_SetFrameInterface:
	.fnstart
.LFB1534:
	@ args = 0, pretend = 0, frame = 0
	@ frame_needed = 1, uses_anonymous_args = 0
	.movsp ip
	mov	ip, sp	@,
	stmfd	sp!, {fp, ip, lr, pc}	@,
	.pad #4
	.save {fp, ip, lr}
	.setfp fp, ip, #-4
	sub	fp, ip, #4	@,,
	push	{lr}
	bl	__gnu_mcount_nc
	cmp	r1, #0	@ pstFrameIntf
	beq	.L788	@,
	movw	r3, #:lower16:.LANCHOR0	@ tmp140,
	movt	r3, #:upper16:.LANCHOR0	@ tmp140,
	ldr	r3, [r3, r0, asl #2]	@ D.37115, s_pstVfmwChan
	cmp	r3, #0	@ D.37115,
	beq	.L789	@,
	ldmia	r1, {r0, r1, r2}	@ pstFrameIntf,,,
	add	r3, r3, #144	@ tmp143, D.37115,
	mov	ip, #0	@ D.37113,
	stmia	r3, {r0, r1, r2}	@ tmp143,,,
.L785:
	mov	r0, ip	@, D.37113
	ldmfd	sp, {fp, sp, pc}	@
.L789:
	mov	r0, r3	@, D.37115
	movw	r1, #:lower16:.LC3	@,
	movw	r2, #1329	@,
	movt	r1, #:upper16:.LC3	@,
	movw	r3, #:lower16:.LC6	@,
	movt	r3, #:upper16:.LC6	@,
	bl	dprint_vfmw	@
	mvn	ip, #0	@ D.37113,
	b	.L785	@
.L788:
	mov	r0, r1	@, pstFrameIntf
	mov	r2, #1328	@,
	movw	r1, #:lower16:.LC3	@,
	movw	r3, #:lower16:.LC258	@,
	movt	r1, #:upper16:.LC3	@,
	movt	r3, #:upper16:.LC258	@,
	bl	dprint_vfmw	@
	mvn	ip, #0	@ D.37113,
	b	.L785	@
	.fnend
	.size	VCTRL_SetFrameInterface, .-VCTRL_SetFrameInterface
	.align	2
	.global	VCTRL_SetStreamInterface
	.type	VCTRL_SetStreamInterface, %function
VCTRL_SetStreamInterface:
	.fnstart
.LFB1532:
	@ args = 0, pretend = 0, frame = 0
	@ frame_needed = 1, uses_anonymous_args = 0
	.movsp ip
	mov	ip, sp	@,
	stmfd	sp!, {fp, ip, lr, pc}	@,
	.pad #4
	.save {fp, ip, lr}
	.setfp fp, ip, #-4
	sub	fp, ip, #4	@,,
	push	{lr}
	bl	__gnu_mcount_nc
	cmp	r1, #0	@ pstStreamIntf
	beq	.L795	@,
	movw	r3, #:lower16:.LANCHOR0	@ tmp140,
	movt	r3, #:upper16:.LANCHOR0	@ tmp140,
	ldr	r3, [r3, r0, asl #2]	@ D.37094, s_pstVfmwChan
	cmp	r3, #0	@ D.37094,
	beq	.L796	@,
	ldmia	r1, {r0, r1, r2}	@ pstStreamIntf,,,
	add	r3, r3, #120	@ tmp143, D.37094,
	mov	ip, #0	@ D.37092,
	stmia	r3, {r0, r1, r2}	@ tmp143,,,
.L792:
	mov	r0, ip	@, D.37092
	ldmfd	sp, {fp, sp, pc}	@
.L796:
	mov	r0, r3	@, D.37094
	movw	r1, #:lower16:.LC3	@,
	movw	r2, #1304	@,
	movt	r1, #:upper16:.LC3	@,
	movw	r3, #:lower16:.LC6	@,
	movt	r3, #:upper16:.LC6	@,
	bl	dprint_vfmw	@
	mvn	ip, #0	@ D.37092,
	b	.L792	@
.L795:
	mov	r0, r1	@, pstStreamIntf
	movw	r2, #1303	@,
	movw	r1, #:lower16:.LC3	@,
	movw	r3, #:lower16:.LC258	@,
	movt	r1, #:upper16:.LC3	@,
	movt	r3, #:upper16:.LC258	@,
	bl	dprint_vfmw	@
	mvn	ip, #0	@ D.37092,
	b	.L792	@
	.fnend
	.size	VCTRL_SetStreamInterface, .-VCTRL_SetStreamInterface
	.align	2
	.global	VCTRL_GetUsrdecFrame
	.type	VCTRL_GetUsrdecFrame, %function
VCTRL_GetUsrdecFrame:
	.fnstart
.LFB1580:
	@ args = 0, pretend = 0, frame = 0
	@ frame_needed = 1, uses_anonymous_args = 0
	.movsp ip
	mov	ip, sp	@,
	stmfd	sp!, {r4, r5, r6, r7, r8, sl, fp, ip, lr, pc}	@,
	.pad #4
	.save {r4, r5, r6, r7, r8, sl, fp, ip, lr}
	.setfp fp, ip, #-4
	sub	fp, ip, #4	@,,
	.pad #8
	sub	sp, sp, #8	@,,
	push	{lr}
	bl	__gnu_mcount_nc
	movw	r5, #:lower16:.LANCHOR0	@ tmp144,
	movt	r5, #:upper16:.LANCHOR0	@ tmp144,
	mov	r6, r0	@ ChanID, ChanID
	mov	r7, r1	@ pMem, pMem
	ldr	r3, [r5, r0, asl #2]	@ D.39212, s_pstVfmwChan
	cmp	r3, #0	@ D.39212,
	beq	.L807	@,
	ldr	r8, [r3, #944]	@ <variable>.eVidStd, <variable>.eVidStd
	cmp	r8, #18	@ <variable>.eVidStd,
	bne	.L808	@,
	ldr	r3, [r3, #884]	@ <variable>.s32UsrdecFrameNum, <variable>.s32UsrdecFrameNum
	cmp	r3, #2	@ <variable>.s32UsrdecFrameNum,
	ble	.L809	@,
	bl	FSP_IsNewFsAvalible	@
	cmp	r0, #1	@ D.39225,
	bne	.L810	@,
	mov	r1, r0	@, D.39225
	mov	r0, r6	@, ChanID
	bl	FSP_NewLogicFs	@
	subs	sl, r0, #0	@ id,
	blt	.L811	@,
	mov	r1, sl	@, id
	mov	r0, r6	@, ChanID
	bl	FSP_GetLogicFs	@
	mov	r2, sl	@, id
	movw	r1, #:lower16:.LC263	@,
	movt	r1, #:upper16:.LC263	@,
	mov	r4, r0	@ pLf,
	mov	r0, r8	@, <variable>.eVidStd
	bl	dprint_vfmw	@
	cmp	r4, #0	@ pLf,
	beq	.L812	@,
	ldr	r2, [r4, #472]	@ D.39240, <variable>.pstDecodeFs
	cmp	r2, #0	@ D.39240,
	beq	.L805	@,
	ldr	r3, [r4, #476]	@ D.39242, <variable>.pstDispOutFs
	cmp	r3, #0	@ D.39242,
	beq	.L805	@,
	ldr	ip, [r4, #480]	@ D.39244, <variable>.pstTfOutFs
	cmp	ip, #0	@ D.39244,
	beq	.L805	@,
	ldr	lr, [ip, #12]	@ <variable>.PhyAddr, <variable>.PhyAddr
	mov	r0, r8	@, <variable>.eVidStd
	ldr	r2, [r2, #12]	@ <variable>.PhyAddr, <variable>.PhyAddr
	movw	r1, #:lower16:.LC265	@,
	ldr	r3, [r3, #12]	@ <variable>.PhyAddr, <variable>.PhyAddr
	movt	r1, #:upper16:.LC265	@,
	str	lr, [sp, #0]	@ <variable>.PhyAddr,
	bl	dprint_vfmw	@
	ldr	r3, [r4, #472]	@ <variable>.pstDecodeFs, <variable>.pstDecodeFs
	mov	r0, #0	@ D.39216,
	ldr	ip, [r3, #12]	@ <variable>.PhyAddr, <variable>.PhyAddr
	str	ip, [r7, #0]	@ <variable>.PhyAddr, <variable>.PhyAddr
	ldr	r2, [r5, r6, asl #2]	@ tmp162, s_pstVfmwChan
	ldr	r1, [r2, #880]	@ <variable>.s32UsrdecFrameSize, <variable>.s32UsrdecFrameSize
	str	r1, [r7, #8]	@ <variable>.s32UsrdecFrameSize, <variable>.Length
.L799:
	sub	sp, fp, #36
	ldmfd	sp, {r4, r5, r6, r7, r8, sl, fp, sp, pc}
.L810:
	mov	r0, #0	@,
	movw	r1, #:lower16:.LC261	@,
	movt	r1, #:upper16:.LC261	@,
	bl	dprint_vfmw	@
	mvn	r0, #0	@ D.39216,
	b	.L799	@
.L808:
	mov	r0, #0	@,
	movw	r1, #:lower16:.LC259	@,
	movt	r1, #:upper16:.LC259	@,
	bl	dprint_vfmw	@
	mvn	r0, #0	@ D.39216,
	b	.L799	@
.L809:
	mov	r0, #0	@,
	movw	r1, #:lower16:.LC260	@,
	movt	r1, #:upper16:.LC260	@,
	bl	dprint_vfmw	@
	mvn	r0, #0	@ D.39216,
	b	.L799	@
.L805:
	mov	r0, #0	@,
	movw	r1, #:lower16:.LC266	@,
	movt	r1, #:upper16:.LC266	@,
	bl	dprint_vfmw	@
	mvn	r0, #0	@ D.39216,
	b	.L799	@
.L811:
	mov	r0, #0	@,
	movw	r1, #:lower16:.LC262	@,
	movt	r1, #:upper16:.LC262	@,
	bl	dprint_vfmw	@
	mvn	r0, #0	@ D.39216,
	b	.L799	@
.L807:
	mov	r0, r3	@, D.39212
	movw	r1, #:lower16:.LC3	@,
	movw	r2, #5049	@,
	movt	r1, #:upper16:.LC3	@,
	movw	r3, #:lower16:.LC6	@,
	movt	r3, #:upper16:.LC6	@,
	bl	dprint_vfmw	@
	mvn	r0, #0	@ D.39216,
	b	.L799	@
.L812:
	mov	r0, #22	@,
	movw	r1, #:lower16:.LC264	@,
	movw	r2, #5080	@,
	movt	r1, #:upper16:.LC264	@,
	bl	dprint_vfmw	@
	mvn	r0, #0	@ D.39216,
	b	.L799	@
	.fnend
	.size	VCTRL_GetUsrdecFrame, .-VCTRL_GetUsrdecFrame
	.align	2
	.global	VDH_PutUsrdecFrame
	.type	VDH_PutUsrdecFrame, %function
VDH_PutUsrdecFrame:
	.fnstart
.LFB1579:
	@ args = 0, pretend = 0, frame = 0
	@ frame_needed = 1, uses_anonymous_args = 0
	.movsp ip
	mov	ip, sp	@,
	stmfd	sp!, {r4, r5, r6, r7, r8, sl, fp, ip, lr, pc}	@,
	.pad #4
	.save {r4, r5, r6, r7, r8, sl, fp, ip, lr}
	.setfp fp, ip, #-4
	sub	fp, ip, #4	@,,
	.pad #8
	sub	sp, sp, #8	@,,
	push	{lr}
	bl	__gnu_mcount_nc
	mov	r8, r1	@ pstUsrdecFrame, pstUsrdecFrame
	ldr	r1, [r1, #28]	@, <variable>.s32LumaPhyAddr
	mov	r7, r0	@ ChanID, ChanID
	bl	FSP_GetLogicIdByPhyAddr	@
	cmn	r0, #1	@ PicBufID,
	mov	r5, r0	@ PicBufID,
	beq	.L822	@,
	ldr	r3, [r8, #4]	@ <variable>.s32IsFrameValid, <variable>.s32IsFrameValid
	cmp	r3, #1	@ <variable>.s32IsFrameValid,
	beq	.L816	@,
	mov	r0, r7	@, ChanID
	mov	r1, r5	@, PicBufID
	mov	r2, #0	@,
	bl	FSP_ClearLogicFs	@
	mov	r0, #0	@ D.39143,
.L815:
	sub	sp, fp, #36
	ldmfd	sp, {r4, r5, r6, r7, r8, sl, fp, sp, pc}
.L816:
	ldr	r0, [r8, #36]	@, <variable>.s32CbPhyAddr
	bl	MEM_Phy2Vir	@
	cmp	r0, #0	@,
	beq	.L823	@,
.L817:
	mov	r0, r7	@, ChanID
	mov	r1, r5	@, PicBufID
	bl	FSP_GetFsImagePtr	@
	subs	r4, r0, #0	@ pLogic,
	beq	.L824	@,
	str	r5, [r4, #176]	@ PicBufID, <variable>.image_id
	mov	r6, #0	@ tmp166,
	ldrd	r0, [r8, #8]	@ <variable>.Pts, pstUsrdecFrame,
	mov	sl, #1	@ tmp165,
	strd	r0, [r4]	@ <variable>.Pts, <variable>.SrcPts
	ldrd	r2, [r8, #8]	@ <variable>.Pts, pstUsrdecFrame,
	strd	r2, [r4, #8]	@ <variable>.Pts, pLogic,
	ldrd	r0, [r8, #8]	@ <variable>.Pts, pstUsrdecFrame,
	strd	r0, [r4, #16]	@ <variable>.Pts, pLogic,
	ldrd	r2, [r8, #8]	@ <variable>.Pts, pstUsrdecFrame,
	str	sl, [r4, #68]	@ tmp165, <variable>.DispEnableFlag
	str	r6, [r4, #72]	@ tmp166, <variable>.DispFrameDistance
	strd	r2, [r4, #24]	@ <variable>.Pts, pLogic,
	str	r6, [r4, #76]	@ tmp166, <variable>.DistanceBeforeFirstFrame
	str	r6, [r4, #80]	@ tmp166, <variable>.GopNum
	ldr	r1, [r8, #28]	@ temp.2995, <variable>.s32LumaPhyAddr
	str	r1, [r4, #88]	@ temp.2995, <variable>.top_luma_phy_addr
	mov	r0, r1	@, temp.2995
	str	r1, [r4, #120]	@ temp.2995, <variable>.luma_2d_phy_addr
	str	r1, [r4, #104]	@ temp.2995, <variable>.luma_phy_addr
	ldr	lr, [r8, #36]	@ temp.2996, <variable>.s32CbPhyAddr
	str	lr, [r4, #108]	@ temp.2996, <variable>.chrom_phy_addr
	str	lr, [r4, #92]	@ temp.2996, <variable>.top_chrom_phy_addr
	str	lr, [r4, #124]	@ temp.2996, <variable>.chrom_2d_phy_addr
	bl	MEM_Phy2Vir	@
	str	r0, [r4, #32]	@ D.39166, <variable>.luma_vir_addr
	str	r0, [r4, #48]	@ D.39166, <variable>.luma_2d_vir_addr
	ldr	r0, [r4, #92]	@, <variable>.top_chrom_phy_addr
	bl	MEM_Phy2Vir	@
	ldr	ip, [r4, #88]	@ <variable>.top_luma_phy_addr, <variable>.top_luma_phy_addr
	str	r0, [r4, #36]	@ D.39169, <variable>.chrom_vir_addr
	str	r0, [r4, #52]	@ D.39169, <variable>.chrom_2d_vir_addr
	ldr	r3, [r8, #32]	@ <variable>.s32LumaStride, <variable>.s32LumaStride
	ldr	r0, [r4, #92]	@ <variable>.top_chrom_phy_addr, <variable>.top_chrom_phy_addr
	add	r2, r3, ip	@ tmp172, <variable>.s32LumaStride, <variable>.top_luma_phy_addr
	str	r2, [r4, #96]	@ tmp172, <variable>.btm_luma_phy_addr
	ldr	r1, [r8, #32]	@ <variable>.s32LumaStride, <variable>.s32LumaStride
	str	r6, [r4, #128]	@ tmp166, <variable>.is_fld_save
	add	r3, r1, r0	@ tmp175, <variable>.s32LumaStride, <variable>.top_chrom_phy_addr
	str	r3, [r4, #100]	@ tmp175, <variable>.btm_chrom_phy_addr
	ldr	ip, [r8, #20]	@ <variable>.s32YWidth, <variable>.s32YWidth
	str	ip, [r4, #144]	@ <variable>.s32YWidth, <variable>.image_width
	ldr	r2, [r8, #24]	@ <variable>.s32YHeight, <variable>.s32YHeight
	str	r2, [r4, #148]	@ <variable>.s32YHeight, <variable>.image_height
	movw	r2, #11296	@ tmp185,
	ldr	r0, [r8, #20]	@ temp.3000, <variable>.s32YWidth
	str	r0, [r4, #152]	@ temp.3000, <variable>.disp_width
	mov	r1, r0, lsr sl	@ tmp179, temp.3000,
	ldr	r3, [r8, #24]	@ temp.3002, <variable>.s32YHeight
	str	r1, [r4, #160]	@ tmp179, <variable>.disp_center_x
	str	r3, [r4, #156]	@ temp.3002, <variable>.disp_height
	mov	ip, r3, lsr sl	@ tmp180, temp.3002,
	str	ip, [r4, #164]	@ tmp180, <variable>.disp_center_y
	ldr	r0, [r8, #32]	@ <variable>.s32LumaStride, <variable>.s32LumaStride
	str	r2, [r4, #140]	@ tmp185, <variable>.format
	str	r6, [r4, #168]	@ tmp166, <variable>.frame_rate
	str	r0, [r4, #172]	@ <variable>.s32LumaStride, <variable>.image_stride
	str	r6, [r4, #180]	@ tmp166, <variable>.error_level
	str	sl, [r4, #208]	@ tmp165, <variable>.chroma_idc
	str	r6, [r4, #248]	@ tmp166, <variable>.line_num_phy_addr
	str	r6, [r4, #56]	@ tmp166, <variable>.line_num_vir_addr
	ldr	r0, [r8, #16]	@, <variable>.s32IsSemiPlanar
	ldr	r1, [r8, #0]	@, <variable>.enFmt
	bl	Get_YuvFormat	@
	cmp	r0, #13	@ eYuvFormat,
	mov	r2, r0	@ eYuvFormat,
	beq	.L825	@,
	str	r0, [r4, #428]	@ eYuvFormat, <variable>.BTLInfo.YUVFormat
	mov	r2, sl	@, tmp165
	ldr	ip, [r8, #44]	@ <variable>.s32ChromStride, <variable>.s32ChromStride
	mov	sl, #18	@ tmp194,
	mov	r0, r7	@, ChanID
	mov	r1, r5	@, PicBufID
	str	ip, [r4, #404]	@ <variable>.s32ChromStride, <variable>.BTLInfo.u32CStride
	ldr	r3, [r8, #48]	@ <variable>.s32ChromCrStride, <variable>.s32ChromCrStride
	str	r3, [r4, #400]	@ <variable>.s32ChromCrStride, <variable>.BTLInfo.u32CrStride
	ldr	lr, [r8, #40]	@ <variable>.s32CrPhyAddr, <variable>.s32CrPhyAddr
	str	sl, [r4, #336]	@ tmp194, <variable>.ImageDnr.video_standard
	str	lr, [r4, #408]	@ <variable>.s32CrPhyAddr, <variable>.BTLInfo.u32CrAddr
	bl	FSP_SetDisplay	@
	movw	ip, #:lower16:.LANCHOR0	@ tmp195,
	movt	ip, #:upper16:.LANCHOR0	@ tmp195,
	str	r4, [sp, #0]	@ pLogic,
	mov	r1, sl	@, tmp194
	mov	r0, r7	@, ChanID
	ldr	r2, [ip, r7, asl #2]	@ D.39197, s_pstVfmwChan
	add	ip, r2, #219136	@, D.39197,
	add	r2, ip, #872	@, tmp3,
	add	r3, ip, #880	@,,
	bl	InsertImgToVoQueue	@
	cmp	r0, #1	@,
	moveq	r0, r6	@ D.39143, tmp166
	beq	.L815	@,
	mov	r0, r7	@, ChanID
	ldr	r1, [r4, #192]	@, <variable>.p_usrdat
	bl	FreeUsdByDec	@
	mov	r0, r7	@, ChanID
	ldr	r1, [r4, #196]	@, <variable>.p_usrdat
	str	r6, [r4, #192]	@ tmp166, <variable>.p_usrdat
	bl	FreeUsdByDec	@
	mov	r0, r7	@, ChanID
	str	r6, [r4, #196]	@ tmp166, <variable>.p_usrdat
	mov	r1, r5	@, PicBufID
	mov	r2, r6	@, tmp166
	bl	FSP_SetDisplay	@
	mvn	r0, #0	@ D.39143,
	b	.L815	@
.L823:
	ldr	r1, [r8, #4]	@ <variable>.s32IsFrameValid, <variable>.s32IsFrameValid
	cmp	r1, #1	@ <variable>.s32IsFrameValid,
	bne	.L817	@,
	ldr	r2, [r8, #36]	@, <variable>.s32CbPhyAddr
	movw	r1, #:lower16:.LC268	@,
	movt	r1, #:upper16:.LC268	@,
	bl	dprint_vfmw	@
	mvn	r0, #0	@ D.39143,
	b	.L815	@
.L822:
	ldr	r2, [r8, #28]	@, <variable>.s32LumaPhyAddr
	mov	r0, #0	@,
	movw	r1, #:lower16:.LC267	@,
	movt	r1, #:upper16:.LC267	@,
	bl	dprint_vfmw	@
	mov	r0, r5	@ D.39143, PicBufID
	b	.L815	@
.L825:
	mov	r0, sl	@, tmp165
	movw	r1, #:lower16:.LC270	@,
	movt	r1, #:upper16:.LC270	@,
	bl	dprint_vfmw	@
	mvn	r0, #0	@ D.39143,
	b	.L815	@
.L824:
	mov	r0, #22	@,
	movw	r1, #:lower16:.LC269	@,
	movw	r2, #4883	@,
	movt	r1, #:upper16:.LC269	@,
	bl	dprint_vfmw	@
	mvn	r0, #0	@ D.39143,
	b	.L815	@
	.fnend
	.size	VDH_PutUsrdecFrame, .-VDH_PutUsrdecFrame
	.align	2
	.global	VCTRL_PutUsrdecFrame
	.type	VCTRL_PutUsrdecFrame, %function
VCTRL_PutUsrdecFrame:
	.fnstart
.LFB1581:
	@ args = 0, pretend = 0, frame = 0
	@ frame_needed = 1, uses_anonymous_args = 0
	.movsp ip
	mov	ip, sp	@,
	stmfd	sp!, {r3, r4, r5, r6, fp, ip, lr, pc}	@,
	.pad #4
	.save {r3, r4, r5, r6, fp, ip, lr}
	.setfp fp, ip, #-4
	sub	fp, ip, #4	@,,
	push	{lr}
	bl	__gnu_mcount_nc
	movw	r3, #:lower16:.LANCHOR0	@ tmp140,
	movt	r3, #:upper16:.LANCHOR0	@ tmp140,
	mov	r6, r0	@ ChanID, ChanID
	mov	ip, r1	@ pUsrdecFrame, pUsrdecFrame
	ldr	lr, [r3, r0, asl #2]	@ D.39257, s_pstVfmwChan
	cmp	lr, #0	@ D.39257,
	beq	.L833	@,
	cmp	r1, #0	@ pUsrdecFrame,
	beq	.L834	@,
	ldr	r2, [lr, #944]	@ D.39264, <variable>.eVidStd
	cmp	r2, #18	@ D.39264,
	bne	.L835	@,
	mov	r4, r1	@ pUsrdecFrame, pUsrdecFrame
	add	lr, lr, #888	@ tmp146, D.39257,
	ldmia	r4!, {r0, r1, r2, r3}	@ pUsrdecFrame,,,,
	mov	r5, lr	@ tmp147, tmp146
	stmia	r5!, {r0, r1, r2, r3}	@ tmp147,,,,
	mov	lr, r5	@ tmp152, tmp147
	ldmia	r4!, {r0, r1, r2, r3}	@ pUsrdecFrame,,,,
	stmia	lr!, {r0, r1, r2, r3}	@ tmp152,,,,
	ldmia	r4!, {r0, r1, r2, r3}	@ pUsrdecFrame,,,,
	stmia	lr!, {r0, r1, r2, r3}	@ tmp152,,,,
	ldmia	r4, {r0, r1}	@ pUsrdecFrame,,
	stmia	lr, {r0, r1}	@ tmp154,,
	mov	r0, r6	@, ChanID
	mov	r1, ip	@, pUsrdecFrame
	bl	VDH_PutUsrdecFrame	@
	cmp	r0, #0	@ D.39269
	ldmeqfd	sp, {r3, r4, r5, r6, fp, sp, pc}	@
	mov	r0, #1	@,
	movw	r1, #:lower16:.LC273	@,
	movt	r1, #:upper16:.LC273	@,
	bl	dprint_vfmw	@
	mvn	r0, #0	@ D.39261,
	ldmfd	sp, {r3, r4, r5, r6, fp, sp, pc}	@
.L835:
	mov	r0, #1	@,
	movw	r1, #:lower16:.LC272	@,
	movt	r1, #:upper16:.LC272	@,
	bl	dprint_vfmw	@
	mvn	r0, #0	@ D.39261,
	ldmfd	sp, {r3, r4, r5, r6, fp, sp, pc}	@
.L834:
	mov	r0, r1	@, pUsrdecFrame
	movw	r2, #5132	@,
	movw	r1, #:lower16:.LC3	@,
	movw	r3, #:lower16:.LC271	@,
	movt	r1, #:upper16:.LC3	@,
	movt	r3, #:upper16:.LC271	@,
	bl	dprint_vfmw	@
	mvn	r0, #0	@ D.39261,
	ldmfd	sp, {r3, r4, r5, r6, fp, sp, pc}	@
.L833:
	mov	r0, lr	@, D.39257
	movw	r1, #:lower16:.LC3	@,
	movw	r2, #5131	@,
	movt	r1, #:upper16:.LC3	@,
	movw	r3, #:lower16:.LC6	@,
	movt	r3, #:upper16:.LC6	@,
	bl	dprint_vfmw	@
	mvn	r0, #0	@ D.39261,
	ldmfd	sp, {r3, r4, r5, r6, fp, sp, pc}	@
	.fnend
	.size	VCTRL_PutUsrdecFrame, .-VCTRL_PutUsrdecFrame
	.align	2
	.global	USERDEC_RecycleImage
	.type	USERDEC_RecycleImage, %function
USERDEC_RecycleImage:
	.fnstart
.LFB1578:
	@ args = 0, pretend = 0, frame = 0
	@ frame_needed = 1, uses_anonymous_args = 0
	.movsp ip
	mov	ip, sp	@,
	stmfd	sp!, {r3, r4, r5, r6, fp, ip, lr, pc}	@,
	.pad #4
	.save {r3, r4, r5, r6, fp, ip, lr}
	.setfp fp, ip, #-4
	sub	fp, ip, #4	@,,
	push	{lr}
	bl	__gnu_mcount_nc
	mov	r2, #0	@,
	mov	r5, r1	@ ImgID, ImgID
	mov	r4, r0	@ pCtx, pCtx
	ldr	r0, [r0, #360]	@, <variable>.ChanID
	bl	FSP_SetDisplay	@
	mov	r1, r5	@, ImgID
	ldr	r0, [r4, #360]	@, <variable>.ChanID
	bl	FSP_GetFsImagePtr	@
	subs	r5, r0, #0	@ pImg,
	beq	.L837	@,
	ldr	r0, [r4, #360]	@, <variable>.ChanID
	mov	r6, #0	@ tmp142,
	ldr	r1, [r5, #192]	@, <variable>.p_usrdat
	bl	FreeUsdByDec	@
	str	r6, [r5, #192]	@ tmp142, <variable>.p_usrdat
	ldr	r1, [r5, #196]	@, <variable>.p_usrdat
	ldr	r0, [r4, #360]	@, <variable>.ChanID
	bl	FreeUsdByDec	@
	str	r6, [r5, #196]	@ tmp142, <variable>.p_usrdat
.L837:
	mov	r0, #1	@,
	ldmfd	sp, {r3, r4, r5, r6, fp, sp, pc}	@
	.fnend
	.size	USERDEC_RecycleImage, .-USERDEC_RecycleImage
	.align	2
	.global	USERDEC_Init
	.type	USERDEC_Init, %function
USERDEC_Init:
	.fnstart
.LFB1577:
	@ args = 0, pretend = 0, frame = 0
	@ frame_needed = 1, uses_anonymous_args = 0
	.movsp ip
	mov	ip, sp	@,
	stmfd	sp!, {r3, r4, r5, r6, fp, ip, lr, pc}	@,
	.pad #4
	.save {r3, r4, r5, r6, fp, ip, lr}
	.setfp fp, ip, #-4
	sub	fp, ip, #4	@,,
	push	{lr}
	bl	__gnu_mcount_nc
	ldr	r6, [r0, #352]	@ D.39103, <variable>.ImageQue.ResetMagicWord
	mov	r4, r0	@ pCtx, pCtx
	mov	r5, r1	@ pstExtraData, pstExtraData
	mov	r1, #368	@,
	bl	__memzero	@
	add	r0, r4, #8	@, pCtx,
	str	r6, [r4, #352]	@ D.39103, <variable>.ImageQue.ResetMagicWord
	bl	ResetVoQueue	@
	movw	r3, #:lower16:.LANCHOR0	@ tmp207,
	movt	r3, #:upper16:.LANCHOR0	@ tmp207,
	str	r5, [r4, #0]	@ pstExtraData, <variable>.pstExtraData
	ldr	r2, [r3, #0]	@ temp.3082, s_pstVfmwChan
	cmp	r2, #0	@ temp.3082,
	beq	.L840	@,
	add	r0, r2, #219136	@ tmp157, temp.3082,
	add	r2, r0, #872	@ tmp157, tmp157,
	cmp	r4, r2	@ pCtx, tmp157
	moveq	r3, #0	@ i,
	beq	.L841	@,
.L840:
	ldr	r2, [r3, #4]	@ temp.3084, s_pstVfmwChan
	cmp	r2, #0	@ temp.3084,
	beq	.L842	@,
	add	ip, r2, #219136	@ tmp160, temp.3084,
	add	r1, ip, #872	@ tmp160, tmp160,
	cmp	r4, r1	@ pCtx, tmp160
	moveq	r3, #1	@ i,
	beq	.L841	@,
.L842:
	ldr	r2, [r3, #8]	@ temp.3086, s_pstVfmwChan
	cmp	r2, #0	@ temp.3086,
	beq	.L843	@,
	add	r2, r2, #219136	@ tmp163, temp.3086,
	add	lr, r2, #872	@ tmp163, tmp163,
	cmp	r4, lr	@ pCtx, tmp163
	moveq	r3, #2	@ i,
	beq	.L841	@,
.L843:
	ldr	r2, [r3, #12]	@ temp.3088, s_pstVfmwChan
	cmp	r2, #0	@ temp.3088,
	beq	.L844	@,
	add	r1, r2, #219136	@ tmp166, temp.3088,
	add	r0, r1, #872	@ tmp166, tmp166,
	cmp	r4, r0	@ pCtx, tmp166
	moveq	r3, #3	@ i,
	beq	.L841	@,
.L844:
	ldr	r2, [r3, #16]	@ temp.3090, s_pstVfmwChan
	cmp	r2, #0	@ temp.3090,
	beq	.L845	@,
	add	lr, r2, #219136	@ tmp169, temp.3090,
	add	ip, lr, #872	@ tmp169, tmp169,
	cmp	r4, ip	@ pCtx, tmp169
	moveq	r3, #4	@ i,
	beq	.L841	@,
.L845:
	ldr	r2, [r3, #20]	@ temp.3092, s_pstVfmwChan
	cmp	r2, #0	@ temp.3092,
	beq	.L846	@,
	add	r0, r2, #219136	@ tmp172, temp.3092,
	add	r2, r0, #872	@ tmp172, tmp172,
	cmp	r4, r2	@ pCtx, tmp172
	moveq	r3, #5	@ i,
	beq	.L841	@,
.L846:
	ldr	r2, [r3, #24]	@ temp.3094, s_pstVfmwChan
	cmp	r2, #0	@ temp.3094,
	beq	.L847	@,
	add	ip, r2, #219136	@ tmp175, temp.3094,
	add	r1, ip, #872	@ tmp175, tmp175,
	cmp	r4, r1	@ pCtx, tmp175
	moveq	r3, #6	@ i,
	beq	.L841	@,
.L847:
	ldr	r2, [r3, #28]	@ temp.3096, s_pstVfmwChan
	cmp	r2, #0	@ temp.3096,
	beq	.L848	@,
	add	r2, r2, #219136	@ tmp178, temp.3096,
	add	lr, r2, #872	@ tmp178, tmp178,
	cmp	r4, lr	@ pCtx, tmp178
	moveq	r3, #7	@ i,
	beq	.L841	@,
.L848:
	ldr	r2, [r3, #32]	@ temp.3098, s_pstVfmwChan
	cmp	r2, #0	@ temp.3098,
	beq	.L849	@,
	add	r1, r2, #219136	@ tmp181, temp.3098,
	add	r0, r1, #872	@ tmp181, tmp181,
	cmp	r4, r0	@ pCtx, tmp181
	moveq	r3, #8	@ i,
	beq	.L841	@,
.L849:
	ldr	r2, [r3, #36]	@ temp.3100, s_pstVfmwChan
	cmp	r2, #0	@ temp.3100,
	beq	.L850	@,
	add	lr, r2, #219136	@ tmp184, temp.3100,
	add	ip, lr, #872	@ tmp184, tmp184,
	cmp	r4, ip	@ pCtx, tmp184
	moveq	r3, #9	@ i,
	beq	.L841	@,
.L850:
	ldr	r2, [r3, #40]	@ temp.3102, s_pstVfmwChan
	cmp	r2, #0	@ temp.3102,
	beq	.L851	@,
	add	r0, r2, #219136	@ tmp187, temp.3102,
	add	r2, r0, #872	@ tmp187, tmp187,
	cmp	r4, r2	@ pCtx, tmp187
	moveq	r3, #10	@ i,
	beq	.L841	@,
.L851:
	ldr	r2, [r3, #44]	@ temp.3104, s_pstVfmwChan
	cmp	r2, #0	@ temp.3104,
	beq	.L852	@,
	add	ip, r2, #219136	@ tmp190, temp.3104,
	add	r1, ip, #872	@ tmp190, tmp190,
	cmp	r4, r1	@ pCtx, tmp190
	moveq	r3, #11	@ i,
	beq	.L841	@,
.L852:
	ldr	r2, [r3, #48]	@ temp.3106, s_pstVfmwChan
	cmp	r2, #0	@ temp.3106,
	beq	.L853	@,
	add	r2, r2, #219136	@ tmp193, temp.3106,
	add	lr, r2, #872	@ tmp193, tmp193,
	cmp	r4, lr	@ pCtx, tmp193
	moveq	r3, #12	@ i,
	beq	.L841	@,
.L853:
	ldr	r2, [r3, #52]	@ temp.3108, s_pstVfmwChan
	cmp	r2, #0	@ temp.3108,
	beq	.L854	@,
	add	r1, r2, #219136	@ tmp196, temp.3108,
	add	r0, r1, #872	@ tmp196, tmp196,
	cmp	r4, r0	@ pCtx, tmp196
	moveq	r3, #13	@ i,
	beq	.L841	@,
.L854:
	ldr	r2, [r3, #56]	@ temp.3110, s_pstVfmwChan
	cmp	r2, #0	@ temp.3110,
	beq	.L855	@,
	add	lr, r2, #219136	@ tmp199, temp.3110,
	add	ip, lr, #872	@ tmp199, tmp199,
	cmp	r4, ip	@ pCtx, tmp199
	moveq	r3, #14	@ i,
	beq	.L841	@,
.L855:
	ldr	r3, [r3, #60]	@ D.41822, s_pstVfmwChan
	cmp	r3, #0	@ D.41822,
	beq	.L856	@,
	add	r2, r3, #219136	@ tmp202, D.41822,
	add	r3, r2, #872	@ tmp202, tmp202,
	cmp	r4, r3	@ pCtx, tmp202
	beq	.L857	@,
.L856:
	mvn	r0, #0	@ tmp204,
	movw	r1, #:lower16:.LC274	@,
	str	r0, [r4, #360]	@ tmp204, <variable>.ChanID
	movt	r1, #:upper16:.LC274	@,
	mov	r0, #0	@,
	bl	dprint_vfmw	@
	mvn	r0, #19	@ D.39116,
	ldmfd	sp, {r3, r4, r5, r6, fp, sp, pc}	@
.L857:
	mov	r3, #15	@ i,
.L841:
	mov	r0, #1	@ D.39116,
	str	r3, [r4, #360]	@ i, <variable>.ChanID
	ldmfd	sp, {r3, r4, r5, r6, fp, sp, pc}	@
	.fnend
	.size	USERDEC_Init, .-USERDEC_Init
	.align	2
	.global	InitSyntaxCtx
	.type	InitSyntaxCtx, %function
InitSyntaxCtx:
	.fnstart
.LFB1582:
	@ args = 0, pretend = 0, frame = 0
	@ frame_needed = 1, uses_anonymous_args = 0
	.movsp ip
	mov	ip, sp	@,
	stmfd	sp!, {fp, ip, lr, pc}	@,
	.pad #4
	.save {fp, ip, lr}
	.setfp fp, ip, #-4
	sub	fp, ip, #4	@,,
	push	{lr}
	bl	__gnu_mcount_nc
	movw	r3, #:lower16:.LANCHOR0	@ tmp190,
	movt	r3, #:upper16:.LANCHOR0	@ tmp190,
	ldr	r1, [r3, r0, asl #2]	@ D.39295, s_pstVfmwChan
	cmp	r1, #0	@ D.39295,
	beq	.L881	@,
	ldr	r2, [r1, #944]	@ <variable>.eVidStd, <variable>.eVidStd
	cmp	r2, #18	@ <variable>.eVidStd,
	ldrls	pc, [pc, r2, asl #2]	@ <variable>.eVidStd
	b	.L878	@
.L876:
	.word	.L863
	.word	.L864
	.word	.L865
	.word	.L866
	.word	.L867
	.word	.L868
	.word	.L869
	.word	.L878
	.word	.L870
	.word	.L871
	.word	.L872
	.word	.L872
	.word	.L872
	.word	.L873
	.word	.L867
	.word	.L874
	.word	.L878
	.word	.L878
	.word	.L875
.L875:
	add	r2, r1, #219136	@, D.39295,
	add	r1, r1, #952	@, D.39295,
	add	r0, r2, #872	@,,
	bl	USERDEC_Init	@
.L878:
	ldmfd	sp, {fp, sp, pc}	@
.L872:
	ldr	r2, [r3, #64]	@ g_VdmCharacter, g_VdmCharacter
	movw	r3, #:lower16:.LANCHOR0	@ tmp167,
	movt	r3, #:upper16:.LANCHOR0	@ tmp167,
	tst	r2, #1	@ g_VdmCharacter,
	bne	.L882	@,
.L867:
	ldr	r3, [r3, #88]	@ temp.3144, g_SdecFunc.pfun_iMediaSoftDEC_Init
	cmp	r3, #0	@ temp.3144,
	ldmeqfd	sp, {fp, sp, pc}	@
	add	r0, r1, #219136	@, D.39295,
	add	r1, r1, #952	@, D.39295,
	add	r0, r0, #872	@,,
	blx	r3	@ temp.3144
	ldmfd	sp, {fp, sp, pc}	@
.L868:
	add	r3, r1, #219136	@, D.39295,
	add	r1, r1, #952	@, D.39295,
	add	r0, r3, #872	@,,
	bl	DIVX3DEC_Init	@
	ldmfd	sp, {fp, sp, pc}	@
.L869:
	add	lr, r1, #219136	@, D.39295,
	add	r1, r1, #952	@, D.39295,
	add	r0, lr, #872	@,,
	bl	AVSDEC_Init	@
	ldmfd	sp, {fp, sp, pc}	@
.L870:
	add	r2, r1, #219136	@, D.39295,
	add	r1, r1, #952	@, D.39295,
	add	r0, r2, #872	@,,
	bl	REAL8DEC_Init	@
	ldmfd	sp, {fp, sp, pc}	@
.L871:
	add	r0, r1, #219136	@, D.39295,
	add	r1, r1, #952	@, D.39295,
	add	r0, r0, #872	@,,
	bl	REAL9DEC_Init	@
	ldmfd	sp, {fp, sp, pc}	@
.L873:
	add	r3, r1, #219136	@, D.39295,
	add	r1, r1, #952	@, D.39295,
	add	r0, r3, #872	@,,
	bl	VP8DEC_Init	@
	ldmfd	sp, {fp, sp, pc}	@
.L874:
	add	ip, r1, #219136	@, D.39295,
	add	r1, r1, #952	@, D.39295,
	add	r0, ip, #872	@,,
	bl	MVC_DEC_Init	@
	ldmfd	sp, {fp, sp, pc}	@
.L863:
	add	ip, r1, #219136	@, D.39295,
	add	r1, r1, #952	@, D.39295,
	add	r0, ip, #872	@,,
	bl	H264DEC_Init	@
	ldmfd	sp, {fp, sp, pc}	@
.L864:
	add	ip, r1, #219136	@, D.39295,
	add	r1, r1, #952	@, D.39295,
	add	r0, ip, #872	@,,
	bl	VC1DEC_Init	@
	ldmfd	sp, {fp, sp, pc}	@
.L865:
	add	r3, r1, #219136	@, D.39295,
	add	r1, r1, #952	@, D.39295,
	add	r0, r3, #872	@,,
	bl	MPEG4DEC_Init	@
	ldmfd	sp, {fp, sp, pc}	@
.L866:
	add	r0, r1, #219136	@, D.39295,
	add	r1, r1, #952	@, D.39295,
	add	r0, r0, #872	@,,
	bl	MPEG2DEC_Init	@
	ldmfd	sp, {fp, sp, pc}	@
.L882:
	add	lr, r1, #219136	@, D.39295,
	add	r1, r1, #952	@, D.39295,
	add	r0, lr, #872	@,,
	bl	VP6DEC_Init	@
	ldmfd	sp, {fp, sp, pc}	@
.L881:
	mov	r0, r1	@, D.39295
	movw	r2, #5159	@,
	movw	r1, #:lower16:.LC1	@,
	movw	r3, #:lower16:.LC6	@,
	movt	r1, #:upper16:.LC1	@,
	movt	r3, #:upper16:.LC6	@,
	bl	dprint_vfmw	@
	ldmfd	sp, {fp, sp, pc}	@
	.fnend
	.size	InitSyntaxCtx, .-InitSyntaxCtx
	.align	2
	.global	VCTRL_GetImageBuffer
	.type	VCTRL_GetImageBuffer, %function
VCTRL_GetImageBuffer:
	.fnstart
.LFB1571:
	@ args = 0, pretend = 0, frame = 0
	@ frame_needed = 1, uses_anonymous_args = 0
	.movsp ip
	mov	ip, sp	@,
	stmfd	sp!, {fp, ip, lr, pc}	@,
	.pad #4
	.save {fp, ip, lr}
	.setfp fp, ip, #-4
	sub	fp, ip, #4	@,,
	push	{lr}
	bl	__gnu_mcount_nc
	cmp	r0, #15	@ ChanId,
	bhi	.L903	@,
	movw	r3, #:lower16:.LANCHOR0	@ tmp172,
	movt	r3, #:upper16:.LANCHOR0	@ tmp172,
	ldr	r0, [r3, r0, asl #2]	@ D.38968, s_pstVfmwChan
	cmp	r0, #0	@ D.38968,
	beq	.L904	@,
	ldr	r2, [r0, #16]	@ <variable>.s32IsRun, <variable>.s32IsRun
	cmp	r2, #1	@ <variable>.s32IsRun,
	bne	.L905	@,
	ldr	r1, [r0, #944]	@ <variable>.eVidStd, <variable>.eVidStd
	cmp	r1, #15	@ <variable>.eVidStd,
	ldrls	pc, [pc, r1, asl #2]	@ <variable>.eVidStd
	b	.L888	@
.L901:
	.word	.L889
	.word	.L890
	.word	.L891
	.word	.L892
	.word	.L893
	.word	.L894
	.word	.L895
	.word	.L888
	.word	.L896
	.word	.L897
	.word	.L898
	.word	.L898
	.word	.L898
	.word	.L899
	.word	.L893
	.word	.L900
.L898:
	ldr	ip, [r3, #64]	@ g_VdmCharacter, g_VdmCharacter
	tst	ip, #1	@ g_VdmCharacter,
	bne	.L906	@,
.L893:
	mov	r0, #1	@ Ret,
	ldmfd	sp, {fp, sp, pc}	@
.L894:
	add	r0, r0, #219136	@, D.38968,
	add	r0, r0, #872	@,,
	bl	DIVX3DEC_GetImageBuffer	@
	ldmfd	sp, {fp, sp, pc}	@
.L895:
	add	lr, r0, #219136	@, D.38968,
	add	r0, lr, #872	@,,
	bl	AVSDEC_GetImageBuffer	@
	ldmfd	sp, {fp, sp, pc}	@
.L896:
	add	r2, r0, #219136	@, D.38968,
	add	r0, r2, #872	@,,
	bl	REAL8DEC_GetImageBuffer	@
	ldmfd	sp, {fp, sp, pc}	@
.L897:
	add	r1, r0, #219136	@, D.38968,
	add	r0, r1, #872	@,,
	bl	REAL9DEC_GetImageBuffer	@
	ldmfd	sp, {fp, sp, pc}	@
.L899:
	add	r2, r0, #219136	@, D.38968,
	add	r0, r2, #872	@,,
	bl	VP8DEC_GetImageBuffer	@
	ldmfd	sp, {fp, sp, pc}	@
.L900:
	add	r1, r0, #219136	@, D.38968,
	add	r0, r1, #872	@,,
	bl	MVC_DEC_GetImageBuffer	@
	ldmfd	sp, {fp, sp, pc}	@
.L888:
	mov	r0, #0	@ Ret,
	ldmfd	sp, {fp, sp, pc}	@
.L889:
	add	r0, r0, #219136	@, D.38968,
	add	r0, r0, #872	@,,
	bl	H264DEC_GetImageBuffer	@
	ldmfd	sp, {fp, sp, pc}	@
.L890:
	add	r3, r0, #219136	@, D.38968,
	add	r0, r3, #872	@,,
	bl	VC1DEC_GetImageBuffer	@
	ldmfd	sp, {fp, sp, pc}	@
.L891:
	add	ip, r0, #219136	@, D.38968,
	add	r0, ip, #872	@,,
	bl	MPEG4DEC_GetImageBuffer	@
	ldmfd	sp, {fp, sp, pc}	@
.L892:
	add	r3, r0, #219136	@, D.38968,
	add	r0, r3, #872	@,,
	bl	MPEG2DEC_GetImageBuffer	@
	ldmfd	sp, {fp, sp, pc}	@
.L906:
	add	lr, r0, #219136	@, D.38968,
	add	r0, lr, #872	@,,
	bl	VP6DEC_GetImageBuffer	@
	ldmfd	sp, {fp, sp, pc}	@
.L905:
	mov	r0, #0	@,
	movw	r1, #:lower16:.LC3	@,
	movw	r2, #4612	@,
	movt	r1, #:upper16:.LC3	@,
	movw	r3, #:lower16:.LC276	@,
	movt	r3, #:upper16:.LC276	@,
	bl	dprint_vfmw	@
	mvn	r0, #0	@ Ret,
	ldmfd	sp, {fp, sp, pc}	@
.L903:
	mov	r0, #0	@,
	movw	r1, #:lower16:.LC3	@,
	movw	r2, #4610	@,
	movt	r1, #:upper16:.LC3	@,
	movw	r3, #:lower16:.LC23	@,
	movt	r3, #:upper16:.LC23	@,
	bl	dprint_vfmw	@
	mvn	r0, #0	@ Ret,
	ldmfd	sp, {fp, sp, pc}	@
.L904:
	movw	r1, #:lower16:.LC3	@,
	movw	r2, #4611	@,
	movt	r1, #:upper16:.LC3	@,
	movw	r3, #:lower16:.LC275	@,
	movt	r3, #:upper16:.LC275	@,
	bl	dprint_vfmw	@
	mvn	r0, #0	@ Ret,
	ldmfd	sp, {fp, sp, pc}	@
	.fnend
	.size	VCTRL_GetImageBuffer, .-VCTRL_GetImageBuffer
	.align	2
	.global	DecChanSyntax
	.type	DecChanSyntax, %function
DecChanSyntax:
	.fnstart
.LFB1592:
	@ args = 0, pretend = 0, frame = 56
	@ frame_needed = 1, uses_anonymous_args = 0
	.movsp ip
	mov	ip, sp	@,
	stmfd	sp!, {r4, r5, r6, r7, r8, r9, sl, fp, ip, lr, pc}	@,
	.pad #4
	.save {r4, r5, r6, r7, r8, r9, sl, fp, ip, lr}
	.setfp fp, ip, #-4
	sub	fp, ip, #4	@,,
	.pad #68
	sub	sp, sp, #68	@,,
	push	{lr}
	bl	__gnu_mcount_nc
	cmp	r0, #15	@ ChanID,
	mov	r4, r0	@ ChanID, ChanID
	bhi	.L944	@,
	movw	r5, #:lower16:.LANCHOR0	@ tmp404,
	movt	r5, #:upper16:.LANCHOR0	@ tmp404,
	ldr	r0, [r5, r0, asl #2]	@ D.40009, s_pstVfmwChan
	cmp	r0, #0	@ D.40009,
	beq	.L945	@,
	ldr	sl, [r0, #16]	@ <variable>.s32IsRun, <variable>.s32IsRun
	cmp	sl, #1	@ <variable>.s32IsRun,
	bne	.L946	@,
	ldr	r6, [r0, #24]	@ <variable>.s32StopSyntax, <variable>.s32StopSyntax
	cmp	r6, #0	@ <variable>.s32StopSyntax,
	bne	.L947	@,
	str	r6, [r0, #736]	@ <variable>.s32StopSyntax, <variable>.s32NoStreamFlag
	mov	r8, r4, asl #2	@, ChanID,
	str	r8, [fp, #-100]	@, %sfp
	bl	OSAL_GetTimeInMs	@
	ldr	ip, [fp, #-100]	@, %sfp
	movw	r7, #:lower16:.LANCHOR3	@ tmp405,
	movt	r7, #:upper16:.LANCHOR3	@ tmp405,
	movw	r2, #:lower16:g_TraceBsPeriod	@ tmp186,
	movt	r2, #:upper16:g_TraceBsPeriod	@ tmp186,
	ldr	r3, [r2, #0]	@ g_TraceBsPeriod, g_TraceBsPeriod
	ldr	r2, [r5, r4, asl #2]	@ tmp194, s_pstVfmwChan
	mov	r8, r0	@ currtime,
	add	r0, ip, r7	@ tmp182,, tmp405
	ldr	r1, [r0, #-2272]	@ tmp185, last_rec_pos_time
	rsb	ip, r1, r8	@ tmp184, tmp185, currtime
	cmp	ip, r3	@ tmp184, g_TraceBsPeriod
	strls	r6, [fp, #-56]	@ <variable>.s32StopSyntax, %sfp
	strhi	sl, [fp, #-56]	@ <variable>.s32IsRun, %sfp
	movw	r3, #:lower16:.LANCHOR0	@ tmp193,
	strhi	r8, [r0, #-2272]	@ currtime, last_rec_pos_time
	movt	r3, #:upper16:.LANCHOR0	@ tmp193,
	ldr	r2, [r2, #944]	@ D.40028, <variable>.eVidStd
	sub	r1, r2, #10	@ tmp195, D.40028,
	cmp	r1, #2	@ tmp195,
	bls	.L948	@,
	cmp	r2, #14	@ D.40028,
	beq	.L917	@,
	cmp	r2, #4	@ D.40028,
	bne	.L916	@,
.L917:
	mov	r0, r4	@, ChanID
	bl	VCTRL_GetImageBuffer	@
	cmp	r0, #1	@,
	bne	.L949	@,
	ldr	r6, [r5, r4, asl #2]	@ temp.3225, s_pstVfmwChan
	ldrb	r9, [r6, #1089]	@ zero_extendqisi2	@ <variable>.stSynExtraData.stSegPacket.IsCurrSegWaitDec, <variable>.stSynExtraData.stSegPacket.IsCurrSegWaitDec
	cmp	r9, #0	@ <variable>.stSynExtraData.stSegPacket.IsCurrSegWaitDec,
	addne	sl, r6, #1088	@ tmp403, temp.3225,
	beq	.L950	@,
.L921:
	mov	r0, #1120	@ tmp225,
	mov	lr, #1136	@ tmp227,
	ldrd	r8, [r6, r0]	@ <variable>.stSynExtraData.stSegPacket.CurrSeg.Pts, temp.3225, tmp225
	movw	r1, #:lower16:.LC281	@,
	ldrd	r2, [r6, lr]	@, temp.3225, tmp227
	movt	r1, #:upper16:.LC281	@,
	mov	r0, #29	@,
	strd	r2, [sp]	@,
	mov	r2, r8	@, <variable>.stSynExtraData.stSegPacket.CurrSeg.Pts
	mov	r3, r9	@, <variable>.stSynExtraData.stSegPacket.CurrSeg.Pts
	bl	dprint_vfmw	@
	ldr	r0, [r5, r4, asl #2]	@ prephitmp.3207, s_pstVfmwChan
	ldr	r1, [r0, #40]	@ D.40077, <variable>.stChanCfg.eVidStd
	cmp	r1, #1	@ D.40077,
	beq	.L951	@,
	sub	lr, r1, #2	@ tmp239, D.40077,
	cmp	r1, #6	@ D.40077,
	cmpne	lr, #1	@, tmp239,
	bls	.L927	@,
.L926:
	mov	r3, #1120	@ tmp342,
	mvn	r8, #0	@,
	ldrd	r2, [r3, r6]	@ temp.3228, tmp342, temp.3225
	mvn	r9, #0	@,
	cmp	r3, r9	@ temp.3228,
	cmpeq	r2, r8	@ temp.3228,
	movne	r1, #1008	@ tmp344,
	strned	r2, [r0, r1]	@ temp.3228, prephitmp.3207, tmp344
	ldrne	r0, [r5, r4, asl #2]	@ prephitmp.3207, s_pstVfmwChan
.L935:
	mov	lr, #1136	@ tmp347,
	mov	r3, #1024	@ tmp346,
	ldrd	r8, [r6, lr]	@, temp.3225, tmp347
	movw	r1, #1144	@ tmp352,
	mov	r2, #1040	@ tmp351,
	strd	r8, [r0, r3]	@, prephitmp.3207, tmp346
	ldrd	r8, [r6, r1]	@, temp.3225, tmp352
	movw	r1, #:lower16:.LC284	@,
	ldr	ip, [r5, r4, asl #2]	@, s_pstVfmwChan
	movt	r1, #:upper16:.LC284	@,
	strd	r8, [fp, #-68]	@,,
	ldr	r0, [r6, #1152]	@, <variable>.stSynExtraData.stSegPacket.CurrSeg.DispEnableFlag
	str	r0, [fp, #-52]	@, %sfp
	mov	r0, #29	@,
	ldr	r9, [r6, #1160]	@, <variable>.stSynExtraData.stSegPacket.CurrSeg.DistanceBeforeFirstFrame
	ldr	lr, [r6, #1156]	@ <variable>.stSynExtraData.stSegPacket.CurrSeg.DispFrameDistance, <variable>.stSynExtraData.stSegPacket.CurrSeg.DispFrameDistance
	str	r9, [fp, #-96]	@, %sfp
	ldrd	r8, [fp, #-68]	@,,
	strd	r8, [ip, r2]	@,, tmp351
	ldr	r9, [fp, #-52]	@, %sfp
	ldr	r8, [r5, r4, asl #2]	@ tmp355, s_pstVfmwChan
	ldr	r2, [r6, #1164]	@ <variable>.stSynExtraData.stSegPacket.CurrSeg.GopNum, <variable>.stSynExtraData.stSegPacket.CurrSeg.GopNum
	str	r9, [r8, #1056]	@, <variable>.stSynExtraData.DispEnableFlag
	ldr	ip, [r5, r4, asl #2]	@ tmp358, s_pstVfmwChan
	str	lr, [ip, #1060]	@ <variable>.stSynExtraData.stSegPacket.CurrSeg.DispFrameDistance, <variable>.stSynExtraData.DispFrameDistance
	mov	ip, #1008	@ tmp368,
	ldr	r9, [r5, r4, asl #2]	@ tmp361, s_pstVfmwChan
	ldr	lr, [fp, #-96]	@, %sfp
	str	lr, [r9, #1064]	@, <variable>.stSynExtraData.DistanceBeforeFirstFrame
	ldr	r8, [r5, r4, asl #2]	@ tmp364, s_pstVfmwChan
	str	r2, [r8, #1080]	@ <variable>.stSynExtraData.stSegPacket.CurrSeg.GopNum, <variable>.stSynExtraData.GopNum
	ldr	r2, [r5, r4, asl #2]	@ temp.3235, s_pstVfmwChan
	ldrd	r8, [r2, r3]	@, temp.3235, tmp346
	add	r2, r2, ip	@, temp.3235, tmp368
	ldrd	r2, [r2]	@ <variable>.stSynExtraData.pts,
	strd	r8, [sp]	@,
	bl	dprint_vfmw	@
.L934:
	mov	r0, #3	@,
	bl	CHECK_REC_POS_ENABLE	@
	cmp	r0, #0	@,
	beq	.L936	@,
	ldr	r9, [fp, #-56]	@, %sfp
	cmp	r9, #1	@,
	beq	.L952	@,
.L936:
	ldr	ip, [r5, r4, asl #2]	@ temp.3276, s_pstVfmwChan
	mov	r0, sl	@, tmp403
	add	r2, ip, #219136	@, temp.3276,
	add	r2, r2, #872	@,,
	ldr	r1, [ip, #944]	@, <variable>.eVidStd
	bl	DecodeStream	@
	mov	r0, #4	@,
	bl	CHECK_REC_POS_ENABLE	@
	cmp	r0, #0	@,
	bne	.L953	@,
.L937:
	mov	r0, #0	@ D.40007,
.L909:
	sub	sp, fp, #40
	ldmfd	sp, {r4, r5, r6, r7, r8, r9, sl, fp, sp, pc}
.L948:
	ldr	lr, [r3, #64]	@ g_VdmCharacter, g_VdmCharacter
	tst	lr, #1	@ g_VdmCharacter,
	beq	.L917	@,
.L916:
	cmp	r2, #18	@ D.40028,
	beq	.L917	@,
	mov	r0, r4	@, ChanID
	bl	VCTRL_GetDecParam	@
	cmp	r0, #0	@,
	beq	.L917	@,
	ldr	r0, [fp, #-56]	@, %sfp
	cmp	r0, #1	@,
	beq	.L918	@,
	mvn	r0, #1	@ D.40007,
	b	.L909	@
.L953:
	bl	OSAL_GetTimeInMs	@
	movw	r2, #:lower16:g_TraceFramePeriod	@ tmp388,
	movt	r2, #:upper16:g_TraceFramePeriod	@ tmp388,
	ldr	ip, [r2, #0]	@ g_TraceFramePeriod, g_TraceFramePeriod
	mov	r3, r0	@ currtime.3278,
	ldr	r0, [fp, #-100]	@, %sfp
	add	r7, r0, r7	@ tmp384,, tmp405
	ldr	r1, [r7, #-2144]	@ tmp387, last_rec_pos_decparam_time
	rsb	r0, r1, r3	@ tmp386, tmp387, currtime.3278
	cmp	r0, ip	@ tmp386, g_TraceFramePeriod
	bls	.L937	@,
	mov	r0, r4	@, ChanID
	str	r3, [r7, #-2144]	@ currtime.3278, last_rec_pos_decparam_time
	bl	VCTRL_GetDecParam	@
	cmp	r0, #0	@,
	beq	.L937	@,
	mov	lr, r4, asl #24	@ tmp397, ChanID,
	ldr	r0, .L956	@,
	add	r2, lr, #262144	@, tmp397,
	movw	r1, #6701	@,
	bl	DBG_AddTrace	@
	mov	r0, #0	@ D.40007,
	b	.L909	@
.L951:
	movw	r2, #:lower16:220008	@ tmp231,
	movt	r2, #:upper16:220008	@ tmp231,
	ldr	ip, [r0, r2]	@ <variable>.stSynCtx.unSyntax.stVc1Ctx.pstExtraData, <variable>.stSynCtx.unSyntax.stVc1Ctx.pstExtraData
	ldrb	r3, [ip, #388]	@ zero_extendqisi2	@ <variable>.StdExt.Vc1Ext.IsAdvProfile, <variable>.StdExt.Vc1Ext.IsAdvProfile
	cmp	r3, #1	@ <variable>.StdExt.Vc1Ext.IsAdvProfile,
	bne	.L926	@,
.L927:
	add	r0, r0, #1328	@, prephitmp.3207,
	add	r2, sl, #8	@, tmp403,
	add	r0, r0, #8	@,,
	bl	IsNewpicSeg	@
	cmp	r0, #0	@,
	bne	.L928	@,
	ldr	r3, [r5, r4, asl #2]	@ prephitmp.3203, s_pstVfmwChan
	movw	r2, #:lower16:.LANCHOR0	@ tmp251,
	movt	r2, #:upper16:.LANCHOR0	@ tmp251,
	ldr	r8, [r3, #40]	@ <variable>.stChanCfg.eVidStd, <variable>.stChanCfg.eVidStd
	cmp	r8, #3	@ <variable>.stChanCfg.eVidStd,
	beq	.L954	@,
	mov	r1, #1016	@ tmp257,
	mvn	r8, #0	@,
	ldrd	r0, [r1, r3]	@ temp.3238, tmp257, prephitmp.3203
	mvn	r9, #0	@,
	cmp	r1, r9	@ temp.3238,
	cmpeq	r0, r8	@ temp.3238,
	movne	r9, #1008	@ tmp259,
	strned	r0, [r3, r9]	@ temp.3238, prephitmp.3203, tmp259
	ldrne	r3, [r2, r4, asl #2]	@ prephitmp.3203, s_pstVfmwChan
.L930:
	mov	r8, #1016	@,
	mvn	r0, #0	@ tmp262,
	mvn	r1, #0	@,
	strd	r0, [r3, r8]	@ tmp262, prephitmp.3203,
	ldr	lr, [r5, r4, asl #2]	@ temp.3239, s_pstVfmwChan
	movw	ip, #1032	@ tmp265,
	mov	r9, #1024	@ tmp264,
	mov	r0, #29	@,
	movw	r1, #:lower16:.LC282	@,
	movt	r1, #:upper16:.LC282	@,
	ldrd	r2, [lr, ip]	@, temp.3239, tmp265
	movw	r8, #:lower16:.LANCHOR0	@ tmp263,
	movt	r8, #:upper16:.LANCHOR0	@ tmp263,
	strd	r2, [lr, r9]	@, temp.3239, tmp264
	movw	r3, #1048	@,
	ldr	lr, [r5, r4, asl #2]	@ temp.3240, s_pstVfmwChan
	mov	r9, #1040	@ tmp268,
	ldrd	r2, [r3, lr]	@,, temp.3240
	strd	r2, [lr, r9]	@, temp.3240, tmp268
	ldr	r3, [r5, r4, asl #2]	@ temp.3241, s_pstVfmwChan
	ldr	lr, [r3, #1068]	@ <variable>.stSynExtraData.NextDispEnableFlag, <variable>.stSynExtraData.NextDispEnableFlag
	str	lr, [r3, #1056]	@ <variable>.stSynExtraData.NextDispEnableFlag, <variable>.stSynExtraData.DispEnableFlag
	ldr	r2, [r5, r4, asl #2]	@ temp.3242, s_pstVfmwChan
	ldr	r9, [r2, #1072]	@ <variable>.stSynExtraData.NextDispFrameDistance, <variable>.stSynExtraData.NextDispFrameDistance
	str	r9, [r2, #1060]	@ <variable>.stSynExtraData.NextDispFrameDistance, <variable>.stSynExtraData.DispFrameDistance
	ldr	r3, [r5, r4, asl #2]	@ temp.3243, s_pstVfmwChan
	ldr	lr, [r3, #1076]	@ <variable>.stSynExtraData.NextDistanceBeforeFirstFrame, <variable>.stSynExtraData.NextDistanceBeforeFirstFrame
	str	lr, [r3, #1064]	@ <variable>.stSynExtraData.NextDistanceBeforeFirstFrame, <variable>.stSynExtraData.DistanceBeforeFirstFrame
	mov	r3, #1008	@ tmp282,
	ldr	r2, [r5, r4, asl #2]	@ temp.3244, s_pstVfmwChan
	ldr	r9, [r2, #1084]	@ <variable>.stSynExtraData.NextGopNum, <variable>.stSynExtraData.NextGopNum
	str	r9, [r2, #1080]	@ <variable>.stSynExtraData.NextGopNum, <variable>.stSynExtraData.GopNum
	ldr	lr, [r5, r4, asl #2]	@ tmp281, s_pstVfmwChan
	add	r2, lr, r3	@, tmp281, tmp282
	ldrd	r2, [r2]	@,
	str	ip, [fp, #-88]	@,
	bl	dprint_vfmw	@
	ldr	r3, [r5, r4, asl #2]	@ temp.3227, s_pstVfmwChan
	ldr	ip, [fp, #-88]	@,
	ldr	r2, [r3, #40]	@ <variable>.stChanCfg.eVidStd, <variable>.stChanCfg.eVidStd
	cmp	r2, #3	@ <variable>.stChanCfg.eVidStd,
	bne	.L931	@,
	mov	r9, #1120	@ tmp287,
	mov	r2, #1136	@ tmp292,
	ldrd	r0, [r6, r9]	@, temp.3225, tmp287
	movw	lr, #1144	@ tmp297,
	mov	r9, #1016	@,
	strd	r0, [fp, #-84]	@,,
	ldrd	r0, [r6, r2]	@, temp.3225, tmp292
	strd	r0, [fp, #-52]	@,,
	ldrd	r0, [r6, lr]	@, temp.3225, tmp297
	strd	r0, [fp, #-68]	@,,
	ldrd	r0, [fp, #-84]	@,,
	ldr	lr, [r6, #1156]	@ <variable>.stSynExtraData.stSegPacket.CurrSeg.DispFrameDistance, <variable>.stSynExtraData.stSegPacket.CurrSeg.DispFrameDistance
	strd	r0, [r3, r9]	@, temp.3227,
	ldrd	r0, [fp, #-52]	@,,
	ldr	r2, [r8, r4, asl #2]	@ tmp290, s_pstVfmwChan
	ldr	r9, [r6, #1152]	@ <variable>.stSynExtraData.stSegPacket.CurrSeg.DispEnableFlag, <variable>.stSynExtraData.stSegPacket.CurrSeg.DispEnableFlag
	strd	r0, [r2, ip]	@, tmp290, tmp265
	movw	ip, #1048	@,
	ldr	r0, [r8, r4, asl #2]	@ tmp295, s_pstVfmwChan
	ldrd	r2, [fp, #-68]	@,,
	ldr	r1, [r6, #1160]	@ <variable>.stSynExtraData.stSegPacket.CurrSeg.DistanceBeforeFirstFrame, <variable>.stSynExtraData.stSegPacket.CurrSeg.DistanceBeforeFirstFrame
	strd	r2, [r0, ip]	@, tmp295,
	ldr	r0, [r8, r4, asl #2]	@ tmp300, s_pstVfmwChan
	str	r9, [r0, #1068]	@ <variable>.stSynExtraData.stSegPacket.CurrSeg.DispEnableFlag, <variable>.stSynExtraData.NextDispEnableFlag
	ldr	r3, [r8, r4, asl #2]	@ tmp303, s_pstVfmwChan
	str	lr, [r3, #1072]	@ <variable>.stSynExtraData.stSegPacket.CurrSeg.DispFrameDistance, <variable>.stSynExtraData.NextDispFrameDistance
	ldr	ip, [r8, r4, asl #2]	@ tmp306, s_pstVfmwChan
	str	r1, [ip, #1076]	@ <variable>.stSynExtraData.stSegPacket.CurrSeg.DistanceBeforeFirstFrame, <variable>.stSynExtraData.NextDistanceBeforeFirstFrame
	ldr	r1, [r6, #1164]	@, <variable>.stSynExtraData.stSegPacket.CurrSeg.GopNum
	ldr	r0, [r8, r4, asl #2]	@ tmp309, s_pstVfmwChan
	str	r1, [r0, #1084]	@, <variable>.stSynExtraData.NextGopNum
.L928:
	ldr	r3, [r5, r4, asl #2]	@ temp.3227, s_pstVfmwChan
	ldr	r1, [r3, #40]	@ <variable>.stChanCfg.eVidStd, <variable>.stChanCfg.eVidStd
	cmp	r1, #3	@ <variable>.stChanCfg.eVidStd,
	beq	.L932	@,
.L931:
	mov	r8, #1120	@ tmp313,
	mvn	r9, #0	@,
	ldrd	r0, [r6, r8]	@ temp.3262, temp.3225, tmp313
	mvn	r8, #0	@,
	cmp	r1, r9	@ temp.3262,
	cmpeq	r0, r8	@ temp.3262,
	movne	ip, #1016	@ tmp315,
	strned	r0, [r3, ip]	@ temp.3262, temp.3227, tmp315
.L933:
	mov	r9, #1136	@ tmp319,
	ldr	ip, [r5, r4, asl #2]	@ tmp317, s_pstVfmwChan
	ldrd	r0, [r6, r9]	@ <variable>.stSynExtraData.stSegPacket.CurrSeg.Usertag, temp.3225, tmp319
	movw	lr, #1144	@ tmp324,
	movw	r3, #1032	@ tmp318,
	ldrd	r8, [r6, lr]	@, temp.3225, tmp324
	movw	r2, #1048	@ tmp323,
	strd	r0, [ip, r3]	@ <variable>.stSynExtraData.stSegPacket.CurrSeg.Usertag, tmp317, tmp318
	ldr	lr, [r5, r4, asl #2]	@ tmp322, s_pstVfmwChan
	ldr	ip, [r6, #1152]	@ <variable>.stSynExtraData.stSegPacket.CurrSeg.DispEnableFlag, <variable>.stSynExtraData.stSegPacket.CurrSeg.DispEnableFlag
	ldr	r0, [r6, #1156]	@ <variable>.stSynExtraData.stSegPacket.CurrSeg.DispFrameDistance, <variable>.stSynExtraData.stSegPacket.CurrSeg.DispFrameDistance
	strd	r8, [lr, r2]	@, tmp322, tmp323
